
bin/Demo.elf:     file format elf32-littlearm


Disassembly of section .image:

00400000 <_vector_table>:
  400000:	e59ff018 	ldr	pc, [pc, #24]	@ 400020 <_excep_handlers>
  400004:	e59ff018 	ldr	pc, [pc, #24]	@ 400024 <_excep_handlers+0x4>
  400008:	e59ff018 	ldr	pc, [pc, #24]	@ 400028 <_excep_handlers+0x8>
  40000c:	e59ff018 	ldr	pc, [pc, #24]	@ 40002c <_excep_handlers+0xc>
  400010:	e59ff018 	ldr	pc, [pc, #24]	@ 400030 <_excep_handlers+0x10>
  400014:	e1a00000 	nop			@ (mov r0, r0)
  400018:	e59ff018 	ldr	pc, [pc, #24]	@ 400038 <_excep_handlers+0x18>
  40001c:	e59ff018 	ldr	pc, [pc, #24]	@ 40003c <_excep_handlers+0x1c>

00400020 <_excep_handlers>:
  400020:	00400080 	subeq	r0, r0, r0, lsl #1
  400024:	00400084 	subeq	r0, r0, r4, lsl #1
  400028:	00400088 	subeq	r0, r0, r8, lsl #1
  40002c:	0040008c 	subeq	r0, r0, ip, lsl #1
  400030:	00400090 	umaaleq	r0, r0, r0, r0
  400034:	e1a00000 	nop			@ (mov r0, r0)
  400038:	00400094 	umaaleq	r0, r0, r4, r0
  40003c:	00400098 	umaaleq	r0, r0, r8, r0
  400040:	79706f43 	ldmdbvc	r0!, {r0, r1, r6, r8, r9, sl, fp, sp, lr}^
  400044:	68676972 	stmdavs	r7!, {r1, r4, r5, r6, r8, fp, sp, lr}^
  400048:	43282074 			@ <UNDEFINED> instruction: 0x43282074
  40004c:	6e552029 	cdpvs	0, 5, cr2, cr5, cr9, {1}
  400050:	72657669 	rsbvc	r7, r5, #110100480	@ 0x6900000
  400054:	61646973 	smcvs	18067	@ 0x4693
  400058:	65642064 	strbvs	r2, [r4, #-100]!	@ 0xffffff9c
  40005c:	61724720 	cmnvs	r2, r0, lsr #14
  400060:	6164616e 	cmnvs	r4, lr, ror #2
  400064:	6c41202e 	mcrrvs	0, 2, r2, r1, cr14
  400068:	6952206c 	ldmdbvs	r2, {r2, r3, r5, r6, sp}^
  40006c:	73746867 	cmnvc	r4, #6750208	@ 0x670000
  400070:	73655220 	cmnvc	r5, #32, 4
  400074:	65767265 	ldrbvs	r7, [r6, #-613]!	@ 0xfffffd9b
  400078:	00002e64 	andeq	r2, r0, r4, ror #28
  40007c:	e1a00000 	nop			@ (mov r0, r0)

00400080 <_soft_reset_handler>:
  400080:	ea000006 	b	4000a0 <_start>

00400084 <_undef_handler>:
  400084:	eafffffe 	b	400084 <_undef_handler>

00400088 <_swi_handler>:
  400088:	e59ff060 	ldr	pc, [pc, #96]	@ 4000f0 <_start+0x50>

0040008c <_pabt_handler>:
  40008c:	eafffffe 	b	40008c <_pabt_handler>

00400090 <_dabt_handler>:
  400090:	eafffffe 	b	400090 <_dabt_handler>

00400094 <_irq_handler>:
  400094:	eafffffe 	b	400094 <_irq_handler>

00400098 <_fiq_handler>:
  400098:	eafffffe 	b	400098 <_fiq_handler>
  40009c:	e1a00000 	nop			@ (mov r0, r0)

004000a0 <_start>:
  4000a0:	e321f0db 	msr	CPSR_c, #219	@ 0xdb
  4000a4:	e59fd048 	ldr	sp, [pc, #72]	@ 4000f4 <_start+0x54>
  4000a8:	e321f0d7 	msr	CPSR_c, #215	@ 0xd7
  4000ac:	e59fd044 	ldr	sp, [pc, #68]	@ 4000f8 <_start+0x58>
  4000b0:	e321f0df 	msr	CPSR_c, #223	@ 0xdf
  4000b4:	e59fd040 	ldr	sp, [pc, #64]	@ 4000fc <_start+0x5c>
  4000b8:	e321f0d1 	msr	CPSR_c, #209	@ 0xd1
  4000bc:	e59fd03c 	ldr	sp, [pc, #60]	@ 400100 <_start+0x60>
  4000c0:	e321f0d2 	msr	CPSR_c, #210	@ 0xd2
  4000c4:	e59fd038 	ldr	sp, [pc, #56]	@ 400104 <_start+0x64>
  4000c8:	e321f0d3 	msr	CPSR_c, #211	@ 0xd3
  4000cc:	e59fd034 	ldr	sp, [pc, #52]	@ 400108 <_start+0x68>
  4000d0:	e59fc034 	ldr	ip, [pc, #52]	@ 40010c <_start+0x6c>
  4000d4:	e1a0e00f 	mov	lr, pc
  4000d8:	e12fff1c 	bx	ip
  4000dc:	e321f013 	msr	CPSR_c, #19
  4000e0:	e59fc028 	ldr	ip, [pc, #40]	@ 400110 <_start+0x70>
  4000e4:	e1a0e00f 	mov	lr, pc
  4000e8:	e12fff1c 	bx	ip
  4000ec:	eafffffe 	b	4000ec <_start+0x4c>
  4000f0:	00402ee8 	subeq	r2, r0, r8, ror #29
  4000f4:	00417e00 	subeq	r7, r1, r0, lsl #28
  4000f8:	00417df0 	strdeq	r7, [r1], #-208	@ 0xffffff30
  4000fc:	00417ce0 	subeq	r7, r1, r0, ror #25
  400100:	00418000 	subeq	r8, r1, r0
  400104:	00417f00 	subeq	r7, r1, r0, lsl #30
  400108:	00417de0 	subeq	r7, r1, r0, ror #27
  40010c:	0040383c 	subeq	r3, r0, ip, lsr r8
  400110:	00400234 	subeq	r0, r0, r4, lsr r2

00400114 <led_init>:
  400114:	e92d4800 	push	{fp, lr}
  400118:	e28db004 	add	fp, sp, #4
  40011c:	e3a0002c 	mov	r0, #44	@ 0x2c
  400120:	eb000c4a 	bl	403250 <gpio_set_pin_dir_output>
  400124:	e3a0002c 	mov	r0, #44	@ 0x2c
  400128:	eb000c74 	bl	403300 <gpio_clear_pin>
  40012c:	e3a0002d 	mov	r0, #45	@ 0x2d
  400130:	eb000c46 	bl	403250 <gpio_set_pin_dir_output>
  400134:	e3a0002d 	mov	r0, #45	@ 0x2d
  400138:	eb000c70 	bl	403300 <gpio_clear_pin>
  40013c:	e1a00000 	nop			@ (mov r0, r0)
  400140:	e24bd004 	sub	sp, fp, #4
  400144:	e8bd4800 	pop	{fp, lr}
  400148:	e12fff1e 	bx	lr

0040014c <toggle_led>:
  40014c:	e92d4800 	push	{fp, lr}
  400150:	e28db004 	add	fp, sp, #4
  400154:	e24dd010 	sub	sp, sp, #16
  400158:	e1a03000 	mov	r3, r0
  40015c:	e54b300d 	strb	r3, [fp, #-13]
  400160:	e55b300d 	ldrb	r3, [fp, #-13]
  400164:	e353002c 	cmp	r3, #44	@ 0x2c
  400168:	1a000001 	bne	400174 <toggle_led+0x28>
  40016c:	e59f3068 	ldr	r3, [pc, #104]	@ 4001dc <toggle_led+0x90>
  400170:	ea000000 	b	400178 <toggle_led+0x2c>
  400174:	e59f3064 	ldr	r3, [pc, #100]	@ 4001e0 <toggle_led+0x94>
  400178:	e50b3008 	str	r3, [fp, #-8]
  40017c:	e51b3008 	ldr	r3, [fp, #-8]
  400180:	e5933000 	ldr	r3, [r3]
  400184:	e3530000 	cmp	r3, #0
  400188:	0a000003 	beq	40019c <toggle_led+0x50>
  40018c:	e55b300d 	ldrb	r3, [fp, #-13]
  400190:	e1a00003 	mov	r0, r3
  400194:	eb000c59 	bl	403300 <gpio_clear_pin>
  400198:	ea000002 	b	4001a8 <toggle_led+0x5c>
  40019c:	e55b300d 	ldrb	r3, [fp, #-13]
  4001a0:	e1a00003 	mov	r0, r3
  4001a4:	eb000c48 	bl	4032cc <gpio_set_pin>
  4001a8:	e51b3008 	ldr	r3, [fp, #-8]
  4001ac:	e5933000 	ldr	r3, [r3]
  4001b0:	e3530000 	cmp	r3, #0
  4001b4:	03a03001 	moveq	r3, #1
  4001b8:	13a03000 	movne	r3, #0
  4001bc:	e20330ff 	and	r3, r3, #255	@ 0xff
  4001c0:	e1a02003 	mov	r2, r3
  4001c4:	e51b3008 	ldr	r3, [fp, #-8]
  4001c8:	e5832000 	str	r2, [r3]
  4001cc:	e1a00000 	nop			@ (mov r0, r0)
  4001d0:	e24bd004 	sub	sp, fp, #4
  4001d4:	e8bd4800 	pop	{fp, lr}
  4001d8:	e12fff1e 	bx	lr
  4001dc:	00407978 	subeq	r7, r0, r8, ror r9
  4001e0:	0040797c 	subeq	r7, r0, ip, ror r9

004001e4 <blinkRed>:
  4001e4:	e92d4800 	push	{fp, lr}
  4001e8:	e28db004 	add	fp, sp, #4
  4001ec:	e24dd008 	sub	sp, sp, #8
  4001f0:	e50b0008 	str	r0, [fp, #-8]
  4001f4:	eb000cb2 	bl	4034c4 <itc_disable_ints>
  4001f8:	e3a0002c 	mov	r0, #44	@ 0x2c
  4001fc:	ebffffd2 	bl	40014c <toggle_led>
  400200:	e3a00005 	mov	r0, #5
  400204:	eb0004c9 	bl	401530 <vTaskDelay>
  400208:	eb000cb6 	bl	4034e8 <itc_restore_ints>
  40020c:	eafffff8 	b	4001f4 <blinkRed+0x10>

00400210 <blinkGreen>:
  400210:	e92d4800 	push	{fp, lr}
  400214:	e28db004 	add	fp, sp, #4
  400218:	e24dd008 	sub	sp, sp, #8
  40021c:	e50b0008 	str	r0, [fp, #-8]
  400220:	e3a0002d 	mov	r0, #45	@ 0x2d
  400224:	ebffffc8 	bl	40014c <toggle_led>
  400228:	e3a0000a 	mov	r0, #10
  40022c:	eb0004bf 	bl	401530 <vTaskDelay>
  400230:	eafffffa 	b	400220 <blinkGreen+0x10>

00400234 <main>:
  400234:	e92d4800 	push	{fp, lr}
  400238:	e28db004 	add	fp, sp, #4
  40023c:	e24dd010 	sub	sp, sp, #16
  400240:	e59f005c 	ldr	r0, [pc, #92]	@ 4002a4 <main+0x70>
  400244:	eb0011db 	bl	4049b8 <puts>
  400248:	ebffffb1 	bl	400114 <led_init>
  40024c:	e3a0002d 	mov	r0, #45	@ 0x2d
  400250:	eb000c1d 	bl	4032cc <gpio_set_pin>
  400254:	e3a03000 	mov	r3, #0
  400258:	e58d3004 	str	r3, [sp, #4]
  40025c:	e3a03004 	mov	r3, #4
  400260:	e58d3000 	str	r3, [sp]
  400264:	e3a03000 	mov	r3, #0
  400268:	e3a02d06 	mov	r2, #384	@ 0x180
  40026c:	e59f1034 	ldr	r1, [pc, #52]	@ 4002a8 <main+0x74>
  400270:	e59f0034 	ldr	r0, [pc, #52]	@ 4002ac <main+0x78>
  400274:	eb000178 	bl	40085c <xTaskCreate>
  400278:	e50b0008 	str	r0, [fp, #-8]
  40027c:	e51b3008 	ldr	r3, [fp, #-8]
  400280:	e3530001 	cmp	r3, #1
  400284:	0a000002 	beq	400294 <main+0x60>
  400288:	e3a0002d 	mov	r0, #45	@ 0x2d
  40028c:	eb000c1b 	bl	403300 <gpio_clear_pin>
  400290:	eafffffe 	b	400290 <main+0x5c>
  400294:	eb0002f4 	bl	400e6c <vTaskStartScheduler>
  400298:	e3a0002d 	mov	r0, #45	@ 0x2d
  40029c:	eb000c17 	bl	403300 <gpio_clear_pin>
  4002a0:	eafffffe 	b	4002a0 <main+0x6c>
  4002a4:	00404510 	subeq	r4, r0, r0, lsl r5
  4002a8:	0040452c 	subeq	r4, r0, ip, lsr #10
  4002ac:	004001e4 	subeq	r0, r0, r4, ror #3

004002b0 <vApplicationStackOverflowHook>:
  4002b0:	e52db004 	push	{fp}		@ (str fp, [sp, #-4]!)
  4002b4:	e28db000 	add	fp, sp, #0
  4002b8:	e24dd00c 	sub	sp, sp, #12
  4002bc:	e50b0008 	str	r0, [fp, #-8]
  4002c0:	e50b100c 	str	r1, [fp, #-12]
  4002c4:	e1a00000 	nop			@ (mov r0, r0)
  4002c8:	e28bd000 	add	sp, fp, #0
  4002cc:	e49db004 	pop	{fp}		@ (ldr fp, [sp], #4)
  4002d0:	e12fff1e 	bx	lr

004002d4 <prvTaskIsTaskSuspended>:
  4002d4:	e3500000 	cmp	r0, #0
  4002d8:	0a000005 	beq	4002f4 <prvTaskIsTaskSuspended+0x20>
  4002dc:	e5902014 	ldr	r2, [r0, #20]
  4002e0:	e59f3080 	ldr	r3, [pc, #128]	@ 400368 <prvTaskIsTaskSuspended+0x94>
  4002e4:	e1520003 	cmp	r2, r3
  4002e8:	0a000007 	beq	40030c <prvTaskIsTaskSuspended+0x38>
  4002ec:	e3a00000 	mov	r0, #0
  4002f0:	e12fff1e 	bx	lr
  4002f4:	e92d0001 	stmfd	sp!, {r0}
  4002f8:	e10f0000 	mrs	r0, CPSR
  4002fc:	e38000c0 	orr	r0, r0, #192	@ 0xc0
  400300:	e129f000 	msr	CPSR_fc, r0
  400304:	e8bd0001 	ldmfd	sp!, {r0}
  400308:	eafffffe 	b	400308 <prvTaskIsTaskSuspended+0x34>
  40030c:	e5903028 	ldr	r3, [r0, #40]	@ 0x28
  400310:	e59f2054 	ldr	r2, [pc, #84]	@ 40036c <prvTaskIsTaskSuspended+0x98>
  400314:	e1530002 	cmp	r3, r2
  400318:	0a00000e 	beq	400358 <prvTaskIsTaskSuspended+0x84>
  40031c:	e3530000 	cmp	r3, #0
  400320:	0a000007 	beq	400344 <prvTaskIsTaskSuspended+0x70>
  400324:	e3a00000 	mov	r0, #0
  400328:	e12fff1e 	bx	lr
  40032c:	e0802003 	add	r2, r0, r3
  400330:	e5d22050 	ldrb	r2, [r2, #80]	@ 0x50
  400334:	e3520001 	cmp	r2, #1
  400338:	0a000008 	beq	400360 <prvTaskIsTaskSuspended+0x8c>
  40033c:	e2833001 	add	r3, r3, #1
  400340:	ea000000 	b	400348 <prvTaskIsTaskSuspended+0x74>
  400344:	e3a03000 	mov	r3, #0
  400348:	e3530000 	cmp	r3, #0
  40034c:	dafffff6 	ble	40032c <prvTaskIsTaskSuspended+0x58>
  400350:	e3a00001 	mov	r0, #1
  400354:	e12fff1e 	bx	lr
  400358:	e3a00000 	mov	r0, #0
  40035c:	e12fff1e 	bx	lr
  400360:	e3a00000 	mov	r0, #0
  400364:	e12fff1e 	bx	lr
  400368:	00407980 	subeq	r7, r0, r0, lsl #19
  40036c:	00407994 	umaaleq	r7, r0, r4, r9

00400370 <prvResetNextTaskUnblockTime>:
  400370:	e59f3034 	ldr	r3, [pc, #52]	@ 4003ac <prvResetNextTaskUnblockTime+0x3c>
  400374:	e5933028 	ldr	r3, [r3, #40]	@ 0x28
  400378:	e5933000 	ldr	r3, [r3]
  40037c:	e3530000 	cmp	r3, #0
  400380:	1a000003 	bne	400394 <prvResetNextTaskUnblockTime+0x24>
  400384:	e59f3020 	ldr	r3, [pc, #32]	@ 4003ac <prvResetNextTaskUnblockTime+0x3c>
  400388:	e3e02000 	mvn	r2, #0
  40038c:	e583202c 	str	r2, [r3, #44]	@ 0x2c
  400390:	e12fff1e 	bx	lr
  400394:	e59f3010 	ldr	r3, [pc, #16]	@ 4003ac <prvResetNextTaskUnblockTime+0x3c>
  400398:	e5932028 	ldr	r2, [r3, #40]	@ 0x28
  40039c:	e592200c 	ldr	r2, [r2, #12]
  4003a0:	e5922000 	ldr	r2, [r2]
  4003a4:	e583202c 	str	r2, [r3, #44]	@ 0x2c
  4003a8:	e12fff1e 	bx	lr
  4003ac:	00407980 	subeq	r7, r0, r0, lsl #19

004003b0 <prvDeleteTCB>:
  4003b0:	e92d4010 	push	{r4, lr}
  4003b4:	e1a04000 	mov	r4, r0
  4003b8:	e5900030 	ldr	r0, [r0, #48]	@ 0x30
  4003bc:	eb000a57 	bl	402d20 <vPortFree>
  4003c0:	e1a00004 	mov	r0, r4
  4003c4:	eb000a55 	bl	402d20 <vPortFree>
  4003c8:	e8bd4010 	pop	{r4, lr}
  4003cc:	e12fff1e 	bx	lr

004003d0 <prvInitialiseNewTask>:
  4003d0:	e92d47f0 	push	{r4, r5, r6, r7, r8, r9, sl, lr}
  4003d4:	e1a08000 	mov	r8, r0
  4003d8:	e1a05001 	mov	r5, r1
  4003dc:	e1a06002 	mov	r6, r2
  4003e0:	e1a09003 	mov	r9, r3
  4003e4:	e59d7020 	ldr	r7, [sp, #32]
  4003e8:	e59d4028 	ldr	r4, [sp, #40]	@ 0x28
  4003ec:	e1a02102 	lsl	r2, r2, #2
  4003f0:	e3a010a5 	mov	r1, #165	@ 0xa5
  4003f4:	e5940030 	ldr	r0, [r4, #48]	@ 0x30
  4003f8:	eb0010ee 	bl	4047b8 <memset>
  4003fc:	e5943030 	ldr	r3, [r4, #48]	@ 0x30
  400400:	e2466107 	sub	r6, r6, #-1073741823	@ 0xc0000001
  400404:	e0836106 	add	r6, r3, r6, lsl #2
  400408:	e3c66003 	bic	r6, r6, #3
  40040c:	e3550000 	cmp	r5, #0
  400410:	0a00000a 	beq	400440 <prvInitialiseNewTask+0x70>
  400414:	e3a02000 	mov	r2, #0
  400418:	e352000f 	cmp	r2, #15
  40041c:	8a000005 	bhi	400438 <prvInitialiseNewTask+0x68>
  400420:	e7d5c002 	ldrb	ip, [r5, r2]
  400424:	e0843002 	add	r3, r4, r2
  400428:	e5c3c034 	strb	ip, [r3, #52]	@ 0x34
  40042c:	e35c0000 	cmp	ip, #0
  400430:	12822001 	addne	r2, r2, #1
  400434:	1afffff7 	bne	400418 <prvInitialiseNewTask+0x48>
  400438:	e3a03000 	mov	r3, #0
  40043c:	e5c43043 	strb	r3, [r4, #67]	@ 0x43
  400440:	e3570004 	cmp	r7, #4
  400444:	9a000005 	bls	400460 <prvInitialiseNewTask+0x90>
  400448:	e92d0001 	stmfd	sp!, {r0}
  40044c:	e10f0000 	mrs	r0, CPSR
  400450:	e38000c0 	orr	r0, r0, #192	@ 0xc0
  400454:	e129f000 	msr	CPSR_fc, r0
  400458:	e8bd0001 	ldmfd	sp!, {r0}
  40045c:	eafffffe 	b	40045c <prvInitialiseNewTask+0x8c>
  400460:	e584702c 	str	r7, [r4, #44]	@ 0x2c
  400464:	e5847044 	str	r7, [r4, #68]	@ 0x44
  400468:	e2840004 	add	r0, r4, #4
  40046c:	eb000b21 	bl	4030f8 <vListInitialiseItem>
  400470:	e2840018 	add	r0, r4, #24
  400474:	eb000b1f 	bl	4030f8 <vListInitialiseItem>
  400478:	e5844010 	str	r4, [r4, #16]
  40047c:	e2677005 	rsb	r7, r7, #5
  400480:	e5847018 	str	r7, [r4, #24]
  400484:	e5844024 	str	r4, [r4, #36]	@ 0x24
  400488:	e1a02009 	mov	r2, r9
  40048c:	e1a01008 	mov	r1, r8
  400490:	e1a00006 	mov	r0, r6
  400494:	eb000a4c 	bl	402dcc <pxPortInitialiseStack>
  400498:	e5840000 	str	r0, [r4]
  40049c:	e59d3024 	ldr	r3, [sp, #36]	@ 0x24
  4004a0:	e3530000 	cmp	r3, #0
  4004a4:	15834000 	strne	r4, [r3]
  4004a8:	e8bd47f0 	pop	{r4, r5, r6, r7, r8, r9, sl, lr}
  4004ac:	e12fff1e 	bx	lr

004004b0 <prvCreateTask>:
  4004b0:	e92d43f0 	push	{r4, r5, r6, r7, r8, r9, lr}
  4004b4:	e24dd014 	sub	sp, sp, #20
  4004b8:	e1a07000 	mov	r7, r0
  4004bc:	e1a08001 	mov	r8, r1
  4004c0:	e1a06002 	mov	r6, r2
  4004c4:	e1a09003 	mov	r9, r3
  4004c8:	e1a00102 	lsl	r0, r2, #2
  4004cc:	eb0009e3 	bl	402c60 <pvPortMalloc>
  4004d0:	e2505000 	subs	r5, r0, #0
  4004d4:	0a00001b 	beq	400548 <prvCreateTask+0x98>
  4004d8:	e3a00054 	mov	r0, #84	@ 0x54
  4004dc:	eb0009df 	bl	402c60 <pvPortMalloc>
  4004e0:	e2504000 	subs	r4, r0, #0
  4004e4:	0a000014 	beq	40053c <prvCreateTask+0x8c>
  4004e8:	e3a02054 	mov	r2, #84	@ 0x54
  4004ec:	e3a01000 	mov	r1, #0
  4004f0:	e1a00004 	mov	r0, r4
  4004f4:	eb0010af 	bl	4047b8 <memset>
  4004f8:	e5845030 	str	r5, [r4, #48]	@ 0x30
  4004fc:	e3a03000 	mov	r3, #0
  400500:	e58d300c 	str	r3, [sp, #12]
  400504:	e58d4008 	str	r4, [sp, #8]
  400508:	e59d3034 	ldr	r3, [sp, #52]	@ 0x34
  40050c:	e58d3004 	str	r3, [sp, #4]
  400510:	e59d3030 	ldr	r3, [sp, #48]	@ 0x30
  400514:	e58d3000 	str	r3, [sp]
  400518:	e1a03009 	mov	r3, r9
  40051c:	e1a02006 	mov	r2, r6
  400520:	e1a01008 	mov	r1, r8
  400524:	e1a00007 	mov	r0, r7
  400528:	ebffffa8 	bl	4003d0 <prvInitialiseNewTask>
  40052c:	e1a00004 	mov	r0, r4
  400530:	e28dd014 	add	sp, sp, #20
  400534:	e8bd43f0 	pop	{r4, r5, r6, r7, r8, r9, lr}
  400538:	e12fff1e 	bx	lr
  40053c:	e1a00005 	mov	r0, r5
  400540:	eb0009f6 	bl	402d20 <vPortFree>
  400544:	eafffff8 	b	40052c <prvCreateTask+0x7c>
  400548:	e1a04005 	mov	r4, r5
  40054c:	eafffff6 	b	40052c <prvCreateTask+0x7c>

00400550 <prvInitialiseTaskLists>:
  400550:	e92d4070 	push	{r4, r5, r6, lr}
  400554:	e3a04000 	mov	r4, #0
  400558:	ea000005 	b	400574 <prvInitialiseTaskLists+0x24>
  40055c:	e0842104 	add	r2, r4, r4, lsl #2
  400560:	e1a03102 	lsl	r3, r2, #2
  400564:	e59f0054 	ldr	r0, [pc, #84]	@ 4005c0 <prvInitialiseTaskLists+0x70>
  400568:	e0800003 	add	r0, r0, r3
  40056c:	eb000ad8 	bl	4030d4 <vListInitialise>
  400570:	e2844001 	add	r4, r4, #1
  400574:	e3540004 	cmp	r4, #4
  400578:	9afffff7 	bls	40055c <prvInitialiseTaskLists+0xc>
  40057c:	e59f4040 	ldr	r4, [pc, #64]	@ 4005c4 <prvInitialiseTaskLists+0x74>
  400580:	e2846094 	add	r6, r4, #148	@ 0x94
  400584:	e1a00006 	mov	r0, r6
  400588:	eb000ad1 	bl	4030d4 <vListInitialise>
  40058c:	e28450a8 	add	r5, r4, #168	@ 0xa8
  400590:	e1a00005 	mov	r0, r5
  400594:	eb000ace 	bl	4030d4 <vListInitialise>
  400598:	e2840014 	add	r0, r4, #20
  40059c:	eb000acc 	bl	4030d4 <vListInitialise>
  4005a0:	e28400bc 	add	r0, r4, #188	@ 0xbc
  4005a4:	eb000aca 	bl	4030d4 <vListInitialise>
  4005a8:	e1a00004 	mov	r0, r4
  4005ac:	eb000ac8 	bl	4030d4 <vListInitialise>
  4005b0:	e5846028 	str	r6, [r4, #40]	@ 0x28
  4005b4:	e58450d0 	str	r5, [r4, #208]	@ 0xd0
  4005b8:	e8bd4070 	pop	{r4, r5, r6, lr}
  4005bc:	e12fff1e 	bx	lr
  4005c0:	004079b0 	strheq	r7, [r0], #-144	@ 0xffffff70
  4005c4:	00407980 	subeq	r7, r0, r0, lsl #19

004005c8 <prvAddNewTaskToReadyList>:
  4005c8:	e92d4070 	push	{r4, r5, r6, lr}
  4005cc:	e1a04000 	mov	r4, r0
  4005d0:	eb000bbb 	bl	4034c4 <itc_disable_ints>
  4005d4:	e59f3104 	ldr	r3, [pc, #260]	@ 4006e0 <prvAddNewTaskToReadyList+0x118>
  4005d8:	e59320d4 	ldr	r2, [r3, #212]	@ 0xd4
  4005dc:	e2822001 	add	r2, r2, #1
  4005e0:	e58320d4 	str	r2, [r3, #212]	@ 0xd4
  4005e4:	e59330d8 	ldr	r3, [r3, #216]	@ 0xd8
  4005e8:	e3530000 	cmp	r3, #0
  4005ec:	0a00000b 	beq	400620 <prvAddNewTaskToReadyList+0x58>
  4005f0:	e59f30e8 	ldr	r3, [pc, #232]	@ 4006e0 <prvAddNewTaskToReadyList+0x118>
  4005f4:	e59330dc 	ldr	r3, [r3, #220]	@ 0xdc
  4005f8:	e3530000 	cmp	r3, #0
  4005fc:	1a00000c 	bne	400634 <prvAddNewTaskToReadyList+0x6c>
  400600:	e59f30d8 	ldr	r3, [pc, #216]	@ 4006e0 <prvAddNewTaskToReadyList+0x118>
  400604:	e59330d8 	ldr	r3, [r3, #216]	@ 0xd8
  400608:	e593202c 	ldr	r2, [r3, #44]	@ 0x2c
  40060c:	e594302c 	ldr	r3, [r4, #44]	@ 0x2c
  400610:	e1520003 	cmp	r2, r3
  400614:	959f30c4 	ldrls	r3, [pc, #196]	@ 4006e0 <prvAddNewTaskToReadyList+0x118>
  400618:	958340d8 	strls	r4, [r3, #216]	@ 0xd8
  40061c:	ea000004 	b	400634 <prvAddNewTaskToReadyList+0x6c>
  400620:	e59f30b8 	ldr	r3, [pc, #184]	@ 4006e0 <prvAddNewTaskToReadyList+0x118>
  400624:	e58340d8 	str	r4, [r3, #216]	@ 0xd8
  400628:	e59330d4 	ldr	r3, [r3, #212]	@ 0xd4
  40062c:	e3530001 	cmp	r3, #1
  400630:	0a000028 	beq	4006d8 <prvAddNewTaskToReadyList+0x110>
  400634:	e59f20a4 	ldr	r2, [pc, #164]	@ 4006e0 <prvAddNewTaskToReadyList+0x118>
  400638:	e59230e0 	ldr	r3, [r2, #224]	@ 0xe0
  40063c:	e2833001 	add	r3, r3, #1
  400640:	e58230e0 	str	r3, [r2, #224]	@ 0xe0
  400644:	e594302c 	ldr	r3, [r4, #44]	@ 0x2c
  400648:	e59220e4 	ldr	r2, [r2, #228]	@ 0xe4
  40064c:	e1530002 	cmp	r3, r2
  400650:	859f2088 	ldrhi	r2, [pc, #136]	@ 4006e0 <prvAddNewTaskToReadyList+0x118>
  400654:	858230e4 	strhi	r3, [r2, #228]	@ 0xe4
  400658:	e59f5080 	ldr	r5, [pc, #128]	@ 4006e0 <prvAddNewTaskToReadyList+0x118>
  40065c:	e0833103 	add	r3, r3, r3, lsl #2
  400660:	e0853103 	add	r3, r5, r3, lsl #2
  400664:	e5933034 	ldr	r3, [r3, #52]	@ 0x34
  400668:	e5843008 	str	r3, [r4, #8]
  40066c:	e5931008 	ldr	r1, [r3, #8]
  400670:	e584100c 	str	r1, [r4, #12]
  400674:	e2842004 	add	r2, r4, #4
  400678:	e5812004 	str	r2, [r1, #4]
  40067c:	e5832008 	str	r2, [r3, #8]
  400680:	e594302c 	ldr	r3, [r4, #44]	@ 0x2c
  400684:	e2852030 	add	r2, r5, #48	@ 0x30
  400688:	e0831103 	add	r1, r3, r3, lsl #2
  40068c:	e0822101 	add	r2, r2, r1, lsl #2
  400690:	e5842014 	str	r2, [r4, #20]
  400694:	e0852101 	add	r2, r5, r1, lsl #2
  400698:	e5922030 	ldr	r2, [r2, #48]	@ 0x30
  40069c:	e2822001 	add	r2, r2, #1
  4006a0:	e0853101 	add	r3, r5, r1, lsl #2
  4006a4:	e5832030 	str	r2, [r3, #48]	@ 0x30
  4006a8:	eb000b8e 	bl	4034e8 <itc_restore_ints>
  4006ac:	e59530dc 	ldr	r3, [r5, #220]	@ 0xdc
  4006b0:	e3530000 	cmp	r3, #0
  4006b4:	0a000005 	beq	4006d0 <prvAddNewTaskToReadyList+0x108>
  4006b8:	e59530d8 	ldr	r3, [r5, #216]	@ 0xd8
  4006bc:	e593202c 	ldr	r2, [r3, #44]	@ 0x2c
  4006c0:	e594302c 	ldr	r3, [r4, #44]	@ 0x2c
  4006c4:	e1520003 	cmp	r2, r3
  4006c8:	2a000000 	bcs	4006d0 <prvAddNewTaskToReadyList+0x108>
  4006cc:	ef000000 	svc	0x00000000
  4006d0:	e8bd4070 	pop	{r4, r5, r6, lr}
  4006d4:	e12fff1e 	bx	lr
  4006d8:	ebffff9c 	bl	400550 <prvInitialiseTaskLists>
  4006dc:	eaffffd4 	b	400634 <prvAddNewTaskToReadyList+0x6c>
  4006e0:	00407980 	subeq	r7, r0, r0, lsl #19

004006e4 <prvCheckTasksWaitingTermination>:
  4006e4:	e59f3060 	ldr	r3, [pc, #96]	@ 40074c <prvCheckTasksWaitingTermination+0x68>
  4006e8:	e59330e8 	ldr	r3, [r3, #232]	@ 0xe8
  4006ec:	e3530000 	cmp	r3, #0
  4006f0:	012fff1e 	bxeq	lr
  4006f4:	e92d4070 	push	{r4, r5, r6, lr}
  4006f8:	eb000b71 	bl	4034c4 <itc_disable_ints>
  4006fc:	e59f4048 	ldr	r4, [pc, #72]	@ 40074c <prvCheckTasksWaitingTermination+0x68>
  400700:	e59430c8 	ldr	r3, [r4, #200]	@ 0xc8
  400704:	e593500c 	ldr	r5, [r3, #12]
  400708:	e2850004 	add	r0, r5, #4
  40070c:	eb000a9e 	bl	40318c <uxListRemove>
  400710:	e59430d4 	ldr	r3, [r4, #212]	@ 0xd4
  400714:	e2433001 	sub	r3, r3, #1
  400718:	e58430d4 	str	r3, [r4, #212]	@ 0xd4
  40071c:	e59430e8 	ldr	r3, [r4, #232]	@ 0xe8
  400720:	e2433001 	sub	r3, r3, #1
  400724:	e58430e8 	str	r3, [r4, #232]	@ 0xe8
  400728:	eb000b6e 	bl	4034e8 <itc_restore_ints>
  40072c:	e1a00005 	mov	r0, r5
  400730:	ebffff1e 	bl	4003b0 <prvDeleteTCB>
  400734:	e59f3010 	ldr	r3, [pc, #16]	@ 40074c <prvCheckTasksWaitingTermination+0x68>
  400738:	e59330e8 	ldr	r3, [r3, #232]	@ 0xe8
  40073c:	e3530000 	cmp	r3, #0
  400740:	1affffec 	bne	4006f8 <prvCheckTasksWaitingTermination+0x14>
  400744:	e8bd4070 	pop	{r4, r5, r6, lr}
  400748:	e12fff1e 	bx	lr
  40074c:	00407980 	subeq	r7, r0, r0, lsl #19

00400750 <prvIdleTask>:
  400750:	e92d4010 	push	{r4, lr}
  400754:	ebffffe2 	bl	4006e4 <prvCheckTasksWaitingTermination>
  400758:	e59f3010 	ldr	r3, [pc, #16]	@ 400770 <prvIdleTask+0x20>
  40075c:	e5933030 	ldr	r3, [r3, #48]	@ 0x30
  400760:	e3530001 	cmp	r3, #1
  400764:	9afffffa 	bls	400754 <prvIdleTask+0x4>
  400768:	ef000000 	svc	0x00000000
  40076c:	eafffff8 	b	400754 <prvIdleTask+0x4>
  400770:	00407980 	subeq	r7, r0, r0, lsl #19

00400774 <prvAddCurrentTaskToDelayedList>:
  400774:	e92d41f0 	push	{r4, r5, r6, r7, r8, lr}
  400778:	e1a04000 	mov	r4, r0
  40077c:	e1a05001 	mov	r5, r1
  400780:	e59f30d0 	ldr	r3, [pc, #208]	@ 400858 <prvAddCurrentTaskToDelayedList+0xe4>
  400784:	e59360ec 	ldr	r6, [r3, #236]	@ 0xec
  400788:	e5937028 	ldr	r7, [r3, #40]	@ 0x28
  40078c:	e59380d0 	ldr	r8, [r3, #208]	@ 0xd0
  400790:	e59300d8 	ldr	r0, [r3, #216]	@ 0xd8
  400794:	e2800004 	add	r0, r0, #4
  400798:	eb000a7b 	bl	40318c <uxListRemove>
  40079c:	e2555000 	subs	r5, r5, #0
  4007a0:	13a05001 	movne	r5, #1
  4007a4:	e3740001 	cmn	r4, #1
  4007a8:	13a05000 	movne	r5, #0
  4007ac:	e3550000 	cmp	r5, #0
  4007b0:	0a000013 	beq	400804 <prvAddCurrentTaskToDelayedList+0x90>
  4007b4:	e59f309c 	ldr	r3, [pc, #156]	@ 400858 <prvAddCurrentTaskToDelayedList+0xe4>
  4007b8:	e5932004 	ldr	r2, [r3, #4]
  4007bc:	e59310d8 	ldr	r1, [r3, #216]	@ 0xd8
  4007c0:	e5812008 	str	r2, [r1, #8]
  4007c4:	e59310d8 	ldr	r1, [r3, #216]	@ 0xd8
  4007c8:	e5920008 	ldr	r0, [r2, #8]
  4007cc:	e581000c 	str	r0, [r1, #12]
  4007d0:	e59310d8 	ldr	r1, [r3, #216]	@ 0xd8
  4007d4:	e2811004 	add	r1, r1, #4
  4007d8:	e5801004 	str	r1, [r0, #4]
  4007dc:	e59310d8 	ldr	r1, [r3, #216]	@ 0xd8
  4007e0:	e2811004 	add	r1, r1, #4
  4007e4:	e5821008 	str	r1, [r2, #8]
  4007e8:	e59320d8 	ldr	r2, [r3, #216]	@ 0xd8
  4007ec:	e5823014 	str	r3, [r2, #20]
  4007f0:	e5932000 	ldr	r2, [r3]
  4007f4:	e2822001 	add	r2, r2, #1
  4007f8:	e5832000 	str	r2, [r3]
  4007fc:	e8bd41f0 	pop	{r4, r5, r6, r7, r8, lr}
  400800:	e12fff1e 	bx	lr
  400804:	e0864004 	add	r4, r6, r4
  400808:	e59f3048 	ldr	r3, [pc, #72]	@ 400858 <prvAddCurrentTaskToDelayedList+0xe4>
  40080c:	e59330d8 	ldr	r3, [r3, #216]	@ 0xd8
  400810:	e5834004 	str	r4, [r3, #4]
  400814:	e1560004 	cmp	r6, r4
  400818:	9a000005 	bls	400834 <prvAddCurrentTaskToDelayedList+0xc0>
  40081c:	e59f3034 	ldr	r3, [pc, #52]	@ 400858 <prvAddCurrentTaskToDelayedList+0xe4>
  400820:	e59310d8 	ldr	r1, [r3, #216]	@ 0xd8
  400824:	e2811004 	add	r1, r1, #4
  400828:	e1a00008 	mov	r0, r8
  40082c:	eb000a3f 	bl	403130 <vListInsert>
  400830:	eafffff1 	b	4007fc <prvAddCurrentTaskToDelayedList+0x88>
  400834:	e59f501c 	ldr	r5, [pc, #28]	@ 400858 <prvAddCurrentTaskToDelayedList+0xe4>
  400838:	e59510d8 	ldr	r1, [r5, #216]	@ 0xd8
  40083c:	e2811004 	add	r1, r1, #4
  400840:	e1a00007 	mov	r0, r7
  400844:	eb000a39 	bl	403130 <vListInsert>
  400848:	e595302c 	ldr	r3, [r5, #44]	@ 0x2c
  40084c:	e1530004 	cmp	r3, r4
  400850:	8585402c 	strhi	r4, [r5, #44]	@ 0x2c
  400854:	eaffffe8 	b	4007fc <prvAddCurrentTaskToDelayedList+0x88>
  400858:	00407980 	subeq	r7, r0, r0, lsl #19

0040085c <xTaskCreate>:
  40085c:	e52de004 	push	{lr}		@ (str lr, [sp, #-4]!)
  400860:	e24dd00c 	sub	sp, sp, #12
  400864:	e59dc014 	ldr	ip, [sp, #20]
  400868:	e58dc004 	str	ip, [sp, #4]
  40086c:	e59dc010 	ldr	ip, [sp, #16]
  400870:	e58dc000 	str	ip, [sp]
  400874:	ebffff0d 	bl	4004b0 <prvCreateTask>
  400878:	e3500000 	cmp	r0, #0
  40087c:	0a000004 	beq	400894 <xTaskCreate+0x38>
  400880:	ebffff50 	bl	4005c8 <prvAddNewTaskToReadyList>
  400884:	e3a00001 	mov	r0, #1
  400888:	e28dd00c 	add	sp, sp, #12
  40088c:	e49de004 	pop	{lr}		@ (ldr lr, [sp], #4)
  400890:	e12fff1e 	bx	lr
  400894:	e3e00000 	mvn	r0, #0
  400898:	eafffffa 	b	400888 <xTaskCreate+0x2c>

0040089c <prvCreateIdleTasks>:
  40089c:	e92d4010 	push	{r4, lr}
  4008a0:	e24dd018 	sub	sp, sp, #24
  4008a4:	e3a03000 	mov	r3, #0
  4008a8:	e353000f 	cmp	r3, #15
  4008ac:	ca000007 	bgt	4008d0 <prvCreateIdleTasks+0x34>
  4008b0:	e59f2068 	ldr	r2, [pc, #104]	@ 400920 <prvCreateIdleTasks+0x84>
  4008b4:	e7d22003 	ldrb	r2, [r2, r3]
  4008b8:	e2831018 	add	r1, r3, #24
  4008bc:	e08d1001 	add	r1, sp, r1
  4008c0:	e5412010 	strb	r2, [r1, #-16]
  4008c4:	e3520000 	cmp	r2, #0
  4008c8:	12833001 	addne	r3, r3, #1
  4008cc:	1afffff5 	bne	4008a8 <prvCreateIdleTasks+0xc>
  4008d0:	e3a04000 	mov	r4, #0
  4008d4:	e3a00001 	mov	r0, #1
  4008d8:	e3540000 	cmp	r4, #0
  4008dc:	da000002 	ble	4008ec <prvCreateIdleTasks+0x50>
  4008e0:	e28dd018 	add	sp, sp, #24
  4008e4:	e8bd4010 	pop	{r4, lr}
  4008e8:	e12fff1e 	bx	lr
  4008ec:	e59f3030 	ldr	r3, [pc, #48]	@ 400924 <prvCreateIdleTasks+0x88>
  4008f0:	e0833104 	add	r3, r3, r4, lsl #2
  4008f4:	e58d3004 	str	r3, [sp, #4]
  4008f8:	e3a03000 	mov	r3, #0
  4008fc:	e58d3000 	str	r3, [sp]
  400900:	e3a02080 	mov	r2, #128	@ 0x80
  400904:	e28d1008 	add	r1, sp, #8
  400908:	e59f0018 	ldr	r0, [pc, #24]	@ 400928 <prvCreateIdleTasks+0x8c>
  40090c:	ebffffd2 	bl	40085c <xTaskCreate>
  400910:	e3500000 	cmp	r0, #0
  400914:	0afffff1 	beq	4008e0 <prvCreateIdleTasks+0x44>
  400918:	e2844001 	add	r4, r4, #1
  40091c:	eaffffed 	b	4008d8 <prvCreateIdleTasks+0x3c>
  400920:	00404538 	subeq	r4, r0, r8, lsr r5
  400924:	00407a70 	subeq	r7, r0, r0, ror sl
  400928:	00400750 	subeq	r0, r0, r0, asr r7

0040092c <vTaskDelete>:
  40092c:	e92d4070 	push	{r4, r5, r6, lr}
  400930:	e1a04000 	mov	r4, r0
  400934:	eb000ae2 	bl	4034c4 <itc_disable_ints>
  400938:	e3540000 	cmp	r4, #0
  40093c:	0a000026 	beq	4009dc <vTaskDelete+0xb0>
  400940:	e2845004 	add	r5, r4, #4
  400944:	e1a00005 	mov	r0, r5
  400948:	eb000a0f 	bl	40318c <uxListRemove>
  40094c:	e5943028 	ldr	r3, [r4, #40]	@ 0x28
  400950:	e3530000 	cmp	r3, #0
  400954:	12840018 	addne	r0, r4, #24
  400958:	1b000a0b 	blne	40318c <uxListRemove>
  40095c:	e59f30e0 	ldr	r3, [pc, #224]	@ 400a44 <vTaskDelete+0x118>
  400960:	e59320e0 	ldr	r2, [r3, #224]	@ 0xe0
  400964:	e2822001 	add	r2, r2, #1
  400968:	e58320e0 	str	r2, [r3, #224]	@ 0xe0
  40096c:	e59330d8 	ldr	r3, [r3, #216]	@ 0xd8
  400970:	e1530004 	cmp	r3, r4
  400974:	0a00001b 	beq	4009e8 <vTaskDelete+0xbc>
  400978:	e3a02000 	mov	r2, #0
  40097c:	e59f30c0 	ldr	r3, [pc, #192]	@ 400a44 <vTaskDelete+0x118>
  400980:	e59330dc 	ldr	r3, [r3, #220]	@ 0xdc
  400984:	e3530000 	cmp	r3, #0
  400988:	0a000001 	beq	400994 <vTaskDelete+0x68>
  40098c:	e3520000 	cmp	r2, #0
  400990:	1a000016 	bne	4009f0 <vTaskDelete+0xc4>
  400994:	e59f20a8 	ldr	r2, [pc, #168]	@ 400a44 <vTaskDelete+0x118>
  400998:	e59230d4 	ldr	r3, [r2, #212]	@ 0xd4
  40099c:	e2433001 	sub	r3, r3, #1
  4009a0:	e58230d4 	str	r3, [r2, #212]	@ 0xd4
  4009a4:	ebfffe71 	bl	400370 <prvResetNextTaskUnblockTime>
  4009a8:	eb000ace 	bl	4034e8 <itc_restore_ints>
  4009ac:	e1a00004 	mov	r0, r4
  4009b0:	ebfffe7e 	bl	4003b0 <prvDeleteTCB>
  4009b4:	e59f3088 	ldr	r3, [pc, #136]	@ 400a44 <vTaskDelete+0x118>
  4009b8:	e59330dc 	ldr	r3, [r3, #220]	@ 0xdc
  4009bc:	e3530000 	cmp	r3, #0
  4009c0:	0a000003 	beq	4009d4 <vTaskDelete+0xa8>
  4009c4:	e59f3078 	ldr	r3, [pc, #120]	@ 400a44 <vTaskDelete+0x118>
  4009c8:	e59330d8 	ldr	r3, [r3, #216]	@ 0xd8
  4009cc:	e1530004 	cmp	r3, r4
  4009d0:	0a00000f 	beq	400a14 <vTaskDelete+0xe8>
  4009d4:	e8bd4070 	pop	{r4, r5, r6, lr}
  4009d8:	e12fff1e 	bx	lr
  4009dc:	e59f3060 	ldr	r3, [pc, #96]	@ 400a44 <vTaskDelete+0x118>
  4009e0:	e59340d8 	ldr	r4, [r3, #216]	@ 0xd8
  4009e4:	eaffffd5 	b	400940 <vTaskDelete+0x14>
  4009e8:	e3a02001 	mov	r2, #1
  4009ec:	eaffffe2 	b	40097c <vTaskDelete+0x50>
  4009f0:	e59f604c 	ldr	r6, [pc, #76]	@ 400a44 <vTaskDelete+0x118>
  4009f4:	e1a01005 	mov	r1, r5
  4009f8:	e28600bc 	add	r0, r6, #188	@ 0xbc
  4009fc:	eb0009c0 	bl	403104 <vListInsertEnd>
  400a00:	e59630e8 	ldr	r3, [r6, #232]	@ 0xe8
  400a04:	e2833001 	add	r3, r3, #1
  400a08:	e58630e8 	str	r3, [r6, #232]	@ 0xe8
  400a0c:	eb000ab5 	bl	4034e8 <itc_restore_ints>
  400a10:	eaffffe7 	b	4009b4 <vTaskDelete+0x88>
  400a14:	e59f3028 	ldr	r3, [pc, #40]	@ 400a44 <vTaskDelete+0x118>
  400a18:	e59330f4 	ldr	r3, [r3, #244]	@ 0xf4
  400a1c:	e3530000 	cmp	r3, #0
  400a20:	0a000005 	beq	400a3c <vTaskDelete+0x110>
  400a24:	e92d0001 	stmfd	sp!, {r0}
  400a28:	e10f0000 	mrs	r0, CPSR
  400a2c:	e38000c0 	orr	r0, r0, #192	@ 0xc0
  400a30:	e129f000 	msr	CPSR_fc, r0
  400a34:	e8bd0001 	ldmfd	sp!, {r0}
  400a38:	eafffffe 	b	400a38 <vTaskDelete+0x10c>
  400a3c:	ef000000 	svc	0x00000000
  400a40:	eaffffe3 	b	4009d4 <vTaskDelete+0xa8>
  400a44:	00407980 	subeq	r7, r0, r0, lsl #19

00400a48 <uxTaskPriorityGet>:
  400a48:	e92d4010 	push	{r4, lr}
  400a4c:	e1a04000 	mov	r4, r0
  400a50:	eb000a9b 	bl	4034c4 <itc_disable_ints>
  400a54:	e3540000 	cmp	r4, #0
  400a58:	0a000004 	beq	400a70 <uxTaskPriorityGet+0x28>
  400a5c:	e594402c 	ldr	r4, [r4, #44]	@ 0x2c
  400a60:	eb000aa0 	bl	4034e8 <itc_restore_ints>
  400a64:	e1a00004 	mov	r0, r4
  400a68:	e8bd4010 	pop	{r4, lr}
  400a6c:	e12fff1e 	bx	lr
  400a70:	e59f3004 	ldr	r3, [pc, #4]	@ 400a7c <uxTaskPriorityGet+0x34>
  400a74:	e59340d8 	ldr	r4, [r3, #216]	@ 0xd8
  400a78:	eafffff7 	b	400a5c <uxTaskPriorityGet+0x14>
  400a7c:	00407980 	subeq	r7, r0, r0, lsl #19

00400a80 <uxTaskPriorityGetFromISR>:
  400a80:	e3500000 	cmp	r0, #0
  400a84:	0a000001 	beq	400a90 <uxTaskPriorityGetFromISR+0x10>
  400a88:	e590002c 	ldr	r0, [r0, #44]	@ 0x2c
  400a8c:	e12fff1e 	bx	lr
  400a90:	e59f3004 	ldr	r3, [pc, #4]	@ 400a9c <uxTaskPriorityGetFromISR+0x1c>
  400a94:	e59300d8 	ldr	r0, [r3, #216]	@ 0xd8
  400a98:	eafffffa 	b	400a88 <uxTaskPriorityGetFromISR+0x8>
  400a9c:	00407980 	subeq	r7, r0, r0, lsl #19

00400aa0 <uxTaskBasePriorityGet>:
  400aa0:	e92d4010 	push	{r4, lr}
  400aa4:	e1a04000 	mov	r4, r0
  400aa8:	eb000a85 	bl	4034c4 <itc_disable_ints>
  400aac:	e3540000 	cmp	r4, #0
  400ab0:	0a000004 	beq	400ac8 <uxTaskBasePriorityGet+0x28>
  400ab4:	e5944044 	ldr	r4, [r4, #68]	@ 0x44
  400ab8:	eb000a8a 	bl	4034e8 <itc_restore_ints>
  400abc:	e1a00004 	mov	r0, r4
  400ac0:	e8bd4010 	pop	{r4, lr}
  400ac4:	e12fff1e 	bx	lr
  400ac8:	e59f3004 	ldr	r3, [pc, #4]	@ 400ad4 <uxTaskBasePriorityGet+0x34>
  400acc:	e59340d8 	ldr	r4, [r3, #216]	@ 0xd8
  400ad0:	eafffff7 	b	400ab4 <uxTaskBasePriorityGet+0x14>
  400ad4:	00407980 	subeq	r7, r0, r0, lsl #19

00400ad8 <uxTaskBasePriorityGetFromISR>:
  400ad8:	e3500000 	cmp	r0, #0
  400adc:	0a000001 	beq	400ae8 <uxTaskBasePriorityGetFromISR+0x10>
  400ae0:	e5900044 	ldr	r0, [r0, #68]	@ 0x44
  400ae4:	e12fff1e 	bx	lr
  400ae8:	e59f3004 	ldr	r3, [pc, #4]	@ 400af4 <uxTaskBasePriorityGetFromISR+0x1c>
  400aec:	e59300d8 	ldr	r0, [r3, #216]	@ 0xd8
  400af0:	eafffffa 	b	400ae0 <uxTaskBasePriorityGetFromISR+0x8>
  400af4:	00407980 	subeq	r7, r0, r0, lsl #19

00400af8 <vTaskPrioritySet>:
  400af8:	e3510004 	cmp	r1, #4
  400afc:	9a000005 	bls	400b18 <vTaskPrioritySet+0x20>
  400b00:	e92d0001 	stmfd	sp!, {r0}
  400b04:	e10f0000 	mrs	r0, CPSR
  400b08:	e38000c0 	orr	r0, r0, #192	@ 0xc0
  400b0c:	e129f000 	msr	CPSR_fc, r0
  400b10:	e8bd0001 	ldmfd	sp!, {r0}
  400b14:	eafffffe 	b	400b14 <vTaskPrioritySet+0x1c>
  400b18:	e92d4070 	push	{r4, r5, r6, lr}
  400b1c:	e1a04000 	mov	r4, r0
  400b20:	e1a05001 	mov	r5, r1
  400b24:	eb000a66 	bl	4034c4 <itc_disable_ints>
  400b28:	e3540000 	cmp	r4, #0
  400b2c:	0a00000e 	beq	400b6c <vTaskPrioritySet+0x74>
  400b30:	e5942044 	ldr	r2, [r4, #68]	@ 0x44
  400b34:	e1550002 	cmp	r5, r2
  400b38:	0a000027 	beq	400bdc <vTaskPrioritySet+0xe4>
  400b3c:	9a00000d 	bls	400b78 <vTaskPrioritySet+0x80>
  400b40:	e59f312c 	ldr	r3, [pc, #300]	@ 400c74 <vTaskPrioritySet+0x17c>
  400b44:	e59330d8 	ldr	r3, [r3, #216]	@ 0xd8
  400b48:	e1530004 	cmp	r3, r4
  400b4c:	0a000025 	beq	400be8 <vTaskPrioritySet+0xf0>
  400b50:	e59f311c 	ldr	r3, [pc, #284]	@ 400c74 <vTaskPrioritySet+0x17c>
  400b54:	e59330d8 	ldr	r3, [r3, #216]	@ 0xd8
  400b58:	e593302c 	ldr	r3, [r3, #44]	@ 0x2c
  400b5c:	e1530005 	cmp	r3, r5
  400b60:	3a000022 	bcc	400bf0 <vTaskPrioritySet+0xf8>
  400b64:	e3a06000 	mov	r6, #0
  400b68:	ea000007 	b	400b8c <vTaskPrioritySet+0x94>
  400b6c:	e59f3100 	ldr	r3, [pc, #256]	@ 400c74 <vTaskPrioritySet+0x17c>
  400b70:	e59340d8 	ldr	r4, [r3, #216]	@ 0xd8
  400b74:	eaffffed 	b	400b30 <vTaskPrioritySet+0x38>
  400b78:	e59f30f4 	ldr	r3, [pc, #244]	@ 400c74 <vTaskPrioritySet+0x17c>
  400b7c:	e59330d8 	ldr	r3, [r3, #216]	@ 0xd8
  400b80:	e1530004 	cmp	r3, r4
  400b84:	0a00001b 	beq	400bf8 <vTaskPrioritySet+0x100>
  400b88:	e3a06000 	mov	r6, #0
  400b8c:	e594302c 	ldr	r3, [r4, #44]	@ 0x2c
  400b90:	e1520003 	cmp	r2, r3
  400b94:	0a000001 	beq	400ba0 <vTaskPrioritySet+0xa8>
  400b98:	e1550003 	cmp	r5, r3
  400b9c:	9a000000 	bls	400ba4 <vTaskPrioritySet+0xac>
  400ba0:	e584502c 	str	r5, [r4, #44]	@ 0x2c
  400ba4:	e5845044 	str	r5, [r4, #68]	@ 0x44
  400ba8:	e5942018 	ldr	r2, [r4, #24]
  400bac:	e3520000 	cmp	r2, #0
  400bb0:	a2655005 	rsbge	r5, r5, #5
  400bb4:	a5845018 	strge	r5, [r4, #24]
  400bb8:	e5941014 	ldr	r1, [r4, #20]
  400bbc:	e0833103 	add	r3, r3, r3, lsl #2
  400bc0:	e59f20b0 	ldr	r2, [pc, #176]	@ 400c78 <vTaskPrioritySet+0x180>
  400bc4:	e0823103 	add	r3, r2, r3, lsl #2
  400bc8:	e1510003 	cmp	r1, r3
  400bcc:	0a00000b 	beq	400c00 <vTaskPrioritySet+0x108>
  400bd0:	e3560000 	cmp	r6, #0
  400bd4:	0a000000 	beq	400bdc <vTaskPrioritySet+0xe4>
  400bd8:	ef000000 	svc	0x00000000
  400bdc:	eb000a41 	bl	4034e8 <itc_restore_ints>
  400be0:	e8bd4070 	pop	{r4, r5, r6, lr}
  400be4:	e12fff1e 	bx	lr
  400be8:	e3a06000 	mov	r6, #0
  400bec:	eaffffe6 	b	400b8c <vTaskPrioritySet+0x94>
  400bf0:	e3a06001 	mov	r6, #1
  400bf4:	eaffffe4 	b	400b8c <vTaskPrioritySet+0x94>
  400bf8:	e3a06001 	mov	r6, #1
  400bfc:	eaffffe2 	b	400b8c <vTaskPrioritySet+0x94>
  400c00:	e2845004 	add	r5, r4, #4
  400c04:	e1a00005 	mov	r0, r5
  400c08:	eb00095f 	bl	40318c <uxListRemove>
  400c0c:	e594302c 	ldr	r3, [r4, #44]	@ 0x2c
  400c10:	e59f205c 	ldr	r2, [pc, #92]	@ 400c74 <vTaskPrioritySet+0x17c>
  400c14:	e59220e4 	ldr	r2, [r2, #228]	@ 0xe4
  400c18:	e1530002 	cmp	r3, r2
  400c1c:	859f2050 	ldrhi	r2, [pc, #80]	@ 400c74 <vTaskPrioritySet+0x17c>
  400c20:	858230e4 	strhi	r3, [r2, #228]	@ 0xe4
  400c24:	e59f2048 	ldr	r2, [pc, #72]	@ 400c74 <vTaskPrioritySet+0x17c>
  400c28:	e0833103 	add	r3, r3, r3, lsl #2
  400c2c:	e0823103 	add	r3, r2, r3, lsl #2
  400c30:	e5933034 	ldr	r3, [r3, #52]	@ 0x34
  400c34:	e5843008 	str	r3, [r4, #8]
  400c38:	e5931008 	ldr	r1, [r3, #8]
  400c3c:	e584100c 	str	r1, [r4, #12]
  400c40:	e5815004 	str	r5, [r1, #4]
  400c44:	e5835008 	str	r5, [r3, #8]
  400c48:	e594302c 	ldr	r3, [r4, #44]	@ 0x2c
  400c4c:	e2821030 	add	r1, r2, #48	@ 0x30
  400c50:	e0830103 	add	r0, r3, r3, lsl #2
  400c54:	e0811100 	add	r1, r1, r0, lsl #2
  400c58:	e5841014 	str	r1, [r4, #20]
  400c5c:	e0821100 	add	r1, r2, r0, lsl #2
  400c60:	e5911030 	ldr	r1, [r1, #48]	@ 0x30
  400c64:	e2811001 	add	r1, r1, #1
  400c68:	e0822100 	add	r2, r2, r0, lsl #2
  400c6c:	e5821030 	str	r1, [r2, #48]	@ 0x30
  400c70:	eaffffd6 	b	400bd0 <vTaskPrioritySet+0xd8>
  400c74:	00407980 	subeq	r7, r0, r0, lsl #19
  400c78:	004079b0 	strheq	r7, [r0], #-144	@ 0xffffff70

00400c7c <vTaskResume>:
  400c7c:	e92d4070 	push	{r4, r5, r6, lr}
  400c80:	e2504000 	subs	r4, r0, #0
  400c84:	0a00000b 	beq	400cb8 <vTaskResume+0x3c>
  400c88:	e59f30cc 	ldr	r3, [pc, #204]	@ 400d5c <vTaskResume+0xe0>
  400c8c:	e59330d8 	ldr	r3, [r3, #216]	@ 0xd8
  400c90:	e1530004 	cmp	r3, r4
  400c94:	0a000005 	beq	400cb0 <vTaskResume+0x34>
  400c98:	eb000a09 	bl	4034c4 <itc_disable_ints>
  400c9c:	e1a00004 	mov	r0, r4
  400ca0:	ebfffd8b 	bl	4002d4 <prvTaskIsTaskSuspended>
  400ca4:	e3500000 	cmp	r0, #0
  400ca8:	1a000008 	bne	400cd0 <vTaskResume+0x54>
  400cac:	eb000a0d 	bl	4034e8 <itc_restore_ints>
  400cb0:	e8bd4070 	pop	{r4, r5, r6, lr}
  400cb4:	e12fff1e 	bx	lr
  400cb8:	e92d0001 	stmfd	sp!, {r0}
  400cbc:	e10f0000 	mrs	r0, CPSR
  400cc0:	e38000c0 	orr	r0, r0, #192	@ 0xc0
  400cc4:	e129f000 	msr	CPSR_fc, r0
  400cc8:	e8bd0001 	ldmfd	sp!, {r0}
  400ccc:	eafffffe 	b	400ccc <vTaskResume+0x50>
  400cd0:	e2845004 	add	r5, r4, #4
  400cd4:	e1a00005 	mov	r0, r5
  400cd8:	eb00092b 	bl	40318c <uxListRemove>
  400cdc:	e594302c 	ldr	r3, [r4, #44]	@ 0x2c
  400ce0:	e59f2074 	ldr	r2, [pc, #116]	@ 400d5c <vTaskResume+0xe0>
  400ce4:	e59220e4 	ldr	r2, [r2, #228]	@ 0xe4
  400ce8:	e1530002 	cmp	r3, r2
  400cec:	859f2068 	ldrhi	r2, [pc, #104]	@ 400d5c <vTaskResume+0xe0>
  400cf0:	858230e4 	strhi	r3, [r2, #228]	@ 0xe4
  400cf4:	e59f2060 	ldr	r2, [pc, #96]	@ 400d5c <vTaskResume+0xe0>
  400cf8:	e0833103 	add	r3, r3, r3, lsl #2
  400cfc:	e0823103 	add	r3, r2, r3, lsl #2
  400d00:	e5933034 	ldr	r3, [r3, #52]	@ 0x34
  400d04:	e5843008 	str	r3, [r4, #8]
  400d08:	e5931008 	ldr	r1, [r3, #8]
  400d0c:	e584100c 	str	r1, [r4, #12]
  400d10:	e5815004 	str	r5, [r1, #4]
  400d14:	e5835008 	str	r5, [r3, #8]
  400d18:	e594302c 	ldr	r3, [r4, #44]	@ 0x2c
  400d1c:	e2821030 	add	r1, r2, #48	@ 0x30
  400d20:	e0830103 	add	r0, r3, r3, lsl #2
  400d24:	e0811100 	add	r1, r1, r0, lsl #2
  400d28:	e5841014 	str	r1, [r4, #20]
  400d2c:	e0821100 	add	r1, r2, r0, lsl #2
  400d30:	e5911030 	ldr	r1, [r1, #48]	@ 0x30
  400d34:	e2811001 	add	r1, r1, #1
  400d38:	e0823100 	add	r3, r2, r0, lsl #2
  400d3c:	e5831030 	str	r1, [r3, #48]	@ 0x30
  400d40:	e59230d8 	ldr	r3, [r2, #216]	@ 0xd8
  400d44:	e593202c 	ldr	r2, [r3, #44]	@ 0x2c
  400d48:	e594302c 	ldr	r3, [r4, #44]	@ 0x2c
  400d4c:	e1520003 	cmp	r2, r3
  400d50:	2affffd5 	bcs	400cac <vTaskResume+0x30>
  400d54:	ef000000 	svc	0x00000000
  400d58:	eaffffd3 	b	400cac <vTaskResume+0x30>
  400d5c:	00407980 	subeq	r7, r0, r0, lsl #19

00400d60 <xTaskResumeFromISR>:
  400d60:	e92d4070 	push	{r4, r5, r6, lr}
  400d64:	e2504000 	subs	r4, r0, #0
  400d68:	0a000030 	beq	400e30 <xTaskResumeFromISR+0xd0>
  400d6c:	e1a00004 	mov	r0, r4
  400d70:	ebfffd57 	bl	4002d4 <prvTaskIsTaskSuspended>
  400d74:	e2505000 	subs	r5, r0, #0
  400d78:	0a000029 	beq	400e24 <xTaskResumeFromISR+0xc4>
  400d7c:	e59f30e0 	ldr	r3, [pc, #224]	@ 400e64 <xTaskResumeFromISR+0x104>
  400d80:	e59330f4 	ldr	r3, [r3, #244]	@ 0xf4
  400d84:	e3530000 	cmp	r3, #0
  400d88:	1a000030 	bne	400e50 <xTaskResumeFromISR+0xf0>
  400d8c:	e594202c 	ldr	r2, [r4, #44]	@ 0x2c
  400d90:	e59f30cc 	ldr	r3, [pc, #204]	@ 400e64 <xTaskResumeFromISR+0x104>
  400d94:	e59330d8 	ldr	r3, [r3, #216]	@ 0xd8
  400d98:	e593302c 	ldr	r3, [r3, #44]	@ 0x2c
  400d9c:	e1520003 	cmp	r2, r3
  400da0:	9a000028 	bls	400e48 <xTaskResumeFromISR+0xe8>
  400da4:	e3a00001 	mov	r0, #1
  400da8:	e59f30b4 	ldr	r3, [pc, #180]	@ 400e64 <xTaskResumeFromISR+0x104>
  400dac:	e58300f8 	str	r0, [r3, #248]	@ 0xf8
  400db0:	e1a05000 	mov	r5, r0
  400db4:	e2846004 	add	r6, r4, #4
  400db8:	e1a00006 	mov	r0, r6
  400dbc:	eb0008f2 	bl	40318c <uxListRemove>
  400dc0:	e594302c 	ldr	r3, [r4, #44]	@ 0x2c
  400dc4:	e59f2098 	ldr	r2, [pc, #152]	@ 400e64 <xTaskResumeFromISR+0x104>
  400dc8:	e59220e4 	ldr	r2, [r2, #228]	@ 0xe4
  400dcc:	e1530002 	cmp	r3, r2
  400dd0:	859f208c 	ldrhi	r2, [pc, #140]	@ 400e64 <xTaskResumeFromISR+0x104>
  400dd4:	858230e4 	strhi	r3, [r2, #228]	@ 0xe4
  400dd8:	e59f2084 	ldr	r2, [pc, #132]	@ 400e64 <xTaskResumeFromISR+0x104>
  400ddc:	e0833103 	add	r3, r3, r3, lsl #2
  400de0:	e0823103 	add	r3, r2, r3, lsl #2
  400de4:	e5933034 	ldr	r3, [r3, #52]	@ 0x34
  400de8:	e5843008 	str	r3, [r4, #8]
  400dec:	e5931008 	ldr	r1, [r3, #8]
  400df0:	e584100c 	str	r1, [r4, #12]
  400df4:	e5816004 	str	r6, [r1, #4]
  400df8:	e5836008 	str	r6, [r3, #8]
  400dfc:	e594302c 	ldr	r3, [r4, #44]	@ 0x2c
  400e00:	e2821030 	add	r1, r2, #48	@ 0x30
  400e04:	e0830103 	add	r0, r3, r3, lsl #2
  400e08:	e0811100 	add	r1, r1, r0, lsl #2
  400e0c:	e5841014 	str	r1, [r4, #20]
  400e10:	e0821100 	add	r1, r2, r0, lsl #2
  400e14:	e5911030 	ldr	r1, [r1, #48]	@ 0x30
  400e18:	e2811001 	add	r1, r1, #1
  400e1c:	e0822100 	add	r2, r2, r0, lsl #2
  400e20:	e5821030 	str	r1, [r2, #48]	@ 0x30
  400e24:	e1a00005 	mov	r0, r5
  400e28:	e8bd4070 	pop	{r4, r5, r6, lr}
  400e2c:	e12fff1e 	bx	lr
  400e30:	e92d0001 	stmfd	sp!, {r0}
  400e34:	e10f0000 	mrs	r0, CPSR
  400e38:	e38000c0 	orr	r0, r0, #192	@ 0xc0
  400e3c:	e129f000 	msr	CPSR_fc, r0
  400e40:	e8bd0001 	ldmfd	sp!, {r0}
  400e44:	eafffffe 	b	400e44 <xTaskResumeFromISR+0xe4>
  400e48:	e3a05000 	mov	r5, #0
  400e4c:	eaffffd8 	b	400db4 <xTaskResumeFromISR+0x54>
  400e50:	e2841018 	add	r1, r4, #24
  400e54:	e59f000c 	ldr	r0, [pc, #12]	@ 400e68 <xTaskResumeFromISR+0x108>
  400e58:	eb0008a9 	bl	403104 <vListInsertEnd>
  400e5c:	e3a05000 	mov	r5, #0
  400e60:	eaffffef 	b	400e24 <xTaskResumeFromISR+0xc4>
  400e64:	00407980 	subeq	r7, r0, r0, lsl #19
  400e68:	00407994 	umaaleq	r7, r0, r4, r9

00400e6c <vTaskStartScheduler>:
  400e6c:	e92d4010 	push	{r4, lr}
  400e70:	ebfffe89 	bl	40089c <prvCreateIdleTasks>
  400e74:	e3500001 	cmp	r0, #1
  400e78:	0a000005 	beq	400e94 <vTaskStartScheduler+0x28>
  400e7c:	e3700001 	cmn	r0, #1
  400e80:	0a000011 	beq	400ecc <vTaskStartScheduler+0x60>
  400e84:	e59f3058 	ldr	r3, [pc, #88]	@ 400ee4 <vTaskStartScheduler+0x78>
  400e88:	e5933000 	ldr	r3, [r3]
  400e8c:	e8bd4010 	pop	{r4, lr}
  400e90:	e12fff1e 	bx	lr
  400e94:	e92d0001 	stmfd	sp!, {r0}
  400e98:	e10f0000 	mrs	r0, CPSR
  400e9c:	e38000c0 	orr	r0, r0, #192	@ 0xc0
  400ea0:	e129f000 	msr	CPSR_fc, r0
  400ea4:	e8bd0001 	ldmfd	sp!, {r0}
  400ea8:	e59f3038 	ldr	r3, [pc, #56]	@ 400ee8 <vTaskStartScheduler+0x7c>
  400eac:	e3e02000 	mvn	r2, #0
  400eb0:	e583202c 	str	r2, [r3, #44]	@ 0x2c
  400eb4:	e3a02001 	mov	r2, #1
  400eb8:	e58320dc 	str	r2, [r3, #220]	@ 0xdc
  400ebc:	e3a02000 	mov	r2, #0
  400ec0:	e58320ec 	str	r2, [r3, #236]	@ 0xec
  400ec4:	eb0007b9 	bl	402db0 <xPortStartScheduler>
  400ec8:	eaffffed 	b	400e84 <vTaskStartScheduler+0x18>
  400ecc:	e92d0001 	stmfd	sp!, {r0}
  400ed0:	e10f0000 	mrs	r0, CPSR
  400ed4:	e38000c0 	orr	r0, r0, #192	@ 0xc0
  400ed8:	e129f000 	msr	CPSR_fc, r0
  400edc:	e8bd0001 	ldmfd	sp!, {r0}
  400ee0:	eafffffe 	b	400ee0 <vTaskStartScheduler+0x74>
  400ee4:	00404580 	subeq	r4, r0, r0, lsl #11
  400ee8:	00407980 	subeq	r7, r0, r0, lsl #19

00400eec <vTaskEndScheduler>:
  400eec:	e92d4010 	push	{r4, lr}
  400ef0:	e3a04000 	mov	r4, #0
  400ef4:	e3540000 	cmp	r4, #0
  400ef8:	da00000b 	ble	400f2c <vTaskEndScheduler+0x40>
  400efc:	ebfffdf8 	bl	4006e4 <prvCheckTasksWaitingTermination>
  400f00:	e92d0001 	stmfd	sp!, {r0}
  400f04:	e10f0000 	mrs	r0, CPSR
  400f08:	e38000c0 	orr	r0, r0, #192	@ 0xc0
  400f0c:	e129f000 	msr	CPSR_fc, r0
  400f10:	e8bd0001 	ldmfd	sp!, {r0}
  400f14:	e59f3028 	ldr	r3, [pc, #40]	@ 400f44 <vTaskEndScheduler+0x58>
  400f18:	e3a02000 	mov	r2, #0
  400f1c:	e58320dc 	str	r2, [r3, #220]	@ 0xdc
  400f20:	eb0007a8 	bl	402dc8 <vPortEndScheduler>
  400f24:	e8bd4010 	pop	{r4, lr}
  400f28:	e12fff1e 	bx	lr
  400f2c:	e59f3010 	ldr	r3, [pc, #16]	@ 400f44 <vTaskEndScheduler+0x58>
  400f30:	e0833104 	add	r3, r3, r4, lsl #2
  400f34:	e59300f0 	ldr	r0, [r3, #240]	@ 0xf0
  400f38:	ebfffe7b 	bl	40092c <vTaskDelete>
  400f3c:	e2844001 	add	r4, r4, #1
  400f40:	eaffffeb 	b	400ef4 <vTaskEndScheduler+0x8>
  400f44:	00407980 	subeq	r7, r0, r0, lsl #19

00400f48 <vTaskSuspendAll>:
  400f48:	e59f200c 	ldr	r2, [pc, #12]	@ 400f5c <vTaskSuspendAll+0x14>
  400f4c:	e59230f4 	ldr	r3, [r2, #244]	@ 0xf4
  400f50:	e2833001 	add	r3, r3, #1
  400f54:	e58230f4 	str	r3, [r2, #244]	@ 0xf4
  400f58:	e12fff1e 	bx	lr
  400f5c:	00407980 	subeq	r7, r0, r0, lsl #19

00400f60 <xTaskGetTickCount>:
  400f60:	e92d4010 	push	{r4, lr}
  400f64:	eb000956 	bl	4034c4 <itc_disable_ints>
  400f68:	e59f3010 	ldr	r3, [pc, #16]	@ 400f80 <xTaskGetTickCount+0x20>
  400f6c:	e59340ec 	ldr	r4, [r3, #236]	@ 0xec
  400f70:	eb00095c 	bl	4034e8 <itc_restore_ints>
  400f74:	e1a00004 	mov	r0, r4
  400f78:	e8bd4010 	pop	{r4, lr}
  400f7c:	e12fff1e 	bx	lr
  400f80:	00407980 	subeq	r7, r0, r0, lsl #19

00400f84 <xTaskGetTickCountFromISR>:
  400f84:	e59f3004 	ldr	r3, [pc, #4]	@ 400f90 <xTaskGetTickCountFromISR+0xc>
  400f88:	e59300ec 	ldr	r0, [r3, #236]	@ 0xec
  400f8c:	e12fff1e 	bx	lr
  400f90:	00407980 	subeq	r7, r0, r0, lsl #19

00400f94 <uxTaskGetNumberOfTasks>:
  400f94:	e59f3004 	ldr	r3, [pc, #4]	@ 400fa0 <uxTaskGetNumberOfTasks+0xc>
  400f98:	e59300d4 	ldr	r0, [r3, #212]	@ 0xd4
  400f9c:	e12fff1e 	bx	lr
  400fa0:	00407980 	subeq	r7, r0, r0, lsl #19

00400fa4 <pcTaskGetName>:
  400fa4:	e3500000 	cmp	r0, #0
  400fa8:	0a000001 	beq	400fb4 <pcTaskGetName+0x10>
  400fac:	e2800034 	add	r0, r0, #52	@ 0x34
  400fb0:	e12fff1e 	bx	lr
  400fb4:	e59f3020 	ldr	r3, [pc, #32]	@ 400fdc <pcTaskGetName+0x38>
  400fb8:	e59300d8 	ldr	r0, [r3, #216]	@ 0xd8
  400fbc:	e3500000 	cmp	r0, #0
  400fc0:	1afffff9 	bne	400fac <pcTaskGetName+0x8>
  400fc4:	e92d0001 	stmfd	sp!, {r0}
  400fc8:	e10f0000 	mrs	r0, CPSR
  400fcc:	e38000c0 	orr	r0, r0, #192	@ 0xc0
  400fd0:	e129f000 	msr	CPSR_fc, r0
  400fd4:	e8bd0001 	ldmfd	sp!, {r0}
  400fd8:	eafffffe 	b	400fd8 <pcTaskGetName+0x34>
  400fdc:	00407980 	subeq	r7, r0, r0, lsl #19

00400fe0 <xTaskIncrementTick>:
  400fe0:	e59f322c 	ldr	r3, [pc, #556]	@ 401214 <xTaskIncrementTick+0x234>
  400fe4:	e59330f4 	ldr	r3, [r3, #244]	@ 0xf4
  400fe8:	e3530000 	cmp	r3, #0
  400fec:	1a000080 	bne	4011f4 <xTaskIncrementTick+0x214>
  400ff0:	e92d4070 	push	{r4, r5, r6, lr}
  400ff4:	e59f3218 	ldr	r3, [pc, #536]	@ 401214 <xTaskIncrementTick+0x234>
  400ff8:	e59340ec 	ldr	r4, [r3, #236]	@ 0xec
  400ffc:	e2844001 	add	r4, r4, #1
  401000:	e58340ec 	str	r4, [r3, #236]	@ 0xec
  401004:	e3540000 	cmp	r4, #0
  401008:	1a000012 	bne	401058 <xTaskIncrementTick+0x78>
  40100c:	e5933028 	ldr	r3, [r3, #40]	@ 0x28
  401010:	e5933000 	ldr	r3, [r3]
  401014:	e3530000 	cmp	r3, #0
  401018:	0a000005 	beq	401034 <xTaskIncrementTick+0x54>
  40101c:	e92d0001 	stmfd	sp!, {r0}
  401020:	e10f0000 	mrs	r0, CPSR
  401024:	e38000c0 	orr	r0, r0, #192	@ 0xc0
  401028:	e129f000 	msr	CPSR_fc, r0
  40102c:	e8bd0001 	ldmfd	sp!, {r0}
  401030:	eafffffe 	b	401030 <xTaskIncrementTick+0x50>
  401034:	e59f31d8 	ldr	r3, [pc, #472]	@ 401214 <xTaskIncrementTick+0x234>
  401038:	e5932028 	ldr	r2, [r3, #40]	@ 0x28
  40103c:	e59310d0 	ldr	r1, [r3, #208]	@ 0xd0
  401040:	e5831028 	str	r1, [r3, #40]	@ 0x28
  401044:	e58320d0 	str	r2, [r3, #208]	@ 0xd0
  401048:	e59320fc 	ldr	r2, [r3, #252]	@ 0xfc
  40104c:	e2822001 	add	r2, r2, #1
  401050:	e58320fc 	str	r2, [r3, #252]	@ 0xfc
  401054:	ebfffcc5 	bl	400370 <prvResetNextTaskUnblockTime>
  401058:	e59f31b4 	ldr	r3, [pc, #436]	@ 401214 <xTaskIncrementTick+0x234>
  40105c:	e593302c 	ldr	r3, [r3, #44]	@ 0x2c
  401060:	e1530004 	cmp	r3, r4
  401064:	9a000006 	bls	401084 <xTaskIncrementTick+0xa4>
  401068:	e3a00000 	mov	r0, #0
  40106c:	e59f31a0 	ldr	r3, [pc, #416]	@ 401214 <xTaskIncrementTick+0x234>
  401070:	e59330f8 	ldr	r3, [r3, #248]	@ 0xf8
  401074:	e3530000 	cmp	r3, #0
  401078:	1a000063 	bne	40120c <xTaskIncrementTick+0x22c>
  40107c:	e8bd4070 	pop	{r4, r5, r6, lr}
  401080:	e12fff1e 	bx	lr
  401084:	e3a00000 	mov	r0, #0
  401088:	ea000030 	b	401150 <xTaskIncrementTick+0x170>
  40108c:	e59f3180 	ldr	r3, [pc, #384]	@ 401214 <xTaskIncrementTick+0x234>
  401090:	e3e02000 	mvn	r2, #0
  401094:	e583202c 	str	r2, [r3, #44]	@ 0x2c
  401098:	eafffff3 	b	40106c <xTaskIncrementTick+0x8c>
  40109c:	e59f3170 	ldr	r3, [pc, #368]	@ 401214 <xTaskIncrementTick+0x234>
  4010a0:	e583202c 	str	r2, [r3, #44]	@ 0x2c
  4010a4:	eafffff0 	b	40106c <xTaskIncrementTick+0x8c>
  4010a8:	e593100c 	ldr	r1, [r3, #12]
  4010ac:	e5821004 	str	r1, [r2, #4]
  4010b0:	ea00003c 	b	4011a8 <xTaskIncrementTick+0x1c8>
  4010b4:	e3a01000 	mov	r1, #0
  4010b8:	e5831028 	str	r1, [r3, #40]	@ 0x28
  4010bc:	e5921000 	ldr	r1, [r2]
  4010c0:	e2411001 	sub	r1, r1, #1
  4010c4:	e5821000 	str	r1, [r2]
  4010c8:	e593202c 	ldr	r2, [r3, #44]	@ 0x2c
  4010cc:	e59f1140 	ldr	r1, [pc, #320]	@ 401214 <xTaskIncrementTick+0x234>
  4010d0:	e59110e4 	ldr	r1, [r1, #228]	@ 0xe4
  4010d4:	e1520001 	cmp	r2, r1
  4010d8:	859f1134 	ldrhi	r1, [pc, #308]	@ 401214 <xTaskIncrementTick+0x234>
  4010dc:	858120e4 	strhi	r2, [r1, #228]	@ 0xe4
  4010e0:	e59f112c 	ldr	r1, [pc, #300]	@ 401214 <xTaskIncrementTick+0x234>
  4010e4:	e0822102 	add	r2, r2, r2, lsl #2
  4010e8:	e1a0c102 	lsl	ip, r2, #2
  4010ec:	e081c00c 	add	ip, r1, ip
  4010f0:	e59c2034 	ldr	r2, [ip, #52]	@ 0x34
  4010f4:	e5832008 	str	r2, [r3, #8]
  4010f8:	e592c008 	ldr	ip, [r2, #8]
  4010fc:	e583c00c 	str	ip, [r3, #12]
  401100:	e58ce004 	str	lr, [ip, #4]
  401104:	e582e008 	str	lr, [r2, #8]
  401108:	e593202c 	ldr	r2, [r3, #44]	@ 0x2c
  40110c:	e281c030 	add	ip, r1, #48	@ 0x30
  401110:	e0825102 	add	r5, r2, r2, lsl #2
  401114:	e1a0e105 	lsl	lr, r5, #2
  401118:	e08cc00e 	add	ip, ip, lr
  40111c:	e583c014 	str	ip, [r3, #20]
  401120:	e1a0c105 	lsl	ip, r5, #2
  401124:	e081c00c 	add	ip, r1, ip
  401128:	e59ce030 	ldr	lr, [ip, #48]	@ 0x30
  40112c:	e28ee001 	add	lr, lr, #1
  401130:	e1a0c105 	lsl	ip, r5, #2
  401134:	e081c00c 	add	ip, r1, ip
  401138:	e58ce030 	str	lr, [ip, #48]	@ 0x30
  40113c:	e593202c 	ldr	r2, [r3, #44]	@ 0x2c
  401140:	e59130d8 	ldr	r3, [r1, #216]	@ 0xd8
  401144:	e593302c 	ldr	r3, [r3, #44]	@ 0x2c
  401148:	e1520003 	cmp	r2, r3
  40114c:	83a00001 	movhi	r0, #1
  401150:	e59f30bc 	ldr	r3, [pc, #188]	@ 401214 <xTaskIncrementTick+0x234>
  401154:	e5933028 	ldr	r3, [r3, #40]	@ 0x28
  401158:	e5933000 	ldr	r3, [r3]
  40115c:	e3530000 	cmp	r3, #0
  401160:	0affffc9 	beq	40108c <xTaskIncrementTick+0xac>
  401164:	e59f30a8 	ldr	r3, [pc, #168]	@ 401214 <xTaskIncrementTick+0x234>
  401168:	e5933028 	ldr	r3, [r3, #40]	@ 0x28
  40116c:	e593300c 	ldr	r3, [r3, #12]
  401170:	e593300c 	ldr	r3, [r3, #12]
  401174:	e5932004 	ldr	r2, [r3, #4]
  401178:	e1540002 	cmp	r4, r2
  40117c:	3affffc6 	bcc	40109c <xTaskIncrementTick+0xbc>
  401180:	e5932014 	ldr	r2, [r3, #20]
  401184:	e593c008 	ldr	ip, [r3, #8]
  401188:	e593100c 	ldr	r1, [r3, #12]
  40118c:	e58c1008 	str	r1, [ip, #8]
  401190:	e593c008 	ldr	ip, [r3, #8]
  401194:	e581c004 	str	ip, [r1, #4]
  401198:	e5921004 	ldr	r1, [r2, #4]
  40119c:	e283e004 	add	lr, r3, #4
  4011a0:	e151000e 	cmp	r1, lr
  4011a4:	0affffbf 	beq	4010a8 <xTaskIncrementTick+0xc8>
  4011a8:	e3a01000 	mov	r1, #0
  4011ac:	e5831014 	str	r1, [r3, #20]
  4011b0:	e5921000 	ldr	r1, [r2]
  4011b4:	e2411001 	sub	r1, r1, #1
  4011b8:	e5821000 	str	r1, [r2]
  4011bc:	e5932028 	ldr	r2, [r3, #40]	@ 0x28
  4011c0:	e3520000 	cmp	r2, #0
  4011c4:	0affffbf 	beq	4010c8 <xTaskIncrementTick+0xe8>
  4011c8:	e593c01c 	ldr	ip, [r3, #28]
  4011cc:	e5931020 	ldr	r1, [r3, #32]
  4011d0:	e58c1008 	str	r1, [ip, #8]
  4011d4:	e593c01c 	ldr	ip, [r3, #28]
  4011d8:	e581c004 	str	ip, [r1, #4]
  4011dc:	e592c004 	ldr	ip, [r2, #4]
  4011e0:	e2831018 	add	r1, r3, #24
  4011e4:	e15c0001 	cmp	ip, r1
  4011e8:	05931020 	ldreq	r1, [r3, #32]
  4011ec:	05821004 	streq	r1, [r2, #4]
  4011f0:	eaffffaf 	b	4010b4 <xTaskIncrementTick+0xd4>
  4011f4:	e59f2018 	ldr	r2, [pc, #24]	@ 401214 <xTaskIncrementTick+0x234>
  4011f8:	e5923100 	ldr	r3, [r2, #256]	@ 0x100
  4011fc:	e2833001 	add	r3, r3, #1
  401200:	e5823100 	str	r3, [r2, #256]	@ 0x100
  401204:	e3a00000 	mov	r0, #0
  401208:	e12fff1e 	bx	lr
  40120c:	e3a00001 	mov	r0, #1
  401210:	eaffff99 	b	40107c <xTaskIncrementTick+0x9c>
  401214:	00407980 	subeq	r7, r0, r0, lsl #19

00401218 <xTaskResumeAll>:
  401218:	e92d4010 	push	{r4, lr}
  40121c:	eb0008a8 	bl	4034c4 <itc_disable_ints>
  401220:	e59f3204 	ldr	r3, [pc, #516]	@ 40142c <xTaskResumeAll+0x214>
  401224:	e59330f4 	ldr	r3, [r3, #244]	@ 0xf4
  401228:	e3530000 	cmp	r3, #0
  40122c:	1a000005 	bne	401248 <xTaskResumeAll+0x30>
  401230:	e92d0001 	stmfd	sp!, {r0}
  401234:	e10f0000 	mrs	r0, CPSR
  401238:	e38000c0 	orr	r0, r0, #192	@ 0xc0
  40123c:	e129f000 	msr	CPSR_fc, r0
  401240:	e8bd0001 	ldmfd	sp!, {r0}
  401244:	eafffffe 	b	401244 <xTaskResumeAll+0x2c>
  401248:	e59f31dc 	ldr	r3, [pc, #476]	@ 40142c <xTaskResumeAll+0x214>
  40124c:	e59320f4 	ldr	r2, [r3, #244]	@ 0xf4
  401250:	e2422001 	sub	r2, r2, #1
  401254:	e58320f4 	str	r2, [r3, #244]	@ 0xf4
  401258:	e59330f4 	ldr	r3, [r3, #244]	@ 0xf4
  40125c:	e3530000 	cmp	r3, #0
  401260:	1a00006c 	bne	401418 <xTaskResumeAll+0x200>
  401264:	e59f31c0 	ldr	r3, [pc, #448]	@ 40142c <xTaskResumeAll+0x214>
  401268:	e59330d4 	ldr	r3, [r3, #212]	@ 0xd4
  40126c:	e3530000 	cmp	r3, #0
  401270:	1a000007 	bne	401294 <xTaskResumeAll+0x7c>
  401274:	e3a04000 	mov	r4, #0
  401278:	ea000067 	b	40141c <xTaskResumeAll+0x204>
  40127c:	e5931020 	ldr	r1, [r3, #32]
  401280:	e5821004 	str	r1, [r2, #4]
  401284:	ea000014 	b	4012dc <xTaskResumeAll+0xc4>
  401288:	e593100c 	ldr	r1, [r3, #12]
  40128c:	e5821004 	str	r1, [r2, #4]
  401290:	ea000020 	b	401318 <xTaskResumeAll+0x100>
  401294:	e3a03000 	mov	r3, #0
  401298:	e59f218c 	ldr	r2, [pc, #396]	@ 40142c <xTaskResumeAll+0x214>
  40129c:	e5922014 	ldr	r2, [r2, #20]
  4012a0:	e3520000 	cmp	r2, #0
  4012a4:	0a000041 	beq	4013b0 <xTaskResumeAll+0x198>
  4012a8:	e59f317c 	ldr	r3, [pc, #380]	@ 40142c <xTaskResumeAll+0x214>
  4012ac:	e5933020 	ldr	r3, [r3, #32]
  4012b0:	e593300c 	ldr	r3, [r3, #12]
  4012b4:	e5932028 	ldr	r2, [r3, #40]	@ 0x28
  4012b8:	e593001c 	ldr	r0, [r3, #28]
  4012bc:	e5931020 	ldr	r1, [r3, #32]
  4012c0:	e5801008 	str	r1, [r0, #8]
  4012c4:	e593001c 	ldr	r0, [r3, #28]
  4012c8:	e5810004 	str	r0, [r1, #4]
  4012cc:	e5920004 	ldr	r0, [r2, #4]
  4012d0:	e2831018 	add	r1, r3, #24
  4012d4:	e1500001 	cmp	r0, r1
  4012d8:	0affffe7 	beq	40127c <xTaskResumeAll+0x64>
  4012dc:	e3a01000 	mov	r1, #0
  4012e0:	e5831028 	str	r1, [r3, #40]	@ 0x28
  4012e4:	e5921000 	ldr	r1, [r2]
  4012e8:	e2411001 	sub	r1, r1, #1
  4012ec:	e5821000 	str	r1, [r2]
  4012f0:	e5932014 	ldr	r2, [r3, #20]
  4012f4:	e5930008 	ldr	r0, [r3, #8]
  4012f8:	e593100c 	ldr	r1, [r3, #12]
  4012fc:	e5801008 	str	r1, [r0, #8]
  401300:	e5930008 	ldr	r0, [r3, #8]
  401304:	e5810004 	str	r0, [r1, #4]
  401308:	e5921004 	ldr	r1, [r2, #4]
  40130c:	e2830004 	add	r0, r3, #4
  401310:	e1510000 	cmp	r1, r0
  401314:	0affffdb 	beq	401288 <xTaskResumeAll+0x70>
  401318:	e3a01000 	mov	r1, #0
  40131c:	e5831014 	str	r1, [r3, #20]
  401320:	e5921000 	ldr	r1, [r2]
  401324:	e2411001 	sub	r1, r1, #1
  401328:	e5821000 	str	r1, [r2]
  40132c:	e593202c 	ldr	r2, [r3, #44]	@ 0x2c
  401330:	e59f10f4 	ldr	r1, [pc, #244]	@ 40142c <xTaskResumeAll+0x214>
  401334:	e59110e4 	ldr	r1, [r1, #228]	@ 0xe4
  401338:	e1520001 	cmp	r2, r1
  40133c:	859f10e8 	ldrhi	r1, [pc, #232]	@ 40142c <xTaskResumeAll+0x214>
  401340:	858120e4 	strhi	r2, [r1, #228]	@ 0xe4
  401344:	e59f10e0 	ldr	r1, [pc, #224]	@ 40142c <xTaskResumeAll+0x214>
  401348:	e0822102 	add	r2, r2, r2, lsl #2
  40134c:	e0812102 	add	r2, r1, r2, lsl #2
  401350:	e5922034 	ldr	r2, [r2, #52]	@ 0x34
  401354:	e5832008 	str	r2, [r3, #8]
  401358:	e592c008 	ldr	ip, [r2, #8]
  40135c:	e583c00c 	str	ip, [r3, #12]
  401360:	e58c0004 	str	r0, [ip, #4]
  401364:	e5820008 	str	r0, [r2, #8]
  401368:	e593202c 	ldr	r2, [r3, #44]	@ 0x2c
  40136c:	e2810030 	add	r0, r1, #48	@ 0x30
  401370:	e082c102 	add	ip, r2, r2, lsl #2
  401374:	e080010c 	add	r0, r0, ip, lsl #2
  401378:	e5830014 	str	r0, [r3, #20]
  40137c:	e081010c 	add	r0, r1, ip, lsl #2
  401380:	e5900030 	ldr	r0, [r0, #48]	@ 0x30
  401384:	e2800001 	add	r0, r0, #1
  401388:	e081210c 	add	r2, r1, ip, lsl #2
  40138c:	e5820030 	str	r0, [r2, #48]	@ 0x30
  401390:	e593002c 	ldr	r0, [r3, #44]	@ 0x2c
  401394:	e59120d8 	ldr	r2, [r1, #216]	@ 0xd8
  401398:	e592202c 	ldr	r2, [r2, #44]	@ 0x2c
  40139c:	e1500002 	cmp	r0, r2
  4013a0:	81a02001 	movhi	r2, r1
  4013a4:	83a01001 	movhi	r1, #1
  4013a8:	858210f8 	strhi	r1, [r2, #248]	@ 0xf8
  4013ac:	eaffffb9 	b	401298 <xTaskResumeAll+0x80>
  4013b0:	e3530000 	cmp	r3, #0
  4013b4:	1bfffbed 	blne	400370 <prvResetNextTaskUnblockTime>
  4013b8:	e59f306c 	ldr	r3, [pc, #108]	@ 40142c <xTaskResumeAll+0x214>
  4013bc:	e5934100 	ldr	r4, [r3, #256]	@ 0x100
  4013c0:	e3540000 	cmp	r4, #0
  4013c4:	1a000009 	bne	4013f0 <xTaskResumeAll+0x1d8>
  4013c8:	e59f305c 	ldr	r3, [pc, #92]	@ 40142c <xTaskResumeAll+0x214>
  4013cc:	e59340f8 	ldr	r4, [r3, #248]	@ 0xf8
  4013d0:	e3540000 	cmp	r4, #0
  4013d4:	0a000010 	beq	40141c <xTaskResumeAll+0x204>
  4013d8:	e59330d8 	ldr	r3, [r3, #216]	@ 0xd8
  4013dc:	ef000000 	svc	0x00000000
  4013e0:	e3a04001 	mov	r4, #1
  4013e4:	ea00000c 	b	40141c <xTaskResumeAll+0x204>
  4013e8:	e2544001 	subs	r4, r4, #1
  4013ec:	0a000005 	beq	401408 <xTaskResumeAll+0x1f0>
  4013f0:	ebfffefa 	bl	400fe0 <xTaskIncrementTick>
  4013f4:	e3500000 	cmp	r0, #0
  4013f8:	159f302c 	ldrne	r3, [pc, #44]	@ 40142c <xTaskResumeAll+0x214>
  4013fc:	13a02001 	movne	r2, #1
  401400:	158320f8 	strne	r2, [r3, #248]	@ 0xf8
  401404:	eafffff7 	b	4013e8 <xTaskResumeAll+0x1d0>
  401408:	e59f301c 	ldr	r3, [pc, #28]	@ 40142c <xTaskResumeAll+0x214>
  40140c:	e3a02000 	mov	r2, #0
  401410:	e5832100 	str	r2, [r3, #256]	@ 0x100
  401414:	eaffffeb 	b	4013c8 <xTaskResumeAll+0x1b0>
  401418:	e3a04000 	mov	r4, #0
  40141c:	eb000831 	bl	4034e8 <itc_restore_ints>
  401420:	e1a00004 	mov	r0, r4
  401424:	e8bd4010 	pop	{r4, lr}
  401428:	e12fff1e 	bx	lr
  40142c:	00407980 	subeq	r7, r0, r0, lsl #19

00401430 <xTaskDelayUntil>:
  401430:	e92d4070 	push	{r4, r5, r6, lr}
  401434:	e2504000 	subs	r4, r0, #0
  401438:	0a000008 	beq	401460 <xTaskDelayUntil+0x30>
  40143c:	e1a05001 	mov	r5, r1
  401440:	e3510000 	cmp	r1, #0
  401444:	1a00000b 	bne	401478 <xTaskDelayUntil+0x48>
  401448:	e92d0001 	stmfd	sp!, {r0}
  40144c:	e10f0000 	mrs	r0, CPSR
  401450:	e38000c0 	orr	r0, r0, #192	@ 0xc0
  401454:	e129f000 	msr	CPSR_fc, r0
  401458:	e8bd0001 	ldmfd	sp!, {r0}
  40145c:	eafffffe 	b	40145c <xTaskDelayUntil+0x2c>
  401460:	e92d0001 	stmfd	sp!, {r0}
  401464:	e10f0000 	mrs	r0, CPSR
  401468:	e38000c0 	orr	r0, r0, #192	@ 0xc0
  40146c:	e129f000 	msr	CPSR_fc, r0
  401470:	e8bd0001 	ldmfd	sp!, {r0}
  401474:	eafffffe 	b	401474 <xTaskDelayUntil+0x44>
  401478:	ebfffeb2 	bl	400f48 <vTaskSuspendAll>
  40147c:	e59f30a8 	ldr	r3, [pc, #168]	@ 40152c <xTaskDelayUntil+0xfc>
  401480:	e59300ec 	ldr	r0, [r3, #236]	@ 0xec
  401484:	e59330f4 	ldr	r3, [r3, #244]	@ 0xf4
  401488:	e3530001 	cmp	r3, #1
  40148c:	0a000005 	beq	4014a8 <xTaskDelayUntil+0x78>
  401490:	e92d0001 	stmfd	sp!, {r0}
  401494:	e10f0000 	mrs	r0, CPSR
  401498:	e38000c0 	orr	r0, r0, #192	@ 0xc0
  40149c:	e129f000 	msr	CPSR_fc, r0
  4014a0:	e8bd0001 	ldmfd	sp!, {r0}
  4014a4:	eafffffe 	b	4014a4 <xTaskDelayUntil+0x74>
  4014a8:	e5943000 	ldr	r3, [r4]
  4014ac:	e0835005 	add	r5, r3, r5
  4014b0:	e1530000 	cmp	r3, r0
  4014b4:	9a000009 	bls	4014e0 <xTaskDelayUntil+0xb0>
  4014b8:	e1530005 	cmp	r3, r5
  4014bc:	95845000 	strls	r5, [r4]
  4014c0:	93a04000 	movls	r4, #0
  4014c4:	9a00000e 	bls	401504 <xTaskDelayUntil+0xd4>
  4014c8:	e1500005 	cmp	r0, r5
  4014cc:	25845000 	strcs	r5, [r4]
  4014d0:	23a04000 	movcs	r4, #0
  4014d4:	2a00000a 	bcs	401504 <xTaskDelayUntil+0xd4>
  4014d8:	e5845000 	str	r5, [r4]
  4014dc:	ea000004 	b	4014f4 <xTaskDelayUntil+0xc4>
  4014e0:	e1530005 	cmp	r3, r5
  4014e4:	8a000001 	bhi	4014f0 <xTaskDelayUntil+0xc0>
  4014e8:	e1500005 	cmp	r0, r5
  4014ec:	2a00000b 	bcs	401520 <xTaskDelayUntil+0xf0>
  4014f0:	e5845000 	str	r5, [r4]
  4014f4:	e3a01000 	mov	r1, #0
  4014f8:	e0450000 	sub	r0, r5, r0
  4014fc:	ebfffc9c 	bl	400774 <prvAddCurrentTaskToDelayedList>
  401500:	e3a04001 	mov	r4, #1
  401504:	ebffff43 	bl	401218 <xTaskResumeAll>
  401508:	e3500000 	cmp	r0, #0
  40150c:	1a000000 	bne	401514 <xTaskDelayUntil+0xe4>
  401510:	ef000000 	svc	0x00000000
  401514:	e1a00004 	mov	r0, r4
  401518:	e8bd4070 	pop	{r4, r5, r6, lr}
  40151c:	e12fff1e 	bx	lr
  401520:	e5845000 	str	r5, [r4]
  401524:	e3a04000 	mov	r4, #0
  401528:	eafffff5 	b	401504 <xTaskDelayUntil+0xd4>
  40152c:	00407980 	subeq	r7, r0, r0, lsl #19

00401530 <vTaskDelay>:
  401530:	e92d4010 	push	{r4, lr}
  401534:	e2504000 	subs	r4, r0, #0
  401538:	1a000002 	bne	401548 <vTaskDelay+0x18>
  40153c:	ef000000 	svc	0x00000000
  401540:	e8bd4010 	pop	{r4, lr}
  401544:	e12fff1e 	bx	lr
  401548:	ebfffe7e 	bl	400f48 <vTaskSuspendAll>
  40154c:	e59f303c 	ldr	r3, [pc, #60]	@ 401590 <vTaskDelay+0x60>
  401550:	e59330f4 	ldr	r3, [r3, #244]	@ 0xf4
  401554:	e3530001 	cmp	r3, #1
  401558:	0a000005 	beq	401574 <vTaskDelay+0x44>
  40155c:	e92d0001 	stmfd	sp!, {r0}
  401560:	e10f0000 	mrs	r0, CPSR
  401564:	e38000c0 	orr	r0, r0, #192	@ 0xc0
  401568:	e129f000 	msr	CPSR_fc, r0
  40156c:	e8bd0001 	ldmfd	sp!, {r0}
  401570:	eafffffe 	b	401570 <vTaskDelay+0x40>
  401574:	e3a01000 	mov	r1, #0
  401578:	e1a00004 	mov	r0, r4
  40157c:	ebfffc7c 	bl	400774 <prvAddCurrentTaskToDelayedList>
  401580:	ebffff24 	bl	401218 <xTaskResumeAll>
  401584:	e3500000 	cmp	r0, #0
  401588:	1affffec 	bne	401540 <vTaskDelay+0x10>
  40158c:	eaffffea 	b	40153c <vTaskDelay+0xc>
  401590:	00407980 	subeq	r7, r0, r0, lsl #19

00401594 <xTaskCatchUpTicks>:
  401594:	e59f3050 	ldr	r3, [pc, #80]	@ 4015ec <xTaskCatchUpTicks+0x58>
  401598:	e59330f4 	ldr	r3, [r3, #244]	@ 0xf4
  40159c:	e3530000 	cmp	r3, #0
  4015a0:	0a000005 	beq	4015bc <xTaskCatchUpTicks+0x28>
  4015a4:	e92d0001 	stmfd	sp!, {r0}
  4015a8:	e10f0000 	mrs	r0, CPSR
  4015ac:	e38000c0 	orr	r0, r0, #192	@ 0xc0
  4015b0:	e129f000 	msr	CPSR_fc, r0
  4015b4:	e8bd0001 	ldmfd	sp!, {r0}
  4015b8:	eafffffe 	b	4015b8 <xTaskCatchUpTicks+0x24>
  4015bc:	e92d4010 	push	{r4, lr}
  4015c0:	e1a04000 	mov	r4, r0
  4015c4:	ebfffe5f 	bl	400f48 <vTaskSuspendAll>
  4015c8:	eb0007bd 	bl	4034c4 <itc_disable_ints>
  4015cc:	e59f2018 	ldr	r2, [pc, #24]	@ 4015ec <xTaskCatchUpTicks+0x58>
  4015d0:	e5923100 	ldr	r3, [r2, #256]	@ 0x100
  4015d4:	e0833004 	add	r3, r3, r4
  4015d8:	e5823100 	str	r3, [r2, #256]	@ 0x100
  4015dc:	eb0007c1 	bl	4034e8 <itc_restore_ints>
  4015e0:	ebffff0c 	bl	401218 <xTaskResumeAll>
  4015e4:	e8bd4010 	pop	{r4, lr}
  4015e8:	e12fff1e 	bx	lr
  4015ec:	00407980 	subeq	r7, r0, r0, lsl #19

004015f0 <vTaskSwitchContext>:
  4015f0:	e59f3140 	ldr	r3, [pc, #320]	@ 401738 <vTaskSwitchContext+0x148>
  4015f4:	e59330f4 	ldr	r3, [r3, #244]	@ 0xf4
  4015f8:	e3530000 	cmp	r3, #0
  4015fc:	0a000003 	beq	401610 <vTaskSwitchContext+0x20>
  401600:	e59f3130 	ldr	r3, [pc, #304]	@ 401738 <vTaskSwitchContext+0x148>
  401604:	e3a02001 	mov	r2, #1
  401608:	e58320f8 	str	r2, [r3, #248]	@ 0xf8
  40160c:	e12fff1e 	bx	lr
  401610:	e92d4010 	push	{r4, lr}
  401614:	e59f311c 	ldr	r3, [pc, #284]	@ 401738 <vTaskSwitchContext+0x148>
  401618:	e3a02000 	mov	r2, #0
  40161c:	e58320f8 	str	r2, [r3, #248]	@ 0xf8
  401620:	e59330d8 	ldr	r3, [r3, #216]	@ 0xd8
  401624:	e5933030 	ldr	r3, [r3, #48]	@ 0x30
  401628:	e5931000 	ldr	r1, [r3]
  40162c:	e59f2108 	ldr	r2, [pc, #264]	@ 40173c <vTaskSwitchContext+0x14c>
  401630:	e1510002 	cmp	r1, r2
  401634:	1a000002 	bne	401644 <vTaskSwitchContext+0x54>
  401638:	e5931004 	ldr	r1, [r3, #4]
  40163c:	e1510002 	cmp	r1, r2
  401640:	0a000011 	beq	40168c <vTaskSwitchContext+0x9c>
  401644:	e59f30ec 	ldr	r3, [pc, #236]	@ 401738 <vTaskSwitchContext+0x148>
  401648:	e59310d8 	ldr	r1, [r3, #216]	@ 0xd8
  40164c:	e59300d8 	ldr	r0, [r3, #216]	@ 0xd8
  401650:	e2811034 	add	r1, r1, #52	@ 0x34
  401654:	ebfffb15 	bl	4002b0 <vApplicationStackOverflowHook>
  401658:	e59f30d8 	ldr	r3, [pc, #216]	@ 401738 <vTaskSwitchContext+0x148>
  40165c:	e59330e4 	ldr	r3, [r3, #228]	@ 0xe4
  401660:	e0832103 	add	r2, r3, r3, lsl #2
  401664:	e1a01102 	lsl	r1, r2, #2
  401668:	e59f20c8 	ldr	r2, [pc, #200]	@ 401738 <vTaskSwitchContext+0x148>
  40166c:	e0822001 	add	r2, r2, r1
  401670:	e5922030 	ldr	r2, [r2, #48]	@ 0x30
  401674:	e3520000 	cmp	r2, #0
  401678:	1a000011 	bne	4016c4 <vTaskSwitchContext+0xd4>
  40167c:	e3530000 	cmp	r3, #0
  401680:	0a000009 	beq	4016ac <vTaskSwitchContext+0xbc>
  401684:	e2433001 	sub	r3, r3, #1
  401688:	eafffff4 	b	401660 <vTaskSwitchContext+0x70>
  40168c:	e5931008 	ldr	r1, [r3, #8]
  401690:	e1510002 	cmp	r1, r2
  401694:	1affffea 	bne	401644 <vTaskSwitchContext+0x54>
  401698:	e593200c 	ldr	r2, [r3, #12]
  40169c:	e59f3098 	ldr	r3, [pc, #152]	@ 40173c <vTaskSwitchContext+0x14c>
  4016a0:	e1520003 	cmp	r2, r3
  4016a4:	1affffe6 	bne	401644 <vTaskSwitchContext+0x54>
  4016a8:	eaffffea 	b	401658 <vTaskSwitchContext+0x68>
  4016ac:	e92d0001 	stmfd	sp!, {r0}
  4016b0:	e10f0000 	mrs	r0, CPSR
  4016b4:	e38000c0 	orr	r0, r0, #192	@ 0xc0
  4016b8:	e129f000 	msr	CPSR_fc, r0
  4016bc:	e8bd0001 	ldmfd	sp!, {r0}
  4016c0:	eafffffe 	b	4016c0 <vTaskSwitchContext+0xd0>
  4016c4:	e59f206c 	ldr	r2, [pc, #108]	@ 401738 <vTaskSwitchContext+0x148>
  4016c8:	e0821001 	add	r1, r2, r1
  4016cc:	e5910034 	ldr	r0, [r1, #52]	@ 0x34
  4016d0:	e5900004 	ldr	r0, [r0, #4]
  4016d4:	e5810034 	str	r0, [r1, #52]	@ 0x34
  4016d8:	e2822030 	add	r2, r2, #48	@ 0x30
  4016dc:	e083c103 	add	ip, r3, r3, lsl #2
  4016e0:	e1a0110c 	lsl	r1, ip, #2
  4016e4:	e2811008 	add	r1, r1, #8
  4016e8:	e0822001 	add	r2, r2, r1
  4016ec:	e1500002 	cmp	r0, r2
  4016f0:	0a00000a 	beq	401720 <vTaskSwitchContext+0x130>
  4016f4:	e59f203c 	ldr	r2, [pc, #60]	@ 401738 <vTaskSwitchContext+0x148>
  4016f8:	e0830103 	add	r0, r3, r3, lsl #2
  4016fc:	e1a01100 	lsl	r1, r0, #2
  401700:	e0821001 	add	r1, r2, r1
  401704:	e5911034 	ldr	r1, [r1, #52]	@ 0x34
  401708:	e591100c 	ldr	r1, [r1, #12]
  40170c:	e58210d8 	str	r1, [r2, #216]	@ 0xd8
  401710:	e58230e4 	str	r3, [r2, #228]	@ 0xe4
  401714:	e59230d8 	ldr	r3, [r2, #216]	@ 0xd8
  401718:	e8bd4010 	pop	{r4, lr}
  40171c:	e12fff1e 	bx	lr
  401720:	e1a0110c 	lsl	r1, ip, #2
  401724:	e59f200c 	ldr	r2, [pc, #12]	@ 401738 <vTaskSwitchContext+0x148>
  401728:	e0822001 	add	r2, r2, r1
  40172c:	e592103c 	ldr	r1, [r2, #60]	@ 0x3c
  401730:	e5821034 	str	r1, [r2, #52]	@ 0x34
  401734:	eaffffee 	b	4016f4 <vTaskSwitchContext+0x104>
  401738:	00407980 	subeq	r7, r0, r0, lsl #19
  40173c:	a5a5a5a5 	strge	sl, [r5, #1445]!	@ 0x5a5

00401740 <vTaskSuspend>:
  401740:	e92d4070 	push	{r4, r5, r6, lr}
  401744:	e1a04000 	mov	r4, r0
  401748:	eb00075d 	bl	4034c4 <itc_disable_ints>
  40174c:	e3540000 	cmp	r4, #0
  401750:	0a000017 	beq	4017b4 <vTaskSuspend+0x74>
  401754:	e2845004 	add	r5, r4, #4
  401758:	e1a00005 	mov	r0, r5
  40175c:	eb00068a 	bl	40318c <uxListRemove>
  401760:	e5943028 	ldr	r3, [r4, #40]	@ 0x28
  401764:	e3530000 	cmp	r3, #0
  401768:	12840018 	addne	r0, r4, #24
  40176c:	1b000686 	blne	40318c <uxListRemove>
  401770:	e1a01005 	mov	r1, r5
  401774:	e59f00e4 	ldr	r0, [pc, #228]	@ 401860 <vTaskSuspend+0x120>
  401778:	eb000661 	bl	403104 <vListInsertEnd>
  40177c:	e3a03000 	mov	r3, #0
  401780:	e3530000 	cmp	r3, #0
  401784:	da00000d 	ble	4017c0 <vTaskSuspend+0x80>
  401788:	eb000756 	bl	4034e8 <itc_restore_ints>
  40178c:	e59f30cc 	ldr	r3, [pc, #204]	@ 401860 <vTaskSuspend+0x120>
  401790:	e59330dc 	ldr	r3, [r3, #220]	@ 0xdc
  401794:	e3530000 	cmp	r3, #0
  401798:	1a000012 	bne	4017e8 <vTaskSuspend+0xa8>
  40179c:	e59f30bc 	ldr	r3, [pc, #188]	@ 401860 <vTaskSuspend+0x120>
  4017a0:	e59330d8 	ldr	r3, [r3, #216]	@ 0xd8
  4017a4:	e1530004 	cmp	r3, r4
  4017a8:	0a000012 	beq	4017f8 <vTaskSuspend+0xb8>
  4017ac:	e8bd4070 	pop	{r4, r5, r6, lr}
  4017b0:	e12fff1e 	bx	lr
  4017b4:	e59f30a4 	ldr	r3, [pc, #164]	@ 401860 <vTaskSuspend+0x120>
  4017b8:	e59340d8 	ldr	r4, [r3, #216]	@ 0xd8
  4017bc:	eaffffe4 	b	401754 <vTaskSuspend+0x14>
  4017c0:	e0842003 	add	r2, r4, r3
  4017c4:	e5d22050 	ldrb	r2, [r2, #80]	@ 0x50
  4017c8:	e3520001 	cmp	r2, #1
  4017cc:	0a000001 	beq	4017d8 <vTaskSuspend+0x98>
  4017d0:	e2833001 	add	r3, r3, #1
  4017d4:	eaffffe9 	b	401780 <vTaskSuspend+0x40>
  4017d8:	e0842003 	add	r2, r4, r3
  4017dc:	e3a01000 	mov	r1, #0
  4017e0:	e5c21050 	strb	r1, [r2, #80]	@ 0x50
  4017e4:	eafffff9 	b	4017d0 <vTaskSuspend+0x90>
  4017e8:	eb000735 	bl	4034c4 <itc_disable_ints>
  4017ec:	ebfffadf 	bl	400370 <prvResetNextTaskUnblockTime>
  4017f0:	eb00073c 	bl	4034e8 <itc_restore_ints>
  4017f4:	eaffffe8 	b	40179c <vTaskSuspend+0x5c>
  4017f8:	e59f3060 	ldr	r3, [pc, #96]	@ 401860 <vTaskSuspend+0x120>
  4017fc:	e59330dc 	ldr	r3, [r3, #220]	@ 0xdc
  401800:	e3530000 	cmp	r3, #0
  401804:	0a00000b 	beq	401838 <vTaskSuspend+0xf8>
  401808:	e59f3050 	ldr	r3, [pc, #80]	@ 401860 <vTaskSuspend+0x120>
  40180c:	e59330f4 	ldr	r3, [r3, #244]	@ 0xf4
  401810:	e3530000 	cmp	r3, #0
  401814:	0a000005 	beq	401830 <vTaskSuspend+0xf0>
  401818:	e92d0001 	stmfd	sp!, {r0}
  40181c:	e10f0000 	mrs	r0, CPSR
  401820:	e38000c0 	orr	r0, r0, #192	@ 0xc0
  401824:	e129f000 	msr	CPSR_fc, r0
  401828:	e8bd0001 	ldmfd	sp!, {r0}
  40182c:	eafffffe 	b	40182c <vTaskSuspend+0xec>
  401830:	ef000000 	svc	0x00000000
  401834:	eaffffdc 	b	4017ac <vTaskSuspend+0x6c>
  401838:	e59f3020 	ldr	r3, [pc, #32]	@ 401860 <vTaskSuspend+0x120>
  40183c:	e5932000 	ldr	r2, [r3]
  401840:	e59330d4 	ldr	r3, [r3, #212]	@ 0xd4
  401844:	e1530002 	cmp	r3, r2
  401848:	059f3010 	ldreq	r3, [pc, #16]	@ 401860 <vTaskSuspend+0x120>
  40184c:	03a02000 	moveq	r2, #0
  401850:	058320d8 	streq	r2, [r3, #216]	@ 0xd8
  401854:	0affffd4 	beq	4017ac <vTaskSuspend+0x6c>
  401858:	ebffff64 	bl	4015f0 <vTaskSwitchContext>
  40185c:	eaffffd2 	b	4017ac <vTaskSuspend+0x6c>
  401860:	00407980 	subeq	r7, r0, r0, lsl #19

00401864 <vTaskPlaceOnEventList>:
  401864:	e3500000 	cmp	r0, #0
  401868:	0a00000a 	beq	401898 <vTaskPlaceOnEventList+0x34>
  40186c:	e92d4010 	push	{r4, lr}
  401870:	e1a04001 	mov	r4, r1
  401874:	e59f3034 	ldr	r3, [pc, #52]	@ 4018b0 <vTaskPlaceOnEventList+0x4c>
  401878:	e59310d8 	ldr	r1, [r3, #216]	@ 0xd8
  40187c:	e2811018 	add	r1, r1, #24
  401880:	eb00062a 	bl	403130 <vListInsert>
  401884:	e3a01001 	mov	r1, #1
  401888:	e1a00004 	mov	r0, r4
  40188c:	ebfffbb8 	bl	400774 <prvAddCurrentTaskToDelayedList>
  401890:	e8bd4010 	pop	{r4, lr}
  401894:	e12fff1e 	bx	lr
  401898:	e92d0001 	stmfd	sp!, {r0}
  40189c:	e10f0000 	mrs	r0, CPSR
  4018a0:	e38000c0 	orr	r0, r0, #192	@ 0xc0
  4018a4:	e129f000 	msr	CPSR_fc, r0
  4018a8:	e8bd0001 	ldmfd	sp!, {r0}
  4018ac:	eafffffe 	b	4018ac <vTaskPlaceOnEventList+0x48>
  4018b0:	00407980 	subeq	r7, r0, r0, lsl #19

004018b4 <vTaskPlaceOnUnorderedEventList>:
  4018b4:	e2503000 	subs	r3, r0, #0
  4018b8:	0a000009 	beq	4018e4 <vTaskPlaceOnUnorderedEventList+0x30>
  4018bc:	e59f00a4 	ldr	r0, [pc, #164]	@ 401968 <vTaskPlaceOnUnorderedEventList+0xb4>
  4018c0:	e59000f4 	ldr	r0, [r0, #244]	@ 0xf4
  4018c4:	e3500000 	cmp	r0, #0
  4018c8:	1a00000b 	bne	4018fc <vTaskPlaceOnUnorderedEventList+0x48>
  4018cc:	e92d0001 	stmfd	sp!, {r0}
  4018d0:	e10f0000 	mrs	r0, CPSR
  4018d4:	e38000c0 	orr	r0, r0, #192	@ 0xc0
  4018d8:	e129f000 	msr	CPSR_fc, r0
  4018dc:	e8bd0001 	ldmfd	sp!, {r0}
  4018e0:	eafffffe 	b	4018e0 <vTaskPlaceOnUnorderedEventList+0x2c>
  4018e4:	e92d0001 	stmfd	sp!, {r0}
  4018e8:	e10f0000 	mrs	r0, CPSR
  4018ec:	e38000c0 	orr	r0, r0, #192	@ 0xc0
  4018f0:	e129f000 	msr	CPSR_fc, r0
  4018f4:	e8bd0001 	ldmfd	sp!, {r0}
  4018f8:	eafffffe 	b	4018f8 <vTaskPlaceOnUnorderedEventList+0x44>
  4018fc:	e92d4010 	push	{r4, lr}
  401900:	e59f0060 	ldr	r0, [pc, #96]	@ 401968 <vTaskPlaceOnUnorderedEventList+0xb4>
  401904:	e590c0d8 	ldr	ip, [r0, #216]	@ 0xd8
  401908:	e3811102 	orr	r1, r1, #-2147483648	@ 0x80000000
  40190c:	e58c1018 	str	r1, [ip, #24]
  401910:	e5931004 	ldr	r1, [r3, #4]
  401914:	e590c0d8 	ldr	ip, [r0, #216]	@ 0xd8
  401918:	e58c101c 	str	r1, [ip, #28]
  40191c:	e590c0d8 	ldr	ip, [r0, #216]	@ 0xd8
  401920:	e591e008 	ldr	lr, [r1, #8]
  401924:	e58ce020 	str	lr, [ip, #32]
  401928:	e590c0d8 	ldr	ip, [r0, #216]	@ 0xd8
  40192c:	e28cc018 	add	ip, ip, #24
  401930:	e58ec004 	str	ip, [lr, #4]
  401934:	e590c0d8 	ldr	ip, [r0, #216]	@ 0xd8
  401938:	e28cc018 	add	ip, ip, #24
  40193c:	e581c008 	str	ip, [r1, #8]
  401940:	e59010d8 	ldr	r1, [r0, #216]	@ 0xd8
  401944:	e5813028 	str	r3, [r1, #40]	@ 0x28
  401948:	e5931000 	ldr	r1, [r3]
  40194c:	e2811001 	add	r1, r1, #1
  401950:	e5831000 	str	r1, [r3]
  401954:	e3a01001 	mov	r1, #1
  401958:	e1a00002 	mov	r0, r2
  40195c:	ebfffb84 	bl	400774 <prvAddCurrentTaskToDelayedList>
  401960:	e8bd4010 	pop	{r4, lr}
  401964:	e12fff1e 	bx	lr
  401968:	00407980 	subeq	r7, r0, r0, lsl #19

0040196c <xTaskRemoveFromEventList>:
  40196c:	e590300c 	ldr	r3, [r0, #12]
  401970:	e593300c 	ldr	r3, [r3, #12]
  401974:	e3530000 	cmp	r3, #0
  401978:	0a000044 	beq	401a90 <xTaskRemoveFromEventList+0x124>
  40197c:	e5932028 	ldr	r2, [r3, #40]	@ 0x28
  401980:	e593001c 	ldr	r0, [r3, #28]
  401984:	e5931020 	ldr	r1, [r3, #32]
  401988:	e5801008 	str	r1, [r0, #8]
  40198c:	e593001c 	ldr	r0, [r3, #28]
  401990:	e5810004 	str	r0, [r1, #4]
  401994:	e5921004 	ldr	r1, [r2, #4]
  401998:	e2830018 	add	r0, r3, #24
  40199c:	e1510000 	cmp	r1, r0
  4019a0:	0a000040 	beq	401aa8 <xTaskRemoveFromEventList+0x13c>
  4019a4:	e3a01000 	mov	r1, #0
  4019a8:	e5831028 	str	r1, [r3, #40]	@ 0x28
  4019ac:	e5921000 	ldr	r1, [r2]
  4019b0:	e2411001 	sub	r1, r1, #1
  4019b4:	e5821000 	str	r1, [r2]
  4019b8:	e59f213c 	ldr	r2, [pc, #316]	@ 401afc <xTaskRemoveFromEventList+0x190>
  4019bc:	e59220f4 	ldr	r2, [r2, #244]	@ 0xf4
  4019c0:	e3520000 	cmp	r2, #0
  4019c4:	1a00003d 	bne	401ac0 <xTaskRemoveFromEventList+0x154>
  4019c8:	e5932014 	ldr	r2, [r3, #20]
  4019cc:	e5930008 	ldr	r0, [r3, #8]
  4019d0:	e593100c 	ldr	r1, [r3, #12]
  4019d4:	e5801008 	str	r1, [r0, #8]
  4019d8:	e5930008 	ldr	r0, [r3, #8]
  4019dc:	e5810004 	str	r0, [r1, #4]
  4019e0:	e5921004 	ldr	r1, [r2, #4]
  4019e4:	e2830004 	add	r0, r3, #4
  4019e8:	e1510000 	cmp	r1, r0
  4019ec:	0a000030 	beq	401ab4 <xTaskRemoveFromEventList+0x148>
  4019f0:	e3a01000 	mov	r1, #0
  4019f4:	e5831014 	str	r1, [r3, #20]
  4019f8:	e5921000 	ldr	r1, [r2]
  4019fc:	e2411001 	sub	r1, r1, #1
  401a00:	e5821000 	str	r1, [r2]
  401a04:	e593202c 	ldr	r2, [r3, #44]	@ 0x2c
  401a08:	e59f10ec 	ldr	r1, [pc, #236]	@ 401afc <xTaskRemoveFromEventList+0x190>
  401a0c:	e59110e4 	ldr	r1, [r1, #228]	@ 0xe4
  401a10:	e1520001 	cmp	r2, r1
  401a14:	859f10e0 	ldrhi	r1, [pc, #224]	@ 401afc <xTaskRemoveFromEventList+0x190>
  401a18:	858120e4 	strhi	r2, [r1, #228]	@ 0xe4
  401a1c:	e59f10d8 	ldr	r1, [pc, #216]	@ 401afc <xTaskRemoveFromEventList+0x190>
  401a20:	e0822102 	add	r2, r2, r2, lsl #2
  401a24:	e0812102 	add	r2, r1, r2, lsl #2
  401a28:	e5922034 	ldr	r2, [r2, #52]	@ 0x34
  401a2c:	e5832008 	str	r2, [r3, #8]
  401a30:	e592c008 	ldr	ip, [r2, #8]
  401a34:	e583c00c 	str	ip, [r3, #12]
  401a38:	e58c0004 	str	r0, [ip, #4]
  401a3c:	e5820008 	str	r0, [r2, #8]
  401a40:	e593202c 	ldr	r2, [r3, #44]	@ 0x2c
  401a44:	e2810030 	add	r0, r1, #48	@ 0x30
  401a48:	e082c102 	add	ip, r2, r2, lsl #2
  401a4c:	e080010c 	add	r0, r0, ip, lsl #2
  401a50:	e5830014 	str	r0, [r3, #20]
  401a54:	e081010c 	add	r0, r1, ip, lsl #2
  401a58:	e5900030 	ldr	r0, [r0, #48]	@ 0x30
  401a5c:	e2800001 	add	r0, r0, #1
  401a60:	e081110c 	add	r1, r1, ip, lsl #2
  401a64:	e5810030 	str	r0, [r1, #48]	@ 0x30
  401a68:	e593202c 	ldr	r2, [r3, #44]	@ 0x2c
  401a6c:	e59f3088 	ldr	r3, [pc, #136]	@ 401afc <xTaskRemoveFromEventList+0x190>
  401a70:	e59330d8 	ldr	r3, [r3, #216]	@ 0xd8
  401a74:	e593302c 	ldr	r3, [r3, #44]	@ 0x2c
  401a78:	e1520003 	cmp	r2, r3
  401a7c:	9a00001c 	bls	401af4 <xTaskRemoveFromEventList+0x188>
  401a80:	e3a00001 	mov	r0, #1
  401a84:	e59f3070 	ldr	r3, [pc, #112]	@ 401afc <xTaskRemoveFromEventList+0x190>
  401a88:	e58300f8 	str	r0, [r3, #248]	@ 0xf8
  401a8c:	e12fff1e 	bx	lr
  401a90:	e92d0001 	stmfd	sp!, {r0}
  401a94:	e10f0000 	mrs	r0, CPSR
  401a98:	e38000c0 	orr	r0, r0, #192	@ 0xc0
  401a9c:	e129f000 	msr	CPSR_fc, r0
  401aa0:	e8bd0001 	ldmfd	sp!, {r0}
  401aa4:	eafffffe 	b	401aa4 <xTaskRemoveFromEventList+0x138>
  401aa8:	e5931020 	ldr	r1, [r3, #32]
  401aac:	e5821004 	str	r1, [r2, #4]
  401ab0:	eaffffbb 	b	4019a4 <xTaskRemoveFromEventList+0x38>
  401ab4:	e593100c 	ldr	r1, [r3, #12]
  401ab8:	e5821004 	str	r1, [r2, #4]
  401abc:	eaffffcb 	b	4019f0 <xTaskRemoveFromEventList+0x84>
  401ac0:	e59f2034 	ldr	r2, [pc, #52]	@ 401afc <xTaskRemoveFromEventList+0x190>
  401ac4:	e5921018 	ldr	r1, [r2, #24]
  401ac8:	e583101c 	str	r1, [r3, #28]
  401acc:	e591c008 	ldr	ip, [r1, #8]
  401ad0:	e583c020 	str	ip, [r3, #32]
  401ad4:	e58c0004 	str	r0, [ip, #4]
  401ad8:	e5810008 	str	r0, [r1, #8]
  401adc:	e2821014 	add	r1, r2, #20
  401ae0:	e5831028 	str	r1, [r3, #40]	@ 0x28
  401ae4:	e5921014 	ldr	r1, [r2, #20]
  401ae8:	e2811001 	add	r1, r1, #1
  401aec:	e5821014 	str	r1, [r2, #20]
  401af0:	eaffffdc 	b	401a68 <xTaskRemoveFromEventList+0xfc>
  401af4:	e3a00000 	mov	r0, #0
  401af8:	e12fff1e 	bx	lr
  401afc:	00407980 	subeq	r7, r0, r0, lsl #19

00401b00 <vTaskRemoveFromUnorderedEventList>:
  401b00:	e59f3158 	ldr	r3, [pc, #344]	@ 401c60 <vTaskRemoveFromUnorderedEventList+0x160>
  401b04:	e59330f4 	ldr	r3, [r3, #244]	@ 0xf4
  401b08:	e3530000 	cmp	r3, #0
  401b0c:	1a000005 	bne	401b28 <vTaskRemoveFromUnorderedEventList+0x28>
  401b10:	e92d0001 	stmfd	sp!, {r0}
  401b14:	e10f0000 	mrs	r0, CPSR
  401b18:	e38000c0 	orr	r0, r0, #192	@ 0xc0
  401b1c:	e129f000 	msr	CPSR_fc, r0
  401b20:	e8bd0001 	ldmfd	sp!, {r0}
  401b24:	eafffffe 	b	401b24 <vTaskRemoveFromUnorderedEventList+0x24>
  401b28:	e3811102 	orr	r1, r1, #-2147483648	@ 0x80000000
  401b2c:	e5801000 	str	r1, [r0]
  401b30:	e590200c 	ldr	r2, [r0, #12]
  401b34:	e3520000 	cmp	r2, #0
  401b38:	0a00003c 	beq	401c30 <vTaskRemoveFromUnorderedEventList+0x130>
  401b3c:	e5903010 	ldr	r3, [r0, #16]
  401b40:	e590c004 	ldr	ip, [r0, #4]
  401b44:	e5901008 	ldr	r1, [r0, #8]
  401b48:	e58c1008 	str	r1, [ip, #8]
  401b4c:	e590c004 	ldr	ip, [r0, #4]
  401b50:	e581c004 	str	ip, [r1, #4]
  401b54:	e5931004 	ldr	r1, [r3, #4]
  401b58:	e1510000 	cmp	r1, r0
  401b5c:	0a000039 	beq	401c48 <vTaskRemoveFromUnorderedEventList+0x148>
  401b60:	e3a01000 	mov	r1, #0
  401b64:	e5801010 	str	r1, [r0, #16]
  401b68:	e5931000 	ldr	r1, [r3]
  401b6c:	e2411001 	sub	r1, r1, #1
  401b70:	e5831000 	str	r1, [r3]
  401b74:	e5923014 	ldr	r3, [r2, #20]
  401b78:	e5920008 	ldr	r0, [r2, #8]
  401b7c:	e592100c 	ldr	r1, [r2, #12]
  401b80:	e5801008 	str	r1, [r0, #8]
  401b84:	e5920008 	ldr	r0, [r2, #8]
  401b88:	e5810004 	str	r0, [r1, #4]
  401b8c:	e5931004 	ldr	r1, [r3, #4]
  401b90:	e2820004 	add	r0, r2, #4
  401b94:	e1510000 	cmp	r1, r0
  401b98:	0a00002d 	beq	401c54 <vTaskRemoveFromUnorderedEventList+0x154>
  401b9c:	e3a01000 	mov	r1, #0
  401ba0:	e5821014 	str	r1, [r2, #20]
  401ba4:	e5931000 	ldr	r1, [r3]
  401ba8:	e2411001 	sub	r1, r1, #1
  401bac:	e5831000 	str	r1, [r3]
  401bb0:	e592302c 	ldr	r3, [r2, #44]	@ 0x2c
  401bb4:	e59f10a4 	ldr	r1, [pc, #164]	@ 401c60 <vTaskRemoveFromUnorderedEventList+0x160>
  401bb8:	e59110e4 	ldr	r1, [r1, #228]	@ 0xe4
  401bbc:	e1530001 	cmp	r3, r1
  401bc0:	859f1098 	ldrhi	r1, [pc, #152]	@ 401c60 <vTaskRemoveFromUnorderedEventList+0x160>
  401bc4:	858130e4 	strhi	r3, [r1, #228]	@ 0xe4
  401bc8:	e59f1090 	ldr	r1, [pc, #144]	@ 401c60 <vTaskRemoveFromUnorderedEventList+0x160>
  401bcc:	e0833103 	add	r3, r3, r3, lsl #2
  401bd0:	e0813103 	add	r3, r1, r3, lsl #2
  401bd4:	e5933034 	ldr	r3, [r3, #52]	@ 0x34
  401bd8:	e5823008 	str	r3, [r2, #8]
  401bdc:	e593c008 	ldr	ip, [r3, #8]
  401be0:	e582c00c 	str	ip, [r2, #12]
  401be4:	e58c0004 	str	r0, [ip, #4]
  401be8:	e5830008 	str	r0, [r3, #8]
  401bec:	e592302c 	ldr	r3, [r2, #44]	@ 0x2c
  401bf0:	e2810030 	add	r0, r1, #48	@ 0x30
  401bf4:	e083c103 	add	ip, r3, r3, lsl #2
  401bf8:	e080010c 	add	r0, r0, ip, lsl #2
  401bfc:	e5820014 	str	r0, [r2, #20]
  401c00:	e081010c 	add	r0, r1, ip, lsl #2
  401c04:	e5900030 	ldr	r0, [r0, #48]	@ 0x30
  401c08:	e2800001 	add	r0, r0, #1
  401c0c:	e081310c 	add	r3, r1, ip, lsl #2
  401c10:	e5830030 	str	r0, [r3, #48]	@ 0x30
  401c14:	e592202c 	ldr	r2, [r2, #44]	@ 0x2c
  401c18:	e59130d8 	ldr	r3, [r1, #216]	@ 0xd8
  401c1c:	e593302c 	ldr	r3, [r3, #44]	@ 0x2c
  401c20:	e1520003 	cmp	r2, r3
  401c24:	83a02001 	movhi	r2, #1
  401c28:	858120f8 	strhi	r2, [r1, #248]	@ 0xf8
  401c2c:	e12fff1e 	bx	lr
  401c30:	e92d0001 	stmfd	sp!, {r0}
  401c34:	e10f0000 	mrs	r0, CPSR
  401c38:	e38000c0 	orr	r0, r0, #192	@ 0xc0
  401c3c:	e129f000 	msr	CPSR_fc, r0
  401c40:	e8bd0001 	ldmfd	sp!, {r0}
  401c44:	eafffffe 	b	401c44 <vTaskRemoveFromUnorderedEventList+0x144>
  401c48:	e5901008 	ldr	r1, [r0, #8]
  401c4c:	e5831004 	str	r1, [r3, #4]
  401c50:	eaffffc2 	b	401b60 <vTaskRemoveFromUnorderedEventList+0x60>
  401c54:	e592100c 	ldr	r1, [r2, #12]
  401c58:	e5831004 	str	r1, [r3, #4]
  401c5c:	eaffffce 	b	401b9c <vTaskRemoveFromUnorderedEventList+0x9c>
  401c60:	00407980 	subeq	r7, r0, r0, lsl #19

00401c64 <vTaskSetTimeOutState>:
  401c64:	e92d4010 	push	{r4, lr}
  401c68:	e2504000 	subs	r4, r0, #0
  401c6c:	0a000008 	beq	401c94 <vTaskSetTimeOutState+0x30>
  401c70:	eb000613 	bl	4034c4 <itc_disable_ints>
  401c74:	e59f3030 	ldr	r3, [pc, #48]	@ 401cac <vTaskSetTimeOutState+0x48>
  401c78:	e59320fc 	ldr	r2, [r3, #252]	@ 0xfc
  401c7c:	e5842000 	str	r2, [r4]
  401c80:	e59330ec 	ldr	r3, [r3, #236]	@ 0xec
  401c84:	e5843004 	str	r3, [r4, #4]
  401c88:	eb000616 	bl	4034e8 <itc_restore_ints>
  401c8c:	e8bd4010 	pop	{r4, lr}
  401c90:	e12fff1e 	bx	lr
  401c94:	e92d0001 	stmfd	sp!, {r0}
  401c98:	e10f0000 	mrs	r0, CPSR
  401c9c:	e38000c0 	orr	r0, r0, #192	@ 0xc0
  401ca0:	e129f000 	msr	CPSR_fc, r0
  401ca4:	e8bd0001 	ldmfd	sp!, {r0}
  401ca8:	eafffffe 	b	401ca8 <vTaskSetTimeOutState+0x44>
  401cac:	00407980 	subeq	r7, r0, r0, lsl #19

00401cb0 <vTaskInternalSetTimeOutState>:
  401cb0:	e59f3010 	ldr	r3, [pc, #16]	@ 401cc8 <vTaskInternalSetTimeOutState+0x18>
  401cb4:	e59320fc 	ldr	r2, [r3, #252]	@ 0xfc
  401cb8:	e5802000 	str	r2, [r0]
  401cbc:	e59330ec 	ldr	r3, [r3, #236]	@ 0xec
  401cc0:	e5803004 	str	r3, [r0, #4]
  401cc4:	e12fff1e 	bx	lr
  401cc8:	00407980 	subeq	r7, r0, r0, lsl #19

00401ccc <xTaskCheckForTimeOut>:
  401ccc:	e92d4070 	push	{r4, r5, r6, lr}
  401cd0:	e2504000 	subs	r4, r0, #0
  401cd4:	0a000015 	beq	401d30 <xTaskCheckForTimeOut+0x64>
  401cd8:	e1a05001 	mov	r5, r1
  401cdc:	e3510000 	cmp	r1, #0
  401ce0:	0a000018 	beq	401d48 <xTaskCheckForTimeOut+0x7c>
  401ce4:	eb0005f6 	bl	4034c4 <itc_disable_ints>
  401ce8:	e59f30b4 	ldr	r3, [pc, #180]	@ 401da4 <xTaskCheckForTimeOut+0xd8>
  401cec:	e59310ec 	ldr	r1, [r3, #236]	@ 0xec
  401cf0:	e5943004 	ldr	r3, [r4, #4]
  401cf4:	e0410003 	sub	r0, r1, r3
  401cf8:	e5952000 	ldr	r2, [r5]
  401cfc:	e3720001 	cmn	r2, #1
  401d00:	0a000022 	beq	401d90 <xTaskCheckForTimeOut+0xc4>
  401d04:	e594e000 	ldr	lr, [r4]
  401d08:	e59fc094 	ldr	ip, [pc, #148]	@ 401da4 <xTaskCheckForTimeOut+0xd8>
  401d0c:	e59cc0fc 	ldr	ip, [ip, #252]	@ 0xfc
  401d10:	e15e000c 	cmp	lr, ip
  401d14:	0a000011 	beq	401d60 <xTaskCheckForTimeOut+0x94>
  401d18:	e1530001 	cmp	r3, r1
  401d1c:	8a00000f 	bhi	401d60 <xTaskCheckForTimeOut+0x94>
  401d20:	e3a03000 	mov	r3, #0
  401d24:	e5853000 	str	r3, [r5]
  401d28:	e3a04001 	mov	r4, #1
  401d2c:	ea000018 	b	401d94 <xTaskCheckForTimeOut+0xc8>
  401d30:	e92d0001 	stmfd	sp!, {r0}
  401d34:	e10f0000 	mrs	r0, CPSR
  401d38:	e38000c0 	orr	r0, r0, #192	@ 0xc0
  401d3c:	e129f000 	msr	CPSR_fc, r0
  401d40:	e8bd0001 	ldmfd	sp!, {r0}
  401d44:	eafffffe 	b	401d44 <xTaskCheckForTimeOut+0x78>
  401d48:	e92d0001 	stmfd	sp!, {r0}
  401d4c:	e10f0000 	mrs	r0, CPSR
  401d50:	e38000c0 	orr	r0, r0, #192	@ 0xc0
  401d54:	e129f000 	msr	CPSR_fc, r0
  401d58:	e8bd0001 	ldmfd	sp!, {r0}
  401d5c:	eafffffe 	b	401d5c <xTaskCheckForTimeOut+0x90>
  401d60:	e1520000 	cmp	r2, r0
  401d64:	93a03000 	movls	r3, #0
  401d68:	95853000 	strls	r3, [r5]
  401d6c:	93a04001 	movls	r4, #1
  401d70:	9a000007 	bls	401d94 <xTaskCheckForTimeOut+0xc8>
  401d74:	e0433001 	sub	r3, r3, r1
  401d78:	e0833002 	add	r3, r3, r2
  401d7c:	e5853000 	str	r3, [r5]
  401d80:	e1a00004 	mov	r0, r4
  401d84:	ebffffc9 	bl	401cb0 <vTaskInternalSetTimeOutState>
  401d88:	e3a04000 	mov	r4, #0
  401d8c:	ea000000 	b	401d94 <xTaskCheckForTimeOut+0xc8>
  401d90:	e3a04000 	mov	r4, #0
  401d94:	eb0005d3 	bl	4034e8 <itc_restore_ints>
  401d98:	e1a00004 	mov	r0, r4
  401d9c:	e8bd4070 	pop	{r4, r5, r6, lr}
  401da0:	e12fff1e 	bx	lr
  401da4:	00407980 	subeq	r7, r0, r0, lsl #19

00401da8 <vTaskMissedYield>:
  401da8:	e59f3008 	ldr	r3, [pc, #8]	@ 401db8 <vTaskMissedYield+0x10>
  401dac:	e3a02001 	mov	r2, #1
  401db0:	e58320f8 	str	r2, [r3, #248]	@ 0xf8
  401db4:	e12fff1e 	bx	lr
  401db8:	00407980 	subeq	r7, r0, r0, lsl #19

00401dbc <xTaskGetCurrentTaskHandle>:
  401dbc:	e59f3004 	ldr	r3, [pc, #4]	@ 401dc8 <xTaskGetCurrentTaskHandle+0xc>
  401dc0:	e59300d8 	ldr	r0, [r3, #216]	@ 0xd8
  401dc4:	e12fff1e 	bx	lr
  401dc8:	00407980 	subeq	r7, r0, r0, lsl #19

00401dcc <xTaskGetCurrentTaskHandleForCore>:
  401dcc:	e3500000 	cmp	r0, #0
  401dd0:	1a000002 	bne	401de0 <xTaskGetCurrentTaskHandleForCore+0x14>
  401dd4:	e59f300c 	ldr	r3, [pc, #12]	@ 401de8 <xTaskGetCurrentTaskHandleForCore+0x1c>
  401dd8:	e59300d8 	ldr	r0, [r3, #216]	@ 0xd8
  401ddc:	e12fff1e 	bx	lr
  401de0:	e3a00000 	mov	r0, #0
  401de4:	e12fff1e 	bx	lr
  401de8:	00407980 	subeq	r7, r0, r0, lsl #19

00401dec <xTaskGetSchedulerState>:
  401dec:	e59f3030 	ldr	r3, [pc, #48]	@ 401e24 <xTaskGetSchedulerState+0x38>
  401df0:	e59330dc 	ldr	r3, [r3, #220]	@ 0xdc
  401df4:	e3530000 	cmp	r3, #0
  401df8:	0a000007 	beq	401e1c <xTaskGetSchedulerState+0x30>
  401dfc:	e59f3020 	ldr	r3, [pc, #32]	@ 401e24 <xTaskGetSchedulerState+0x38>
  401e00:	e59330f4 	ldr	r3, [r3, #244]	@ 0xf4
  401e04:	e3530000 	cmp	r3, #0
  401e08:	0a000001 	beq	401e14 <xTaskGetSchedulerState+0x28>
  401e0c:	e3a00000 	mov	r0, #0
  401e10:	e12fff1e 	bx	lr
  401e14:	e3a00002 	mov	r0, #2
  401e18:	e12fff1e 	bx	lr
  401e1c:	e3a00001 	mov	r0, #1
  401e20:	e12fff1e 	bx	lr
  401e24:	00407980 	subeq	r7, r0, r0, lsl #19

00401e28 <xTaskPriorityInherit>:
  401e28:	e92d4070 	push	{r4, r5, r6, lr}
  401e2c:	e2504000 	subs	r4, r0, #0
  401e30:	0a000041 	beq	401f3c <xTaskPriorityInherit+0x114>
  401e34:	e594302c 	ldr	r3, [r4, #44]	@ 0x2c
  401e38:	e59f2110 	ldr	r2, [pc, #272]	@ 401f50 <xTaskPriorityInherit+0x128>
  401e3c:	e59220d8 	ldr	r2, [r2, #216]	@ 0xd8
  401e40:	e592202c 	ldr	r2, [r2, #44]	@ 0x2c
  401e44:	e1530002 	cmp	r3, r2
  401e48:	2a000033 	bcs	401f1c <xTaskPriorityInherit+0xf4>
  401e4c:	e5942018 	ldr	r2, [r4, #24]
  401e50:	e3520000 	cmp	r2, #0
  401e54:	ba000004 	blt	401e6c <xTaskPriorityInherit+0x44>
  401e58:	e59f20f0 	ldr	r2, [pc, #240]	@ 401f50 <xTaskPriorityInherit+0x128>
  401e5c:	e59220d8 	ldr	r2, [r2, #216]	@ 0xd8
  401e60:	e592202c 	ldr	r2, [r2, #44]	@ 0x2c
  401e64:	e2622005 	rsb	r2, r2, #5
  401e68:	e5842018 	str	r2, [r4, #24]
  401e6c:	e5941014 	ldr	r1, [r4, #20]
  401e70:	e0833103 	add	r3, r3, r3, lsl #2
  401e74:	e59f20d8 	ldr	r2, [pc, #216]	@ 401f54 <xTaskPriorityInherit+0x12c>
  401e78:	e0823103 	add	r3, r2, r3, lsl #2
  401e7c:	e1510003 	cmp	r1, r3
  401e80:	0a000005 	beq	401e9c <xTaskPriorityInherit+0x74>
  401e84:	e59f30c4 	ldr	r3, [pc, #196]	@ 401f50 <xTaskPriorityInherit+0x128>
  401e88:	e59330d8 	ldr	r3, [r3, #216]	@ 0xd8
  401e8c:	e593302c 	ldr	r3, [r3, #44]	@ 0x2c
  401e90:	e584302c 	str	r3, [r4, #44]	@ 0x2c
  401e94:	e3a00001 	mov	r0, #1
  401e98:	ea000028 	b	401f40 <xTaskPriorityInherit+0x118>
  401e9c:	e2845004 	add	r5, r4, #4
  401ea0:	e1a00005 	mov	r0, r5
  401ea4:	eb0004b8 	bl	40318c <uxListRemove>
  401ea8:	e59f20a0 	ldr	r2, [pc, #160]	@ 401f50 <xTaskPriorityInherit+0x128>
  401eac:	e59230d8 	ldr	r3, [r2, #216]	@ 0xd8
  401eb0:	e593302c 	ldr	r3, [r3, #44]	@ 0x2c
  401eb4:	e584302c 	str	r3, [r4, #44]	@ 0x2c
  401eb8:	e59220e4 	ldr	r2, [r2, #228]	@ 0xe4
  401ebc:	e1530002 	cmp	r3, r2
  401ec0:	859f2088 	ldrhi	r2, [pc, #136]	@ 401f50 <xTaskPriorityInherit+0x128>
  401ec4:	858230e4 	strhi	r3, [r2, #228]	@ 0xe4
  401ec8:	e59f2080 	ldr	r2, [pc, #128]	@ 401f50 <xTaskPriorityInherit+0x128>
  401ecc:	e0833103 	add	r3, r3, r3, lsl #2
  401ed0:	e0823103 	add	r3, r2, r3, lsl #2
  401ed4:	e5933034 	ldr	r3, [r3, #52]	@ 0x34
  401ed8:	e5843008 	str	r3, [r4, #8]
  401edc:	e5931008 	ldr	r1, [r3, #8]
  401ee0:	e584100c 	str	r1, [r4, #12]
  401ee4:	e5815004 	str	r5, [r1, #4]
  401ee8:	e5835008 	str	r5, [r3, #8]
  401eec:	e594302c 	ldr	r3, [r4, #44]	@ 0x2c
  401ef0:	e2821030 	add	r1, r2, #48	@ 0x30
  401ef4:	e0830103 	add	r0, r3, r3, lsl #2
  401ef8:	e0811100 	add	r1, r1, r0, lsl #2
  401efc:	e5841014 	str	r1, [r4, #20]
  401f00:	e0821100 	add	r1, r2, r0, lsl #2
  401f04:	e5911030 	ldr	r1, [r1, #48]	@ 0x30
  401f08:	e2811001 	add	r1, r1, #1
  401f0c:	e0822100 	add	r2, r2, r0, lsl #2
  401f10:	e5821030 	str	r1, [r2, #48]	@ 0x30
  401f14:	e3a00001 	mov	r0, #1
  401f18:	ea000008 	b	401f40 <xTaskPriorityInherit+0x118>
  401f1c:	e5942044 	ldr	r2, [r4, #68]	@ 0x44
  401f20:	e59f3028 	ldr	r3, [pc, #40]	@ 401f50 <xTaskPriorityInherit+0x128>
  401f24:	e59330d8 	ldr	r3, [r3, #216]	@ 0xd8
  401f28:	e593302c 	ldr	r3, [r3, #44]	@ 0x2c
  401f2c:	e1520003 	cmp	r2, r3
  401f30:	3a000004 	bcc	401f48 <xTaskPriorityInherit+0x120>
  401f34:	e3a00000 	mov	r0, #0
  401f38:	ea000000 	b	401f40 <xTaskPriorityInherit+0x118>
  401f3c:	e3a00000 	mov	r0, #0
  401f40:	e8bd4070 	pop	{r4, r5, r6, lr}
  401f44:	e12fff1e 	bx	lr
  401f48:	e3a00001 	mov	r0, #1
  401f4c:	eafffffb 	b	401f40 <xTaskPriorityInherit+0x118>
  401f50:	00407980 	subeq	r7, r0, r0, lsl #19
  401f54:	004079b0 	strheq	r7, [r0], #-144	@ 0xffffff70

00401f58 <xTaskPriorityDisinherit>:
  401f58:	e92d4070 	push	{r4, r5, r6, lr}
  401f5c:	e2504000 	subs	r4, r0, #0
  401f60:	0a00003c 	beq	402058 <xTaskPriorityDisinherit+0x100>
  401f64:	e59f3100 	ldr	r3, [pc, #256]	@ 40206c <xTaskPriorityDisinherit+0x114>
  401f68:	e59330d8 	ldr	r3, [r3, #216]	@ 0xd8
  401f6c:	e1530004 	cmp	r3, r4
  401f70:	0a000005 	beq	401f8c <xTaskPriorityDisinherit+0x34>
  401f74:	e92d0001 	stmfd	sp!, {r0}
  401f78:	e10f0000 	mrs	r0, CPSR
  401f7c:	e38000c0 	orr	r0, r0, #192	@ 0xc0
  401f80:	e129f000 	msr	CPSR_fc, r0
  401f84:	e8bd0001 	ldmfd	sp!, {r0}
  401f88:	eafffffe 	b	401f88 <xTaskPriorityDisinherit+0x30>
  401f8c:	e5943048 	ldr	r3, [r4, #72]	@ 0x48
  401f90:	e3530000 	cmp	r3, #0
  401f94:	1a000005 	bne	401fb0 <xTaskPriorityDisinherit+0x58>
  401f98:	e92d0001 	stmfd	sp!, {r0}
  401f9c:	e10f0000 	mrs	r0, CPSR
  401fa0:	e38000c0 	orr	r0, r0, #192	@ 0xc0
  401fa4:	e129f000 	msr	CPSR_fc, r0
  401fa8:	e8bd0001 	ldmfd	sp!, {r0}
  401fac:	eafffffe 	b	401fac <xTaskPriorityDisinherit+0x54>
  401fb0:	e2433001 	sub	r3, r3, #1
  401fb4:	e5843048 	str	r3, [r4, #72]	@ 0x48
  401fb8:	e594102c 	ldr	r1, [r4, #44]	@ 0x2c
  401fbc:	e5942044 	ldr	r2, [r4, #68]	@ 0x44
  401fc0:	e1510002 	cmp	r1, r2
  401fc4:	0a000026 	beq	402064 <xTaskPriorityDisinherit+0x10c>
  401fc8:	e3530000 	cmp	r3, #0
  401fcc:	13a00000 	movne	r0, #0
  401fd0:	1a000021 	bne	40205c <xTaskPriorityDisinherit+0x104>
  401fd4:	e2845004 	add	r5, r4, #4
  401fd8:	e1a00005 	mov	r0, r5
  401fdc:	eb00046a 	bl	40318c <uxListRemove>
  401fe0:	e5943044 	ldr	r3, [r4, #68]	@ 0x44
  401fe4:	e584302c 	str	r3, [r4, #44]	@ 0x2c
  401fe8:	e2632005 	rsb	r2, r3, #5
  401fec:	e5842018 	str	r2, [r4, #24]
  401ff0:	e59f2074 	ldr	r2, [pc, #116]	@ 40206c <xTaskPriorityDisinherit+0x114>
  401ff4:	e59220e4 	ldr	r2, [r2, #228]	@ 0xe4
  401ff8:	e1530002 	cmp	r3, r2
  401ffc:	859f2068 	ldrhi	r2, [pc, #104]	@ 40206c <xTaskPriorityDisinherit+0x114>
  402000:	858230e4 	strhi	r3, [r2, #228]	@ 0xe4
  402004:	e59f2060 	ldr	r2, [pc, #96]	@ 40206c <xTaskPriorityDisinherit+0x114>
  402008:	e0833103 	add	r3, r3, r3, lsl #2
  40200c:	e0823103 	add	r3, r2, r3, lsl #2
  402010:	e5933034 	ldr	r3, [r3, #52]	@ 0x34
  402014:	e5843008 	str	r3, [r4, #8]
  402018:	e5931008 	ldr	r1, [r3, #8]
  40201c:	e584100c 	str	r1, [r4, #12]
  402020:	e5815004 	str	r5, [r1, #4]
  402024:	e5835008 	str	r5, [r3, #8]
  402028:	e594302c 	ldr	r3, [r4, #44]	@ 0x2c
  40202c:	e2821030 	add	r1, r2, #48	@ 0x30
  402030:	e0830103 	add	r0, r3, r3, lsl #2
  402034:	e0811100 	add	r1, r1, r0, lsl #2
  402038:	e5841014 	str	r1, [r4, #20]
  40203c:	e0821100 	add	r1, r2, r0, lsl #2
  402040:	e5911030 	ldr	r1, [r1, #48]	@ 0x30
  402044:	e2811001 	add	r1, r1, #1
  402048:	e0822100 	add	r2, r2, r0, lsl #2
  40204c:	e5821030 	str	r1, [r2, #48]	@ 0x30
  402050:	e3a00001 	mov	r0, #1
  402054:	ea000000 	b	40205c <xTaskPriorityDisinherit+0x104>
  402058:	e3a00000 	mov	r0, #0
  40205c:	e8bd4070 	pop	{r4, r5, r6, lr}
  402060:	e12fff1e 	bx	lr
  402064:	e3a00000 	mov	r0, #0
  402068:	eafffffb 	b	40205c <xTaskPriorityDisinherit+0x104>
  40206c:	00407980 	subeq	r7, r0, r0, lsl #19

00402070 <vTaskPriorityDisinheritAfterTimeout>:
  402070:	e92d4070 	push	{r4, r5, r6, lr}
  402074:	e2504000 	subs	r4, r0, #0
  402078:	0a000010 	beq	4020c0 <vTaskPriorityDisinheritAfterTimeout+0x50>
  40207c:	e5943048 	ldr	r3, [r4, #72]	@ 0x48
  402080:	e3530000 	cmp	r3, #0
  402084:	1a000005 	bne	4020a0 <vTaskPriorityDisinheritAfterTimeout+0x30>
  402088:	e92d0001 	stmfd	sp!, {r0}
  40208c:	e10f0000 	mrs	r0, CPSR
  402090:	e38000c0 	orr	r0, r0, #192	@ 0xc0
  402094:	e129f000 	msr	CPSR_fc, r0
  402098:	e8bd0001 	ldmfd	sp!, {r0}
  40209c:	eafffffe 	b	40209c <vTaskPriorityDisinheritAfterTimeout+0x2c>
  4020a0:	e5942044 	ldr	r2, [r4, #68]	@ 0x44
  4020a4:	e1520001 	cmp	r2, r1
  4020a8:	31a02001 	movcc	r2, r1
  4020ac:	e594102c 	ldr	r1, [r4, #44]	@ 0x2c
  4020b0:	e1510002 	cmp	r1, r2
  4020b4:	0a000001 	beq	4020c0 <vTaskPriorityDisinheritAfterTimeout+0x50>
  4020b8:	e3530001 	cmp	r3, #1
  4020bc:	0a000001 	beq	4020c8 <vTaskPriorityDisinheritAfterTimeout+0x58>
  4020c0:	e8bd4070 	pop	{r4, r5, r6, lr}
  4020c4:	e12fff1e 	bx	lr
  4020c8:	e59f30c0 	ldr	r3, [pc, #192]	@ 402190 <vTaskPriorityDisinheritAfterTimeout+0x120>
  4020cc:	e59330d8 	ldr	r3, [r3, #216]	@ 0xd8
  4020d0:	e1530004 	cmp	r3, r4
  4020d4:	0a000027 	beq	402178 <vTaskPriorityDisinheritAfterTimeout+0x108>
  4020d8:	e584202c 	str	r2, [r4, #44]	@ 0x2c
  4020dc:	e5943018 	ldr	r3, [r4, #24]
  4020e0:	e3530000 	cmp	r3, #0
  4020e4:	a2622005 	rsbge	r2, r2, #5
  4020e8:	a5842018 	strge	r2, [r4, #24]
  4020ec:	e5942014 	ldr	r2, [r4, #20]
  4020f0:	e0811101 	add	r1, r1, r1, lsl #2
  4020f4:	e59f3098 	ldr	r3, [pc, #152]	@ 402194 <vTaskPriorityDisinheritAfterTimeout+0x124>
  4020f8:	e0833101 	add	r3, r3, r1, lsl #2
  4020fc:	e1520003 	cmp	r2, r3
  402100:	1affffee 	bne	4020c0 <vTaskPriorityDisinheritAfterTimeout+0x50>
  402104:	e2845004 	add	r5, r4, #4
  402108:	e1a00005 	mov	r0, r5
  40210c:	eb00041e 	bl	40318c <uxListRemove>
  402110:	e594302c 	ldr	r3, [r4, #44]	@ 0x2c
  402114:	e59f2074 	ldr	r2, [pc, #116]	@ 402190 <vTaskPriorityDisinheritAfterTimeout+0x120>
  402118:	e59220e4 	ldr	r2, [r2, #228]	@ 0xe4
  40211c:	e1530002 	cmp	r3, r2
  402120:	859f2068 	ldrhi	r2, [pc, #104]	@ 402190 <vTaskPriorityDisinheritAfterTimeout+0x120>
  402124:	858230e4 	strhi	r3, [r2, #228]	@ 0xe4
  402128:	e59f2060 	ldr	r2, [pc, #96]	@ 402190 <vTaskPriorityDisinheritAfterTimeout+0x120>
  40212c:	e0833103 	add	r3, r3, r3, lsl #2
  402130:	e0823103 	add	r3, r2, r3, lsl #2
  402134:	e5933034 	ldr	r3, [r3, #52]	@ 0x34
  402138:	e5843008 	str	r3, [r4, #8]
  40213c:	e5931008 	ldr	r1, [r3, #8]
  402140:	e584100c 	str	r1, [r4, #12]
  402144:	e5815004 	str	r5, [r1, #4]
  402148:	e5835008 	str	r5, [r3, #8]
  40214c:	e594302c 	ldr	r3, [r4, #44]	@ 0x2c
  402150:	e2821030 	add	r1, r2, #48	@ 0x30
  402154:	e0830103 	add	r0, r3, r3, lsl #2
  402158:	e0811100 	add	r1, r1, r0, lsl #2
  40215c:	e5841014 	str	r1, [r4, #20]
  402160:	e0821100 	add	r1, r2, r0, lsl #2
  402164:	e5911030 	ldr	r1, [r1, #48]	@ 0x30
  402168:	e2811001 	add	r1, r1, #1
  40216c:	e0822100 	add	r2, r2, r0, lsl #2
  402170:	e5821030 	str	r1, [r2, #48]	@ 0x30
  402174:	eaffffd1 	b	4020c0 <vTaskPriorityDisinheritAfterTimeout+0x50>
  402178:	e92d0001 	stmfd	sp!, {r0}
  40217c:	e10f0000 	mrs	r0, CPSR
  402180:	e38000c0 	orr	r0, r0, #192	@ 0xc0
  402184:	e129f000 	msr	CPSR_fc, r0
  402188:	e8bd0001 	ldmfd	sp!, {r0}
  40218c:	eafffffe 	b	40218c <vTaskPriorityDisinheritAfterTimeout+0x11c>
  402190:	00407980 	subeq	r7, r0, r0, lsl #19
  402194:	004079b0 	strheq	r7, [r0], #-144	@ 0xffffff70

00402198 <uxTaskResetEventItemValue>:
  402198:	e59f201c 	ldr	r2, [pc, #28]	@ 4021bc <uxTaskResetEventItemValue+0x24>
  40219c:	e59230d8 	ldr	r3, [r2, #216]	@ 0xd8
  4021a0:	e5930018 	ldr	r0, [r3, #24]
  4021a4:	e59230d8 	ldr	r3, [r2, #216]	@ 0xd8
  4021a8:	e593302c 	ldr	r3, [r3, #44]	@ 0x2c
  4021ac:	e59220d8 	ldr	r2, [r2, #216]	@ 0xd8
  4021b0:	e2633005 	rsb	r3, r3, #5
  4021b4:	e5823018 	str	r3, [r2, #24]
  4021b8:	e12fff1e 	bx	lr
  4021bc:	00407980 	subeq	r7, r0, r0, lsl #19

004021c0 <pvTaskIncrementMutexHeldCount>:
  4021c0:	e59f3018 	ldr	r3, [pc, #24]	@ 4021e0 <pvTaskIncrementMutexHeldCount+0x20>
  4021c4:	e59300d8 	ldr	r0, [r3, #216]	@ 0xd8
  4021c8:	e3500000 	cmp	r0, #0
  4021cc:	012fff1e 	bxeq	lr
  4021d0:	e5903048 	ldr	r3, [r0, #72]	@ 0x48
  4021d4:	e2833001 	add	r3, r3, #1
  4021d8:	e5803048 	str	r3, [r0, #72]	@ 0x48
  4021dc:	e12fff1e 	bx	lr
  4021e0:	00407980 	subeq	r7, r0, r0, lsl #19

004021e4 <ulTaskGenericNotifyTake>:
  4021e4:	e92d4070 	push	{r4, r5, r6, lr}
  4021e8:	e2504000 	subs	r4, r0, #0
  4021ec:	0a000005 	beq	402208 <ulTaskGenericNotifyTake+0x24>
  4021f0:	e92d0001 	stmfd	sp!, {r0}
  4021f4:	e10f0000 	mrs	r0, CPSR
  4021f8:	e38000c0 	orr	r0, r0, #192	@ 0xc0
  4021fc:	e129f000 	msr	CPSR_fc, r0
  402200:	e8bd0001 	ldmfd	sp!, {r0}
  402204:	eafffffe 	b	402204 <ulTaskGenericNotifyTake+0x20>
  402208:	e1a06001 	mov	r6, r1
  40220c:	e1a05002 	mov	r5, r2
  402210:	ebfffb4c 	bl	400f48 <vTaskSuspendAll>
  402214:	eb0004aa 	bl	4034c4 <itc_disable_ints>
  402218:	e59f30f0 	ldr	r3, [pc, #240]	@ 402310 <ulTaskGenericNotifyTake+0x12c>
  40221c:	e59330d8 	ldr	r3, [r3, #216]	@ 0xd8
  402220:	e2842012 	add	r2, r4, #18
  402224:	e0833102 	add	r3, r3, r2, lsl #2
  402228:	e5933004 	ldr	r3, [r3, #4]
  40222c:	e3530000 	cmp	r3, #0
  402230:	1a000026 	bne	4022d0 <ulTaskGenericNotifyTake+0xec>
  402234:	e59f30d4 	ldr	r3, [pc, #212]	@ 402310 <ulTaskGenericNotifyTake+0x12c>
  402238:	e59330d8 	ldr	r3, [r3, #216]	@ 0xd8
  40223c:	e0833004 	add	r3, r3, r4
  402240:	e3a02001 	mov	r2, #1
  402244:	e5c32050 	strb	r2, [r3, #80]	@ 0x50
  402248:	e3550000 	cmp	r5, #0
  40224c:	1a000022 	bne	4022dc <ulTaskGenericNotifyTake+0xf8>
  402250:	eb0004a4 	bl	4034e8 <itc_restore_ints>
  402254:	ebfffbef 	bl	401218 <xTaskResumeAll>
  402258:	e3500000 	cmp	r0, #0
  40225c:	13a03000 	movne	r3, #0
  402260:	02053001 	andeq	r3, r5, #1
  402264:	e3530000 	cmp	r3, #0
  402268:	0a000000 	beq	402270 <ulTaskGenericNotifyTake+0x8c>
  40226c:	ef000000 	svc	0x00000000
  402270:	eb000493 	bl	4034c4 <itc_disable_ints>
  402274:	e59f3094 	ldr	r3, [pc, #148]	@ 402310 <ulTaskGenericNotifyTake+0x12c>
  402278:	e59330d8 	ldr	r3, [r3, #216]	@ 0xd8
  40227c:	e2842012 	add	r2, r4, #18
  402280:	e0833102 	add	r3, r3, r2, lsl #2
  402284:	e5935004 	ldr	r5, [r3, #4]
  402288:	e3550000 	cmp	r5, #0
  40228c:	0a000006 	beq	4022ac <ulTaskGenericNotifyTake+0xc8>
  402290:	e3560000 	cmp	r6, #0
  402294:	0a000016 	beq	4022f4 <ulTaskGenericNotifyTake+0x110>
  402298:	e59f3070 	ldr	r3, [pc, #112]	@ 402310 <ulTaskGenericNotifyTake+0x12c>
  40229c:	e59330d8 	ldr	r3, [r3, #216]	@ 0xd8
  4022a0:	e0833102 	add	r3, r3, r2, lsl #2
  4022a4:	e3a02000 	mov	r2, #0
  4022a8:	e5832004 	str	r2, [r3, #4]
  4022ac:	e59f305c 	ldr	r3, [pc, #92]	@ 402310 <ulTaskGenericNotifyTake+0x12c>
  4022b0:	e59330d8 	ldr	r3, [r3, #216]	@ 0xd8
  4022b4:	e0833004 	add	r3, r3, r4
  4022b8:	e3a02000 	mov	r2, #0
  4022bc:	e5c32050 	strb	r2, [r3, #80]	@ 0x50
  4022c0:	eb000488 	bl	4034e8 <itc_restore_ints>
  4022c4:	e1a00005 	mov	r0, r5
  4022c8:	e8bd4070 	pop	{r4, r5, r6, lr}
  4022cc:	e12fff1e 	bx	lr
  4022d0:	eb000484 	bl	4034e8 <itc_restore_ints>
  4022d4:	e3a05000 	mov	r5, #0
  4022d8:	eaffffdd 	b	402254 <ulTaskGenericNotifyTake+0x70>
  4022dc:	eb000481 	bl	4034e8 <itc_restore_ints>
  4022e0:	e3a01001 	mov	r1, #1
  4022e4:	e1a00005 	mov	r0, r5
  4022e8:	ebfff921 	bl	400774 <prvAddCurrentTaskToDelayedList>
  4022ec:	e3a05001 	mov	r5, #1
  4022f0:	eaffffd7 	b	402254 <ulTaskGenericNotifyTake+0x70>
  4022f4:	e59f3014 	ldr	r3, [pc, #20]	@ 402310 <ulTaskGenericNotifyTake+0x12c>
  4022f8:	e59330d8 	ldr	r3, [r3, #216]	@ 0xd8
  4022fc:	e2452001 	sub	r2, r5, #1
  402300:	e2841012 	add	r1, r4, #18
  402304:	e0833101 	add	r3, r3, r1, lsl #2
  402308:	e5832004 	str	r2, [r3, #4]
  40230c:	eaffffe6 	b	4022ac <ulTaskGenericNotifyTake+0xc8>
  402310:	00407980 	subeq	r7, r0, r0, lsl #19

00402314 <xTaskGenericNotifyWait>:
  402314:	e92d41f0 	push	{r4, r5, r6, r7, r8, lr}
  402318:	e2504000 	subs	r4, r0, #0
  40231c:	0a000005 	beq	402338 <xTaskGenericNotifyWait+0x24>
  402320:	e92d0001 	stmfd	sp!, {r0}
  402324:	e10f0000 	mrs	r0, CPSR
  402328:	e38000c0 	orr	r0, r0, #192	@ 0xc0
  40232c:	e129f000 	msr	CPSR_fc, r0
  402330:	e8bd0001 	ldmfd	sp!, {r0}
  402334:	eafffffe 	b	402334 <xTaskGenericNotifyWait+0x20>
  402338:	e1a06001 	mov	r6, r1
  40233c:	e1a07002 	mov	r7, r2
  402340:	e1a05003 	mov	r5, r3
  402344:	ebfffaff 	bl	400f48 <vTaskSuspendAll>
  402348:	eb00045d 	bl	4034c4 <itc_disable_ints>
  40234c:	e59f3118 	ldr	r3, [pc, #280]	@ 40246c <xTaskGenericNotifyWait+0x158>
  402350:	e59330d8 	ldr	r3, [r3, #216]	@ 0xd8
  402354:	e0833004 	add	r3, r3, r4
  402358:	e5d33050 	ldrb	r3, [r3, #80]	@ 0x50
  40235c:	e3530002 	cmp	r3, #2
  402360:	0a00002f 	beq	402424 <xTaskGenericNotifyWait+0x110>
  402364:	e59f1100 	ldr	r1, [pc, #256]	@ 40246c <xTaskGenericNotifyWait+0x158>
  402368:	e59130d8 	ldr	r3, [r1, #216]	@ 0xd8
  40236c:	e2842012 	add	r2, r4, #18
  402370:	e0833102 	add	r3, r3, r2, lsl #2
  402374:	e5932004 	ldr	r2, [r3, #4]
  402378:	e1c22006 	bic	r2, r2, r6
  40237c:	e5832004 	str	r2, [r3, #4]
  402380:	e59130d8 	ldr	r3, [r1, #216]	@ 0xd8
  402384:	e0833004 	add	r3, r3, r4
  402388:	e3a02001 	mov	r2, #1
  40238c:	e5c32050 	strb	r2, [r3, #80]	@ 0x50
  402390:	e59d3018 	ldr	r3, [sp, #24]
  402394:	e3530000 	cmp	r3, #0
  402398:	1a000024 	bne	402430 <xTaskGenericNotifyWait+0x11c>
  40239c:	eb000451 	bl	4034e8 <itc_restore_ints>
  4023a0:	e3a06000 	mov	r6, #0
  4023a4:	ebfffb9b 	bl	401218 <xTaskResumeAll>
  4023a8:	e3500000 	cmp	r0, #0
  4023ac:	13a03000 	movne	r3, #0
  4023b0:	02063001 	andeq	r3, r6, #1
  4023b4:	e3530000 	cmp	r3, #0
  4023b8:	0a000000 	beq	4023c0 <xTaskGenericNotifyWait+0xac>
  4023bc:	ef000000 	svc	0x00000000
  4023c0:	eb00043f 	bl	4034c4 <itc_disable_ints>
  4023c4:	e3550000 	cmp	r5, #0
  4023c8:	0a000005 	beq	4023e4 <xTaskGenericNotifyWait+0xd0>
  4023cc:	e59f3098 	ldr	r3, [pc, #152]	@ 40246c <xTaskGenericNotifyWait+0x158>
  4023d0:	e59330d8 	ldr	r3, [r3, #216]	@ 0xd8
  4023d4:	e2842012 	add	r2, r4, #18
  4023d8:	e0833102 	add	r3, r3, r2, lsl #2
  4023dc:	e5933004 	ldr	r3, [r3, #4]
  4023e0:	e5853000 	str	r3, [r5]
  4023e4:	e59f3080 	ldr	r3, [pc, #128]	@ 40246c <xTaskGenericNotifyWait+0x158>
  4023e8:	e59330d8 	ldr	r3, [r3, #216]	@ 0xd8
  4023ec:	e0833004 	add	r3, r3, r4
  4023f0:	e5d33050 	ldrb	r3, [r3, #80]	@ 0x50
  4023f4:	e3530002 	cmp	r3, #2
  4023f8:	0a000012 	beq	402448 <xTaskGenericNotifyWait+0x134>
  4023fc:	e3a05000 	mov	r5, #0
  402400:	e59f3064 	ldr	r3, [pc, #100]	@ 40246c <xTaskGenericNotifyWait+0x158>
  402404:	e59330d8 	ldr	r3, [r3, #216]	@ 0xd8
  402408:	e0833004 	add	r3, r3, r4
  40240c:	e3a02000 	mov	r2, #0
  402410:	e5c32050 	strb	r2, [r3, #80]	@ 0x50
  402414:	eb000433 	bl	4034e8 <itc_restore_ints>
  402418:	e1a00005 	mov	r0, r5
  40241c:	e8bd41f0 	pop	{r4, r5, r6, r7, r8, lr}
  402420:	e12fff1e 	bx	lr
  402424:	eb00042f 	bl	4034e8 <itc_restore_ints>
  402428:	e3a06000 	mov	r6, #0
  40242c:	eaffffdc 	b	4023a4 <xTaskGenericNotifyWait+0x90>
  402430:	eb00042c 	bl	4034e8 <itc_restore_ints>
  402434:	e3a01001 	mov	r1, #1
  402438:	e59d0018 	ldr	r0, [sp, #24]
  40243c:	ebfff8cc 	bl	400774 <prvAddCurrentTaskToDelayedList>
  402440:	e3a06001 	mov	r6, #1
  402444:	eaffffd6 	b	4023a4 <xTaskGenericNotifyWait+0x90>
  402448:	e59f301c 	ldr	r3, [pc, #28]	@ 40246c <xTaskGenericNotifyWait+0x158>
  40244c:	e59330d8 	ldr	r3, [r3, #216]	@ 0xd8
  402450:	e2842012 	add	r2, r4, #18
  402454:	e0833102 	add	r3, r3, r2, lsl #2
  402458:	e5932004 	ldr	r2, [r3, #4]
  40245c:	e1c22007 	bic	r2, r2, r7
  402460:	e5832004 	str	r2, [r3, #4]
  402464:	e3a05001 	mov	r5, #1
  402468:	eaffffe4 	b	402400 <xTaskGenericNotifyWait+0xec>
  40246c:	00407980 	subeq	r7, r0, r0, lsl #19

00402470 <xTaskGenericNotify>:
  402470:	e92d41f0 	push	{r4, r5, r6, r7, r8, lr}
  402474:	e2514000 	subs	r4, r1, #0
  402478:	0a000005 	beq	402494 <xTaskGenericNotify+0x24>
  40247c:	e92d0001 	stmfd	sp!, {r0}
  402480:	e10f0000 	mrs	r0, CPSR
  402484:	e38000c0 	orr	r0, r0, #192	@ 0xc0
  402488:	e129f000 	msr	CPSR_fc, r0
  40248c:	e8bd0001 	ldmfd	sp!, {r0}
  402490:	eafffffe 	b	402490 <xTaskGenericNotify+0x20>
  402494:	e1a05000 	mov	r5, r0
  402498:	e1a07002 	mov	r7, r2
  40249c:	e1a06003 	mov	r6, r3
  4024a0:	e3500000 	cmp	r0, #0
  4024a4:	0a000015 	beq	402500 <xTaskGenericNotify+0x90>
  4024a8:	eb000405 	bl	4034c4 <itc_disable_ints>
  4024ac:	e59d3018 	ldr	r3, [sp, #24]
  4024b0:	e3530000 	cmp	r3, #0
  4024b4:	0a000004 	beq	4024cc <xTaskGenericNotify+0x5c>
  4024b8:	e2843012 	add	r3, r4, #18
  4024bc:	e0853103 	add	r3, r5, r3, lsl #2
  4024c0:	e5933004 	ldr	r3, [r3, #4]
  4024c4:	e59d2018 	ldr	r2, [sp, #24]
  4024c8:	e5823000 	str	r3, [r2]
  4024cc:	e0853004 	add	r3, r5, r4
  4024d0:	e5d32050 	ldrb	r2, [r3, #80]	@ 0x50
  4024d4:	e20220ff 	and	r2, r2, #255	@ 0xff
  4024d8:	e3a01002 	mov	r1, #2
  4024dc:	e5c31050 	strb	r1, [r3, #80]	@ 0x50
  4024e0:	e3560004 	cmp	r6, #4
  4024e4:	979ff106 	ldrls	pc, [pc, r6, lsl #2]
  4024e8:	ea000026 	b	402588 <xTaskGenericNotify+0x118>
  4024ec:	0040252c 	subeq	r2, r0, ip, lsr #10
  4024f0:	00402518 	subeq	r2, r0, r8, lsl r5
  4024f4:	00402548 	subeq	r2, r0, r8, asr #10
  4024f8:	00402560 	subeq	r2, r0, r0, ror #10
  4024fc:	00402570 	subeq	r2, r0, r0, ror r5
  402500:	e92d0001 	stmfd	sp!, {r0}
  402504:	e10f0000 	mrs	r0, CPSR
  402508:	e38000c0 	orr	r0, r0, #192	@ 0xc0
  40250c:	e129f000 	msr	CPSR_fc, r0
  402510:	e8bd0001 	ldmfd	sp!, {r0}
  402514:	eafffffe 	b	402514 <xTaskGenericNotify+0xa4>
  402518:	e2843012 	add	r3, r4, #18
  40251c:	e0853103 	add	r3, r5, r3, lsl #2
  402520:	e5931004 	ldr	r1, [r3, #4]
  402524:	e1811007 	orr	r1, r1, r7
  402528:	e5831004 	str	r1, [r3, #4]
  40252c:	e3520001 	cmp	r2, #1
  402530:	0a00001e 	beq	4025b0 <xTaskGenericNotify+0x140>
  402534:	e3a04001 	mov	r4, #1
  402538:	eb0003ea 	bl	4034e8 <itc_restore_ints>
  40253c:	e1a00004 	mov	r0, r4
  402540:	e8bd41f0 	pop	{r4, r5, r6, r7, r8, lr}
  402544:	e12fff1e 	bx	lr
  402548:	e2843012 	add	r3, r4, #18
  40254c:	e0853103 	add	r3, r5, r3, lsl #2
  402550:	e5931004 	ldr	r1, [r3, #4]
  402554:	e2811001 	add	r1, r1, #1
  402558:	e5831004 	str	r1, [r3, #4]
  40255c:	eafffff2 	b	40252c <xTaskGenericNotify+0xbc>
  402560:	e2843012 	add	r3, r4, #18
  402564:	e0853103 	add	r3, r5, r3, lsl #2
  402568:	e5837004 	str	r7, [r3, #4]
  40256c:	eaffffee 	b	40252c <xTaskGenericNotify+0xbc>
  402570:	e3520002 	cmp	r2, #2
  402574:	0a00004a 	beq	4026a4 <xTaskGenericNotify+0x234>
  402578:	e2843012 	add	r3, r4, #18
  40257c:	e0853103 	add	r3, r5, r3, lsl #2
  402580:	e5837004 	str	r7, [r3, #4]
  402584:	eaffffe8 	b	40252c <xTaskGenericNotify+0xbc>
  402588:	e59f3124 	ldr	r3, [pc, #292]	@ 4026b4 <xTaskGenericNotify+0x244>
  40258c:	e59330ec 	ldr	r3, [r3, #236]	@ 0xec
  402590:	e3530000 	cmp	r3, #0
  402594:	0affffe4 	beq	40252c <xTaskGenericNotify+0xbc>
  402598:	e92d0001 	stmfd	sp!, {r0}
  40259c:	e10f0000 	mrs	r0, CPSR
  4025a0:	e38000c0 	orr	r0, r0, #192	@ 0xc0
  4025a4:	e129f000 	msr	CPSR_fc, r0
  4025a8:	e8bd0001 	ldmfd	sp!, {r0}
  4025ac:	eafffffe 	b	4025ac <xTaskGenericNotify+0x13c>
  4025b0:	e5953014 	ldr	r3, [r5, #20]
  4025b4:	e5951008 	ldr	r1, [r5, #8]
  4025b8:	e595200c 	ldr	r2, [r5, #12]
  4025bc:	e5812008 	str	r2, [r1, #8]
  4025c0:	e5951008 	ldr	r1, [r5, #8]
  4025c4:	e5821004 	str	r1, [r2, #4]
  4025c8:	e5932004 	ldr	r2, [r3, #4]
  4025cc:	e2851004 	add	r1, r5, #4
  4025d0:	e1520001 	cmp	r2, r1
  4025d4:	0a000026 	beq	402674 <xTaskGenericNotify+0x204>
  4025d8:	e3a02000 	mov	r2, #0
  4025dc:	e5852014 	str	r2, [r5, #20]
  4025e0:	e5932000 	ldr	r2, [r3]
  4025e4:	e2422001 	sub	r2, r2, #1
  4025e8:	e5832000 	str	r2, [r3]
  4025ec:	e595302c 	ldr	r3, [r5, #44]	@ 0x2c
  4025f0:	e59f20bc 	ldr	r2, [pc, #188]	@ 4026b4 <xTaskGenericNotify+0x244>
  4025f4:	e59220e4 	ldr	r2, [r2, #228]	@ 0xe4
  4025f8:	e1530002 	cmp	r3, r2
  4025fc:	859f20b0 	ldrhi	r2, [pc, #176]	@ 4026b4 <xTaskGenericNotify+0x244>
  402600:	858230e4 	strhi	r3, [r2, #228]	@ 0xe4
  402604:	e59f20a8 	ldr	r2, [pc, #168]	@ 4026b4 <xTaskGenericNotify+0x244>
  402608:	e0833103 	add	r3, r3, r3, lsl #2
  40260c:	e0823103 	add	r3, r2, r3, lsl #2
  402610:	e5933034 	ldr	r3, [r3, #52]	@ 0x34
  402614:	e5853008 	str	r3, [r5, #8]
  402618:	e5930008 	ldr	r0, [r3, #8]
  40261c:	e585000c 	str	r0, [r5, #12]
  402620:	e5801004 	str	r1, [r0, #4]
  402624:	e5831008 	str	r1, [r3, #8]
  402628:	e595302c 	ldr	r3, [r5, #44]	@ 0x2c
  40262c:	e2821030 	add	r1, r2, #48	@ 0x30
  402630:	e0830103 	add	r0, r3, r3, lsl #2
  402634:	e0811100 	add	r1, r1, r0, lsl #2
  402638:	e5851014 	str	r1, [r5, #20]
  40263c:	e0821100 	add	r1, r2, r0, lsl #2
  402640:	e5911030 	ldr	r1, [r1, #48]	@ 0x30
  402644:	e2811001 	add	r1, r1, #1
  402648:	e0822100 	add	r2, r2, r0, lsl #2
  40264c:	e5821030 	str	r1, [r2, #48]	@ 0x30
  402650:	e5953028 	ldr	r3, [r5, #40]	@ 0x28
  402654:	e3530000 	cmp	r3, #0
  402658:	0a000008 	beq	402680 <xTaskGenericNotify+0x210>
  40265c:	e92d0001 	stmfd	sp!, {r0}
  402660:	e10f0000 	mrs	r0, CPSR
  402664:	e38000c0 	orr	r0, r0, #192	@ 0xc0
  402668:	e129f000 	msr	CPSR_fc, r0
  40266c:	e8bd0001 	ldmfd	sp!, {r0}
  402670:	eafffffe 	b	402670 <xTaskGenericNotify+0x200>
  402674:	e595200c 	ldr	r2, [r5, #12]
  402678:	e5832004 	str	r2, [r3, #4]
  40267c:	eaffffd5 	b	4025d8 <xTaskGenericNotify+0x168>
  402680:	e59f302c 	ldr	r3, [pc, #44]	@ 4026b4 <xTaskGenericNotify+0x244>
  402684:	e59330d8 	ldr	r3, [r3, #216]	@ 0xd8
  402688:	e593202c 	ldr	r2, [r3, #44]	@ 0x2c
  40268c:	e595302c 	ldr	r3, [r5, #44]	@ 0x2c
  402690:	e1520003 	cmp	r2, r3
  402694:	2a000004 	bcs	4026ac <xTaskGenericNotify+0x23c>
  402698:	ef000000 	svc	0x00000000
  40269c:	e3a04001 	mov	r4, #1
  4026a0:	eaffffa4 	b	402538 <xTaskGenericNotify+0xc8>
  4026a4:	e3a04000 	mov	r4, #0
  4026a8:	eaffffa2 	b	402538 <xTaskGenericNotify+0xc8>
  4026ac:	e3a04001 	mov	r4, #1
  4026b0:	eaffffa0 	b	402538 <xTaskGenericNotify+0xc8>
  4026b4:	00407980 	subeq	r7, r0, r0, lsl #19

004026b8 <xTaskGenericNotifyFromISR>:
  4026b8:	e3500000 	cmp	r0, #0
  4026bc:	0a000007 	beq	4026e0 <xTaskGenericNotifyFromISR+0x28>
  4026c0:	e3510000 	cmp	r1, #0
  4026c4:	0a00000b 	beq	4026f8 <xTaskGenericNotifyFromISR+0x40>
  4026c8:	e92d0001 	stmfd	sp!, {r0}
  4026cc:	e10f0000 	mrs	r0, CPSR
  4026d0:	e38000c0 	orr	r0, r0, #192	@ 0xc0
  4026d4:	e129f000 	msr	CPSR_fc, r0
  4026d8:	e8bd0001 	ldmfd	sp!, {r0}
  4026dc:	eafffffe 	b	4026dc <xTaskGenericNotifyFromISR+0x24>
  4026e0:	e92d0001 	stmfd	sp!, {r0}
  4026e4:	e10f0000 	mrs	r0, CPSR
  4026e8:	e38000c0 	orr	r0, r0, #192	@ 0xc0
  4026ec:	e129f000 	msr	CPSR_fc, r0
  4026f0:	e8bd0001 	ldmfd	sp!, {r0}
  4026f4:	eafffffe 	b	4026f4 <xTaskGenericNotifyFromISR+0x3c>
  4026f8:	e92d4010 	push	{r4, lr}
  4026fc:	e59dc008 	ldr	ip, [sp, #8]
  402700:	e35c0000 	cmp	ip, #0
  402704:	0a000004 	beq	40271c <xTaskGenericNotifyFromISR+0x64>
  402708:	e281c012 	add	ip, r1, #18
  40270c:	e080c10c 	add	ip, r0, ip, lsl #2
  402710:	e59cc004 	ldr	ip, [ip, #4]
  402714:	e59de008 	ldr	lr, [sp, #8]
  402718:	e58ec000 	str	ip, [lr]
  40271c:	e080e001 	add	lr, r0, r1
  402720:	e5dec050 	ldrb	ip, [lr, #80]	@ 0x50
  402724:	e20cc0ff 	and	ip, ip, #255	@ 0xff
  402728:	e3a04002 	mov	r4, #2
  40272c:	e5ce4050 	strb	r4, [lr, #80]	@ 0x50
  402730:	e3530004 	cmp	r3, #4
  402734:	979ff103 	ldrls	pc, [pc, r3, lsl #2]
  402738:	ea00001e 	b	4027b8 <xTaskGenericNotifyFromISR+0x100>
  40273c:	00402764 	subeq	r2, r0, r4, ror #14
  402740:	00402750 	subeq	r2, r0, r0, asr r7
  402744:	00402778 	subeq	r2, r0, r8, ror r7
  402748:	00402790 	umaaleq	r2, r0, r0, r7
  40274c:	004027a0 	subeq	r2, r0, r0, lsr #15
  402750:	e2813012 	add	r3, r1, #18
  402754:	e0803103 	add	r3, r0, r3, lsl #2
  402758:	e5931004 	ldr	r1, [r3, #4]
  40275c:	e1812002 	orr	r2, r1, r2
  402760:	e5832004 	str	r2, [r3, #4]
  402764:	e35c0001 	cmp	ip, #1
  402768:	0a00001c 	beq	4027e0 <xTaskGenericNotifyFromISR+0x128>
  40276c:	e3a00001 	mov	r0, #1
  402770:	e8bd4010 	pop	{r4, lr}
  402774:	e12fff1e 	bx	lr
  402778:	e2813012 	add	r3, r1, #18
  40277c:	e0803103 	add	r3, r0, r3, lsl #2
  402780:	e5932004 	ldr	r2, [r3, #4]
  402784:	e2822001 	add	r2, r2, #1
  402788:	e5832004 	str	r2, [r3, #4]
  40278c:	eafffff4 	b	402764 <xTaskGenericNotifyFromISR+0xac>
  402790:	e2813012 	add	r3, r1, #18
  402794:	e0803103 	add	r3, r0, r3, lsl #2
  402798:	e5832004 	str	r2, [r3, #4]
  40279c:	eafffff0 	b	402764 <xTaskGenericNotifyFromISR+0xac>
  4027a0:	e35c0002 	cmp	ip, #2
  4027a4:	0a000062 	beq	402934 <xTaskGenericNotifyFromISR+0x27c>
  4027a8:	e2813012 	add	r3, r1, #18
  4027ac:	e0803103 	add	r3, r0, r3, lsl #2
  4027b0:	e5832004 	str	r2, [r3, #4]
  4027b4:	eaffffea 	b	402764 <xTaskGenericNotifyFromISR+0xac>
  4027b8:	e59f3184 	ldr	r3, [pc, #388]	@ 402944 <xTaskGenericNotifyFromISR+0x28c>
  4027bc:	e59330ec 	ldr	r3, [r3, #236]	@ 0xec
  4027c0:	e3530000 	cmp	r3, #0
  4027c4:	0affffe6 	beq	402764 <xTaskGenericNotifyFromISR+0xac>
  4027c8:	e92d0001 	stmfd	sp!, {r0}
  4027cc:	e10f0000 	mrs	r0, CPSR
  4027d0:	e38000c0 	orr	r0, r0, #192	@ 0xc0
  4027d4:	e129f000 	msr	CPSR_fc, r0
  4027d8:	e8bd0001 	ldmfd	sp!, {r0}
  4027dc:	eafffffe 	b	4027dc <xTaskGenericNotifyFromISR+0x124>
  4027e0:	e5903028 	ldr	r3, [r0, #40]	@ 0x28
  4027e4:	e3530000 	cmp	r3, #0
  4027e8:	0a000005 	beq	402804 <xTaskGenericNotifyFromISR+0x14c>
  4027ec:	e92d0001 	stmfd	sp!, {r0}
  4027f0:	e10f0000 	mrs	r0, CPSR
  4027f4:	e38000c0 	orr	r0, r0, #192	@ 0xc0
  4027f8:	e129f000 	msr	CPSR_fc, r0
  4027fc:	e8bd0001 	ldmfd	sp!, {r0}
  402800:	eafffffe 	b	402800 <xTaskGenericNotifyFromISR+0x148>
  402804:	e59f3138 	ldr	r3, [pc, #312]	@ 402944 <xTaskGenericNotifyFromISR+0x28c>
  402808:	e59330f4 	ldr	r3, [r3, #244]	@ 0xf4
  40280c:	e3530000 	cmp	r3, #0
  402810:	1a000039 	bne	4028fc <xTaskGenericNotifyFromISR+0x244>
  402814:	e5903014 	ldr	r3, [r0, #20]
  402818:	e5901008 	ldr	r1, [r0, #8]
  40281c:	e590200c 	ldr	r2, [r0, #12]
  402820:	e5812008 	str	r2, [r1, #8]
  402824:	e5901008 	ldr	r1, [r0, #8]
  402828:	e5821004 	str	r1, [r2, #4]
  40282c:	e5932004 	ldr	r2, [r3, #4]
  402830:	e2801004 	add	r1, r0, #4
  402834:	e1520001 	cmp	r2, r1
  402838:	0a00002c 	beq	4028f0 <xTaskGenericNotifyFromISR+0x238>
  40283c:	e3a02000 	mov	r2, #0
  402840:	e5802014 	str	r2, [r0, #20]
  402844:	e5932000 	ldr	r2, [r3]
  402848:	e2422001 	sub	r2, r2, #1
  40284c:	e5832000 	str	r2, [r3]
  402850:	e590302c 	ldr	r3, [r0, #44]	@ 0x2c
  402854:	e59f20e8 	ldr	r2, [pc, #232]	@ 402944 <xTaskGenericNotifyFromISR+0x28c>
  402858:	e59220e4 	ldr	r2, [r2, #228]	@ 0xe4
  40285c:	e1530002 	cmp	r3, r2
  402860:	859f20dc 	ldrhi	r2, [pc, #220]	@ 402944 <xTaskGenericNotifyFromISR+0x28c>
  402864:	858230e4 	strhi	r3, [r2, #228]	@ 0xe4
  402868:	e59f20d4 	ldr	r2, [pc, #212]	@ 402944 <xTaskGenericNotifyFromISR+0x28c>
  40286c:	e0833103 	add	r3, r3, r3, lsl #2
  402870:	e0823103 	add	r3, r2, r3, lsl #2
  402874:	e5933034 	ldr	r3, [r3, #52]	@ 0x34
  402878:	e5803008 	str	r3, [r0, #8]
  40287c:	e593c008 	ldr	ip, [r3, #8]
  402880:	e580c00c 	str	ip, [r0, #12]
  402884:	e58c1004 	str	r1, [ip, #4]
  402888:	e5831008 	str	r1, [r3, #8]
  40288c:	e590302c 	ldr	r3, [r0, #44]	@ 0x2c
  402890:	e2821030 	add	r1, r2, #48	@ 0x30
  402894:	e083c103 	add	ip, r3, r3, lsl #2
  402898:	e081110c 	add	r1, r1, ip, lsl #2
  40289c:	e5801014 	str	r1, [r0, #20]
  4028a0:	e082110c 	add	r1, r2, ip, lsl #2
  4028a4:	e5911030 	ldr	r1, [r1, #48]	@ 0x30
  4028a8:	e2811001 	add	r1, r1, #1
  4028ac:	e082210c 	add	r2, r2, ip, lsl #2
  4028b0:	e5821030 	str	r1, [r2, #48]	@ 0x30
  4028b4:	e590202c 	ldr	r2, [r0, #44]	@ 0x2c
  4028b8:	e59f3084 	ldr	r3, [pc, #132]	@ 402944 <xTaskGenericNotifyFromISR+0x28c>
  4028bc:	e59330d8 	ldr	r3, [r3, #216]	@ 0xd8
  4028c0:	e593302c 	ldr	r3, [r3, #44]	@ 0x2c
  4028c4:	e1520003 	cmp	r2, r3
  4028c8:	9a00001b 	bls	40293c <xTaskGenericNotifyFromISR+0x284>
  4028cc:	e59d300c 	ldr	r3, [sp, #12]
  4028d0:	e3530000 	cmp	r3, #0
  4028d4:	13a03001 	movne	r3, #1
  4028d8:	159d200c 	ldrne	r2, [sp, #12]
  4028dc:	15823000 	strne	r3, [r2]
  4028e0:	e3a00001 	mov	r0, #1
  4028e4:	e59f3058 	ldr	r3, [pc, #88]	@ 402944 <xTaskGenericNotifyFromISR+0x28c>
  4028e8:	e58300f8 	str	r0, [r3, #248]	@ 0xf8
  4028ec:	eaffff9f 	b	402770 <xTaskGenericNotifyFromISR+0xb8>
  4028f0:	e590200c 	ldr	r2, [r0, #12]
  4028f4:	e5832004 	str	r2, [r3, #4]
  4028f8:	eaffffcf 	b	40283c <xTaskGenericNotifyFromISR+0x184>
  4028fc:	e59f3040 	ldr	r3, [pc, #64]	@ 402944 <xTaskGenericNotifyFromISR+0x28c>
  402900:	e5932018 	ldr	r2, [r3, #24]
  402904:	e580201c 	str	r2, [r0, #28]
  402908:	e592c008 	ldr	ip, [r2, #8]
  40290c:	e580c020 	str	ip, [r0, #32]
  402910:	e2801018 	add	r1, r0, #24
  402914:	e58c1004 	str	r1, [ip, #4]
  402918:	e5821008 	str	r1, [r2, #8]
  40291c:	e2832014 	add	r2, r3, #20
  402920:	e5802028 	str	r2, [r0, #40]	@ 0x28
  402924:	e5932014 	ldr	r2, [r3, #20]
  402928:	e2822001 	add	r2, r2, #1
  40292c:	e5832014 	str	r2, [r3, #20]
  402930:	eaffffdf 	b	4028b4 <xTaskGenericNotifyFromISR+0x1fc>
  402934:	e3a00000 	mov	r0, #0
  402938:	eaffff8c 	b	402770 <xTaskGenericNotifyFromISR+0xb8>
  40293c:	e3a00001 	mov	r0, #1
  402940:	eaffff8a 	b	402770 <xTaskGenericNotifyFromISR+0xb8>
  402944:	00407980 	subeq	r7, r0, r0, lsl #19

00402948 <vTaskGenericNotifyGiveFromISR>:
  402948:	e3500000 	cmp	r0, #0
  40294c:	0a000007 	beq	402970 <vTaskGenericNotifyGiveFromISR+0x28>
  402950:	e3510000 	cmp	r1, #0
  402954:	0a00000b 	beq	402988 <vTaskGenericNotifyGiveFromISR+0x40>
  402958:	e92d0001 	stmfd	sp!, {r0}
  40295c:	e10f0000 	mrs	r0, CPSR
  402960:	e38000c0 	orr	r0, r0, #192	@ 0xc0
  402964:	e129f000 	msr	CPSR_fc, r0
  402968:	e8bd0001 	ldmfd	sp!, {r0}
  40296c:	eafffffe 	b	40296c <vTaskGenericNotifyGiveFromISR+0x24>
  402970:	e92d0001 	stmfd	sp!, {r0}
  402974:	e10f0000 	mrs	r0, CPSR
  402978:	e38000c0 	orr	r0, r0, #192	@ 0xc0
  40297c:	e129f000 	msr	CPSR_fc, r0
  402980:	e8bd0001 	ldmfd	sp!, {r0}
  402984:	eafffffe 	b	402984 <vTaskGenericNotifyGiveFromISR+0x3c>
  402988:	e52de004 	push	{lr}		@ (str lr, [sp, #-4]!)
  40298c:	e0803001 	add	r3, r0, r1
  402990:	e5d3c050 	ldrb	ip, [r3, #80]	@ 0x50
  402994:	e3a0e002 	mov	lr, #2
  402998:	e5c3e050 	strb	lr, [r3, #80]	@ 0x50
  40299c:	e2813012 	add	r3, r1, #18
  4029a0:	e0803e13 	add	r3, r0, r3, lsl lr
  4029a4:	e5931004 	ldr	r1, [r3, #4]
  4029a8:	e2811001 	add	r1, r1, #1
  4029ac:	e5831004 	str	r1, [r3, #4]
  4029b0:	e35c0001 	cmp	ip, #1
  4029b4:	0a000001 	beq	4029c0 <vTaskGenericNotifyGiveFromISR+0x78>
  4029b8:	e49de004 	pop	{lr}		@ (ldr lr, [sp], #4)
  4029bc:	e12fff1e 	bx	lr
  4029c0:	e5903028 	ldr	r3, [r0, #40]	@ 0x28
  4029c4:	e3530000 	cmp	r3, #0
  4029c8:	0a000005 	beq	4029e4 <vTaskGenericNotifyGiveFromISR+0x9c>
  4029cc:	e92d0001 	stmfd	sp!, {r0}
  4029d0:	e10f0000 	mrs	r0, CPSR
  4029d4:	e38000c0 	orr	r0, r0, #192	@ 0xc0
  4029d8:	e129f000 	msr	CPSR_fc, r0
  4029dc:	e8bd0001 	ldmfd	sp!, {r0}
  4029e0:	eafffffe 	b	4029e0 <vTaskGenericNotifyGiveFromISR+0x98>
  4029e4:	e59f3120 	ldr	r3, [pc, #288]	@ 402b0c <vTaskGenericNotifyGiveFromISR+0x1c4>
  4029e8:	e59330f4 	ldr	r3, [r3, #244]	@ 0xf4
  4029ec:	e3530000 	cmp	r3, #0
  4029f0:	1a000037 	bne	402ad4 <vTaskGenericNotifyGiveFromISR+0x18c>
  4029f4:	e5903014 	ldr	r3, [r0, #20]
  4029f8:	e590c008 	ldr	ip, [r0, #8]
  4029fc:	e590100c 	ldr	r1, [r0, #12]
  402a00:	e58c1008 	str	r1, [ip, #8]
  402a04:	e590c008 	ldr	ip, [r0, #8]
  402a08:	e581c004 	str	ip, [r1, #4]
  402a0c:	e5931004 	ldr	r1, [r3, #4]
  402a10:	e280c004 	add	ip, r0, #4
  402a14:	e151000c 	cmp	r1, ip
  402a18:	0a00002a 	beq	402ac8 <vTaskGenericNotifyGiveFromISR+0x180>
  402a1c:	e3a01000 	mov	r1, #0
  402a20:	e5801014 	str	r1, [r0, #20]
  402a24:	e5931000 	ldr	r1, [r3]
  402a28:	e2411001 	sub	r1, r1, #1
  402a2c:	e5831000 	str	r1, [r3]
  402a30:	e590302c 	ldr	r3, [r0, #44]	@ 0x2c
  402a34:	e59f10d0 	ldr	r1, [pc, #208]	@ 402b0c <vTaskGenericNotifyGiveFromISR+0x1c4>
  402a38:	e59110e4 	ldr	r1, [r1, #228]	@ 0xe4
  402a3c:	e1530001 	cmp	r3, r1
  402a40:	859f10c4 	ldrhi	r1, [pc, #196]	@ 402b0c <vTaskGenericNotifyGiveFromISR+0x1c4>
  402a44:	858130e4 	strhi	r3, [r1, #228]	@ 0xe4
  402a48:	e59f10bc 	ldr	r1, [pc, #188]	@ 402b0c <vTaskGenericNotifyGiveFromISR+0x1c4>
  402a4c:	e0833103 	add	r3, r3, r3, lsl #2
  402a50:	e0813103 	add	r3, r1, r3, lsl #2
  402a54:	e5933034 	ldr	r3, [r3, #52]	@ 0x34
  402a58:	e5803008 	str	r3, [r0, #8]
  402a5c:	e593e008 	ldr	lr, [r3, #8]
  402a60:	e580e00c 	str	lr, [r0, #12]
  402a64:	e58ec004 	str	ip, [lr, #4]
  402a68:	e583c008 	str	ip, [r3, #8]
  402a6c:	e590302c 	ldr	r3, [r0, #44]	@ 0x2c
  402a70:	e281c030 	add	ip, r1, #48	@ 0x30
  402a74:	e083e103 	add	lr, r3, r3, lsl #2
  402a78:	e08cc10e 	add	ip, ip, lr, lsl #2
  402a7c:	e580c014 	str	ip, [r0, #20]
  402a80:	e081c10e 	add	ip, r1, lr, lsl #2
  402a84:	e59cc030 	ldr	ip, [ip, #48]	@ 0x30
  402a88:	e28cc001 	add	ip, ip, #1
  402a8c:	e081110e 	add	r1, r1, lr, lsl #2
  402a90:	e581c030 	str	ip, [r1, #48]	@ 0x30
  402a94:	e590102c 	ldr	r1, [r0, #44]	@ 0x2c
  402a98:	e59f306c 	ldr	r3, [pc, #108]	@ 402b0c <vTaskGenericNotifyGiveFromISR+0x1c4>
  402a9c:	e59330d8 	ldr	r3, [r3, #216]	@ 0xd8
  402aa0:	e593302c 	ldr	r3, [r3, #44]	@ 0x2c
  402aa4:	e1510003 	cmp	r1, r3
  402aa8:	9affffc2 	bls	4029b8 <vTaskGenericNotifyGiveFromISR+0x70>
  402aac:	e3520000 	cmp	r2, #0
  402ab0:	13a03001 	movne	r3, #1
  402ab4:	15823000 	strne	r3, [r2]
  402ab8:	e59f304c 	ldr	r3, [pc, #76]	@ 402b0c <vTaskGenericNotifyGiveFromISR+0x1c4>
  402abc:	e3a02001 	mov	r2, #1
  402ac0:	e58320f8 	str	r2, [r3, #248]	@ 0xf8
  402ac4:	eaffffbb 	b	4029b8 <vTaskGenericNotifyGiveFromISR+0x70>
  402ac8:	e590100c 	ldr	r1, [r0, #12]
  402acc:	e5831004 	str	r1, [r3, #4]
  402ad0:	eaffffd1 	b	402a1c <vTaskGenericNotifyGiveFromISR+0xd4>
  402ad4:	e59f3030 	ldr	r3, [pc, #48]	@ 402b0c <vTaskGenericNotifyGiveFromISR+0x1c4>
  402ad8:	e5931018 	ldr	r1, [r3, #24]
  402adc:	e580101c 	str	r1, [r0, #28]
  402ae0:	e591e008 	ldr	lr, [r1, #8]
  402ae4:	e580e020 	str	lr, [r0, #32]
  402ae8:	e280c018 	add	ip, r0, #24
  402aec:	e58ec004 	str	ip, [lr, #4]
  402af0:	e581c008 	str	ip, [r1, #8]
  402af4:	e2831014 	add	r1, r3, #20
  402af8:	e5801028 	str	r1, [r0, #40]	@ 0x28
  402afc:	e5931014 	ldr	r1, [r3, #20]
  402b00:	e2811001 	add	r1, r1, #1
  402b04:	e5831014 	str	r1, [r3, #20]
  402b08:	eaffffe1 	b	402a94 <vTaskGenericNotifyGiveFromISR+0x14c>
  402b0c:	00407980 	subeq	r7, r0, r0, lsl #19

00402b10 <xTaskGenericNotifyStateClear>:
  402b10:	e92d4070 	push	{r4, r5, r6, lr}
  402b14:	e2514000 	subs	r4, r1, #0
  402b18:	0a000005 	beq	402b34 <xTaskGenericNotifyStateClear+0x24>
  402b1c:	e92d0001 	stmfd	sp!, {r0}
  402b20:	e10f0000 	mrs	r0, CPSR
  402b24:	e38000c0 	orr	r0, r0, #192	@ 0xc0
  402b28:	e129f000 	msr	CPSR_fc, r0
  402b2c:	e8bd0001 	ldmfd	sp!, {r0}
  402b30:	eafffffe 	b	402b30 <xTaskGenericNotifyStateClear+0x20>
  402b34:	e1a05000 	mov	r5, r0
  402b38:	e3500000 	cmp	r0, #0
  402b3c:	0a000009 	beq	402b68 <xTaskGenericNotifyStateClear+0x58>
  402b40:	eb00025f 	bl	4034c4 <itc_disable_ints>
  402b44:	e0853004 	add	r3, r5, r4
  402b48:	e5d33050 	ldrb	r3, [r3, #80]	@ 0x50
  402b4c:	e3530002 	cmp	r3, #2
  402b50:	0a000007 	beq	402b74 <xTaskGenericNotifyStateClear+0x64>
  402b54:	e3a04000 	mov	r4, #0
  402b58:	eb000262 	bl	4034e8 <itc_restore_ints>
  402b5c:	e1a00004 	mov	r0, r4
  402b60:	e8bd4070 	pop	{r4, r5, r6, lr}
  402b64:	e12fff1e 	bx	lr
  402b68:	e59f3018 	ldr	r3, [pc, #24]	@ 402b88 <xTaskGenericNotifyStateClear+0x78>
  402b6c:	e59350d8 	ldr	r5, [r3, #216]	@ 0xd8
  402b70:	eafffff2 	b	402b40 <xTaskGenericNotifyStateClear+0x30>
  402b74:	e0855004 	add	r5, r5, r4
  402b78:	e3a03000 	mov	r3, #0
  402b7c:	e5c53050 	strb	r3, [r5, #80]	@ 0x50
  402b80:	e3a04001 	mov	r4, #1
  402b84:	eafffff3 	b	402b58 <xTaskGenericNotifyStateClear+0x48>
  402b88:	00407980 	subeq	r7, r0, r0, lsl #19

00402b8c <ulTaskGenericNotifyValueClear>:
  402b8c:	e92d4070 	push	{r4, r5, r6, lr}
  402b90:	e2515000 	subs	r5, r1, #0
  402b94:	0a000005 	beq	402bb0 <ulTaskGenericNotifyValueClear+0x24>
  402b98:	e92d0001 	stmfd	sp!, {r0}
  402b9c:	e10f0000 	mrs	r0, CPSR
  402ba0:	e38000c0 	orr	r0, r0, #192	@ 0xc0
  402ba4:	e129f000 	msr	CPSR_fc, r0
  402ba8:	e8bd0001 	ldmfd	sp!, {r0}
  402bac:	eafffffe 	b	402bac <ulTaskGenericNotifyValueClear+0x20>
  402bb0:	e1a04000 	mov	r4, r0
  402bb4:	e1a06002 	mov	r6, r2
  402bb8:	e3500000 	cmp	r0, #0
  402bbc:	0a00000a 	beq	402bec <ulTaskGenericNotifyValueClear+0x60>
  402bc0:	eb00023f 	bl	4034c4 <itc_disable_ints>
  402bc4:	e2851012 	add	r1, r5, #18
  402bc8:	e0844101 	add	r4, r4, r1, lsl #2
  402bcc:	e5945004 	ldr	r5, [r4, #4]
  402bd0:	e5943004 	ldr	r3, [r4, #4]
  402bd4:	e1c33006 	bic	r3, r3, r6
  402bd8:	e5843004 	str	r3, [r4, #4]
  402bdc:	eb000241 	bl	4034e8 <itc_restore_ints>
  402be0:	e1a00005 	mov	r0, r5
  402be4:	e8bd4070 	pop	{r4, r5, r6, lr}
  402be8:	e12fff1e 	bx	lr
  402bec:	e59f3004 	ldr	r3, [pc, #4]	@ 402bf8 <ulTaskGenericNotifyValueClear+0x6c>
  402bf0:	e59340d8 	ldr	r4, [r3, #216]	@ 0xd8
  402bf4:	eafffff1 	b	402bc0 <ulTaskGenericNotifyValueClear+0x34>
  402bf8:	00407980 	subeq	r7, r0, r0, lsl #19

00402bfc <vTaskResetState>:
  402bfc:	e59f2058 	ldr	r2, [pc, #88]	@ 402c5c <vTaskResetState+0x60>
  402c00:	e3a03000 	mov	r3, #0
  402c04:	e58230d8 	str	r3, [r2, #216]	@ 0xd8
  402c08:	e58230e8 	str	r3, [r2, #232]	@ 0xe8
  402c0c:	e58230d4 	str	r3, [r2, #212]	@ 0xd4
  402c10:	e58230ec 	str	r3, [r2, #236]	@ 0xec
  402c14:	e58230e4 	str	r3, [r2, #228]	@ 0xe4
  402c18:	e58230dc 	str	r3, [r2, #220]	@ 0xdc
  402c1c:	e5823100 	str	r3, [r2, #256]	@ 0x100
  402c20:	e3530000 	cmp	r3, #0
  402c24:	da000006 	ble	402c44 <vTaskResetState+0x48>
  402c28:	e59f302c 	ldr	r3, [pc, #44]	@ 402c5c <vTaskResetState+0x60>
  402c2c:	e3a02000 	mov	r2, #0
  402c30:	e58320fc 	str	r2, [r3, #252]	@ 0xfc
  402c34:	e58320e0 	str	r2, [r3, #224]	@ 0xe0
  402c38:	e583202c 	str	r2, [r3, #44]	@ 0x2c
  402c3c:	e58320f4 	str	r2, [r3, #244]	@ 0xf4
  402c40:	e12fff1e 	bx	lr
  402c44:	e59f2010 	ldr	r2, [pc, #16]	@ 402c5c <vTaskResetState+0x60>
  402c48:	e0822103 	add	r2, r2, r3, lsl #2
  402c4c:	e3a01000 	mov	r1, #0
  402c50:	e58210f8 	str	r1, [r2, #248]	@ 0xf8
  402c54:	e2833001 	add	r3, r3, #1
  402c58:	eafffff0 	b	402c20 <vTaskResetState+0x24>
  402c5c:	00407980 	subeq	r7, r0, r0, lsl #19

00402c60 <pvPortMalloc>:
  402c60:	e92d4070 	push	{r4, r5, r6, lr}
  402c64:	e1a04000 	mov	r4, r0
  402c68:	e3100003 	tst	r0, #3
  402c6c:	0a000004 	beq	402c84 <pvPortMalloc+0x24>
  402c70:	e3c03003 	bic	r3, r0, #3
  402c74:	e2833004 	add	r3, r3, #4
  402c78:	e1530000 	cmp	r3, r0
  402c7c:	8a000017 	bhi	402ce0 <pvPortMalloc+0x80>
  402c80:	e3a04000 	mov	r4, #0
  402c84:	ebfff8af 	bl	400f48 <vTaskSuspendAll>
  402c88:	e59f3084 	ldr	r3, [pc, #132]	@ 402d14 <pvPortMalloc+0xb4>
  402c8c:	e5933000 	ldr	r3, [r3]
  402c90:	e3530000 	cmp	r3, #0
  402c94:	0a000013 	beq	402ce8 <pvPortMalloc+0x88>
  402c98:	e3540000 	cmp	r4, #0
  402c9c:	0a000016 	beq	402cfc <pvPortMalloc+0x9c>
  402ca0:	e59f306c 	ldr	r3, [pc, #108]	@ 402d14 <pvPortMalloc+0xb4>
  402ca4:	e5933004 	ldr	r3, [r3, #4]
  402ca8:	e0834004 	add	r4, r3, r4
  402cac:	e59f2064 	ldr	r2, [pc, #100]	@ 402d18 <pvPortMalloc+0xb8>
  402cb0:	e1540002 	cmp	r4, r2
  402cb4:	8a000012 	bhi	402d04 <pvPortMalloc+0xa4>
  402cb8:	e1530004 	cmp	r3, r4
  402cbc:	2a000012 	bcs	402d0c <pvPortMalloc+0xac>
  402cc0:	e59f204c 	ldr	r2, [pc, #76]	@ 402d14 <pvPortMalloc+0xb4>
  402cc4:	e5925000 	ldr	r5, [r2]
  402cc8:	e0855003 	add	r5, r5, r3
  402ccc:	e5824004 	str	r4, [r2, #4]
  402cd0:	ebfff950 	bl	401218 <xTaskResumeAll>
  402cd4:	e1a00005 	mov	r0, r5
  402cd8:	e8bd4070 	pop	{r4, r5, r6, lr}
  402cdc:	e12fff1e 	bx	lr
  402ce0:	e1a04003 	mov	r4, r3
  402ce4:	eaffffe6 	b	402c84 <pvPortMalloc+0x24>
  402ce8:	e59f302c 	ldr	r3, [pc, #44]	@ 402d1c <pvPortMalloc+0xbc>
  402cec:	e3c33003 	bic	r3, r3, #3
  402cf0:	e59f201c 	ldr	r2, [pc, #28]	@ 402d14 <pvPortMalloc+0xb4>
  402cf4:	e5823000 	str	r3, [r2]
  402cf8:	eaffffe6 	b	402c98 <pvPortMalloc+0x38>
  402cfc:	e3a05000 	mov	r5, #0
  402d00:	eafffff2 	b	402cd0 <pvPortMalloc+0x70>
  402d04:	e3a05000 	mov	r5, #0
  402d08:	eafffff0 	b	402cd0 <pvPortMalloc+0x70>
  402d0c:	e3a05000 	mov	r5, #0
  402d10:	eaffffee 	b	402cd0 <pvPortMalloc+0x70>
  402d14:	00407a84 	subeq	r7, r0, r4, lsl #21
  402d18:	00007ffb 	strdeq	r7, [r0], -fp
  402d1c:	00407a8f 	subeq	r7, r0, pc, lsl #21

00402d20 <vPortFree>:
  402d20:	e3500000 	cmp	r0, #0
  402d24:	012fff1e 	bxeq	lr
  402d28:	e92d0001 	stmfd	sp!, {r0}
  402d2c:	e10f0000 	mrs	r0, CPSR
  402d30:	e38000c0 	orr	r0, r0, #192	@ 0xc0
  402d34:	e129f000 	msr	CPSR_fc, r0
  402d38:	e8bd0001 	ldmfd	sp!, {r0}
  402d3c:	eafffffe 	b	402d3c <vPortFree+0x1c>

00402d40 <vPortInitialiseBlocks>:
  402d40:	e59f3008 	ldr	r3, [pc, #8]	@ 402d50 <vPortInitialiseBlocks+0x10>
  402d44:	e3a02000 	mov	r2, #0
  402d48:	e5832004 	str	r2, [r3, #4]
  402d4c:	e12fff1e 	bx	lr
  402d50:	00407a84 	subeq	r7, r0, r4, lsl #21

00402d54 <xPortGetFreeHeapSize>:
  402d54:	e59f300c 	ldr	r3, [pc, #12]	@ 402d68 <xPortGetFreeHeapSize+0x14>
  402d58:	e5930004 	ldr	r0, [r3, #4]
  402d5c:	e2600c7f 	rsb	r0, r0, #32512	@ 0x7f00
  402d60:	e28000fc 	add	r0, r0, #252	@ 0xfc
  402d64:	e12fff1e 	bx	lr
  402d68:	00407a84 	subeq	r7, r0, r4, lsl #21

00402d6c <vPortHeapResetState>:
  402d6c:	e59f3008 	ldr	r3, [pc, #8]	@ 402d7c <vPortHeapResetState+0x10>
  402d70:	e3a02000 	mov	r2, #0
  402d74:	e5832004 	str	r2, [r3, #4]
  402d78:	e12fff1e 	bx	lr
  402d7c:	00407a84 	subeq	r7, r0, r4, lsl #21

00402d80 <prvSetupTimerInterrupt>:
  402d80:	e92d4010 	push	{r4, lr}
  402d84:	e59f1020 	ldr	r1, [pc, #32]	@ 402dac <prvSetupTimerInterrupt+0x2c>
  402d88:	e3a00005 	mov	r0, #5
  402d8c:	eb0001dc 	bl	403504 <itc_set_handler>
  402d90:	e3a00005 	mov	r0, #5
  402d94:	eb0001ec 	bl	40354c <itc_enable_interrupt>
  402d98:	e3a0100a 	mov	r1, #10
  402d9c:	e3a00000 	mov	r0, #0
  402da0:	eb00023b 	bl	403694 <TimerInt_Init>
  402da4:	e8bd4010 	pop	{r4, lr}
  402da8:	e12fff1e 	bx	lr
  402dac:	00402f98 	umaaleq	r2, r0, r8, pc	@ <UNPREDICTABLE>

00402db0 <xPortStartScheduler>:
  402db0:	e92d4010 	push	{r4, lr}
  402db4:	ebfffff1 	bl	402d80 <prvSetupTimerInterrupt>
  402db8:	eb000037 	bl	402e9c <vPortISRStartFirstTask>
  402dbc:	e3a00001 	mov	r0, #1
  402dc0:	e8bd4010 	pop	{r4, lr}
  402dc4:	e12fff1e 	bx	lr

00402dc8 <vPortEndScheduler>:
  402dc8:	e12fff1e 	bx	lr

00402dcc <pxPortInitialiseStack>:
  402dcc:	e2813004 	add	r3, r1, #4
  402dd0:	e5003004 	str	r3, [r0, #-4]
  402dd4:	e59f308c 	ldr	r3, [pc, #140]	@ 402e68 <pxPortInitialiseStack+0x9c>
  402dd8:	e5003008 	str	r3, [r0, #-8]
  402ddc:	e500000c 	str	r0, [r0, #-12]
  402de0:	e59f3084 	ldr	r3, [pc, #132]	@ 402e6c <pxPortInitialiseStack+0xa0>
  402de4:	e5003010 	str	r3, [r0, #-16]
  402de8:	e59f3080 	ldr	r3, [pc, #128]	@ 402e70 <pxPortInitialiseStack+0xa4>
  402dec:	e5003014 	str	r3, [r0, #-20]	@ 0xffffffec
  402df0:	e59f307c 	ldr	r3, [pc, #124]	@ 402e74 <pxPortInitialiseStack+0xa8>
  402df4:	e5003018 	str	r3, [r0, #-24]	@ 0xffffffe8
  402df8:	e59f3078 	ldr	r3, [pc, #120]	@ 402e78 <pxPortInitialiseStack+0xac>
  402dfc:	e500301c 	str	r3, [r0, #-28]	@ 0xffffffe4
  402e00:	e59f3074 	ldr	r3, [pc, #116]	@ 402e7c <pxPortInitialiseStack+0xb0>
  402e04:	e5003020 	str	r3, [r0, #-32]	@ 0xffffffe0
  402e08:	e59f3070 	ldr	r3, [pc, #112]	@ 402e80 <pxPortInitialiseStack+0xb4>
  402e0c:	e5003024 	str	r3, [r0, #-36]	@ 0xffffffdc
  402e10:	e59f306c 	ldr	r3, [pc, #108]	@ 402e84 <pxPortInitialiseStack+0xb8>
  402e14:	e5003028 	str	r3, [r0, #-40]	@ 0xffffffd8
  402e18:	e59f3068 	ldr	r3, [pc, #104]	@ 402e88 <pxPortInitialiseStack+0xbc>
  402e1c:	e500302c 	str	r3, [r0, #-44]	@ 0xffffffd4
  402e20:	e59f3064 	ldr	r3, [pc, #100]	@ 402e8c <pxPortInitialiseStack+0xc0>
  402e24:	e5003030 	str	r3, [r0, #-48]	@ 0xffffffd0
  402e28:	e59f3060 	ldr	r3, [pc, #96]	@ 402e90 <pxPortInitialiseStack+0xc4>
  402e2c:	e5003034 	str	r3, [r0, #-52]	@ 0xffffffcc
  402e30:	e59f305c 	ldr	r3, [pc, #92]	@ 402e94 <pxPortInitialiseStack+0xc8>
  402e34:	e5003038 	str	r3, [r0, #-56]	@ 0xffffffc8
  402e38:	e59f3058 	ldr	r3, [pc, #88]	@ 402e98 <pxPortInitialiseStack+0xcc>
  402e3c:	e500303c 	str	r3, [r0, #-60]	@ 0xffffffc4
  402e40:	e5002040 	str	r2, [r0, #-64]	@ 0xffffffc0
  402e44:	e3a0301f 	mov	r3, #31
  402e48:	e5003044 	str	r3, [r0, #-68]	@ 0xffffffbc
  402e4c:	e3110001 	tst	r1, #1
  402e50:	13a0303f 	movne	r3, #63	@ 0x3f
  402e54:	15003044 	strne	r3, [r0, #-68]	@ 0xffffffbc
  402e58:	e3a03000 	mov	r3, #0
  402e5c:	e5003048 	str	r3, [r0, #-72]	@ 0xffffffb8
  402e60:	e2400048 	sub	r0, r0, #72	@ 0x48
  402e64:	e12fff1e 	bx	lr
  402e68:	aaaaaaaa 	bge	feead918 <_fiq_stack_top+0xfea95918>
  402e6c:	12121212 	andsne	r1, r2, #536870913	@ 0x20000001
  402e70:	11111111 	tstne	r1, r1, lsl r1
  402e74:	10101010 	andsne	r1, r0, r0, lsl r0
  402e78:	09090909 	stmdbeq	r9, {r0, r3, r8, fp}
  402e7c:	08080808 	stmdaeq	r8, {r3, fp}
  402e80:	07070707 	streq	r0, [r7, -r7, lsl #14]
  402e84:	06060606 	streq	r0, [r6], -r6, lsl #12
  402e88:	05050505 	streq	r0, [r5, #-1285]	@ 0xfffffafb
  402e8c:	04040404 	streq	r0, [r4], #-1028	@ 0xfffffbfc
  402e90:	03030303 	movweq	r0, #13059	@ 0x3303
  402e94:	02020202 	andeq	r0, r2, #536870912	@ 0x20000000
  402e98:	01010101 	tsteq	r1, r1, lsl #2

00402e9c <vPortISRStartFirstTask>:
  402e9c:	e59f0228 	ldr	r0, [pc, #552]	@ 4030cc <vPortExitCritical+0x48>
  402ea0:	e5900000 	ldr	r0, [r0]
  402ea4:	e590e000 	ldr	lr, [r0]
  402ea8:	e59f0220 	ldr	r0, [pc, #544]	@ 4030d0 <vPortExitCritical+0x4c>
  402eac:	e8be0002 	ldm	lr!, {r1}
  402eb0:	e5801000 	str	r1, [r0]
  402eb4:	e8be0001 	ldm	lr!, {r0}
  402eb8:	e169f000 	msr	SPSR_fc, r0
  402ebc:	e8de7fff 	ldm	lr, {r0, r1, r2, r3, r4, r5, r6, r7, r8, r9, sl, fp, ip, sp, lr}^
  402ec0:	e1a00000 	nop			@ (mov r0, r0)
  402ec4:	e59ee03c 	ldr	lr, [lr, #60]	@ 0x3c
  402ec8:	e25ef004 	subs	pc, lr, #4
  402ecc:	e59f300c 	ldr	r3, [pc, #12]	@ 402ee0 <vPortISRStartFirstTask+0x44>
  402ed0:	e5933000 	ldr	r3, [r3]
  402ed4:	e59f3008 	ldr	r3, [pc, #8]	@ 402ee4 <vPortISRStartFirstTask+0x48>
  402ed8:	e5933000 	ldr	r3, [r3]
  402edc:	e12fff1e 	bx	lr
  402ee0:	00404584 	subeq	r4, r0, r4, lsl #11
  402ee4:	00407a58 	subeq	r7, r0, r8, asr sl

00402ee8 <vPortYieldProcessor>:
  402ee8:	e92d000e 	push	{r1, r2, r3}
  402eec:	e28ee004 	add	lr, lr, #4
  402ef0:	e92d0001 	stmfd	sp!, {r0}
  402ef4:	e94d2000 	stmdb	sp, {sp}^
  402ef8:	e1a00000 	nop			@ (mov r0, r0)
  402efc:	e24dd004 	sub	sp, sp, #4
  402f00:	e8bd0001 	ldmfd	sp!, {r0}
  402f04:	e9204000 	stmdb	r0!, {lr}
  402f08:	e1a0e000 	mov	lr, r0
  402f0c:	e8bd0001 	ldmfd	sp!, {r0}
  402f10:	e94e7fff 	stmdb	lr, {r0, r1, r2, r3, r4, r5, r6, r7, r8, r9, sl, fp, ip, sp, lr}^
  402f14:	e1a00000 	nop			@ (mov r0, r0)
  402f18:	e24ee03c 	sub	lr, lr, #60	@ 0x3c
  402f1c:	e14f0000 	mrs	r0, SPSR
  402f20:	e92e0001 	stmdb	lr!, {r0}
  402f24:	e59f01a4 	ldr	r0, [pc, #420]	@ 4030d0 <vPortExitCritical+0x4c>
  402f28:	e5900000 	ldr	r0, [r0]
  402f2c:	e92e0001 	stmdb	lr!, {r0}
  402f30:	e59f0194 	ldr	r0, [pc, #404]	@ 4030cc <vPortExitCritical+0x48>
  402f34:	e5900000 	ldr	r0, [r0]
  402f38:	e580e000 	str	lr, [r0]
  402f3c:	e59f204c 	ldr	r2, [pc, #76]	@ 402f90 <vPortYieldProcessor+0xa8>
  402f40:	e5923000 	ldr	r3, [r2]
  402f44:	e59f3048 	ldr	r3, [pc, #72]	@ 402f94 <vPortYieldProcessor+0xac>
  402f48:	e5931000 	ldr	r1, [r3]
  402f4c:	ebfff9a7 	bl	4015f0 <vTaskSwitchContext>
  402f50:	e59f0174 	ldr	r0, [pc, #372]	@ 4030cc <vPortExitCritical+0x48>
  402f54:	e5900000 	ldr	r0, [r0]
  402f58:	e590e000 	ldr	lr, [r0]
  402f5c:	e59f016c 	ldr	r0, [pc, #364]	@ 4030d0 <vPortExitCritical+0x4c>
  402f60:	e8be0002 	ldm	lr!, {r1}
  402f64:	e5801000 	str	r1, [r0]
  402f68:	e8be0001 	ldm	lr!, {r0}
  402f6c:	e169f000 	msr	SPSR_fc, r0
  402f70:	e8de7fff 	ldm	lr, {r0, r1, r2, r3, r4, r5, r6, r7, r8, r9, sl, fp, ip, sp, lr}^
  402f74:	e1a00000 	nop			@ (mov r0, r0)
  402f78:	e59ee03c 	ldr	lr, [lr, #60]	@ 0x3c
  402f7c:	e25ef004 	subs	pc, lr, #4
  402f80:	e5922000 	ldr	r2, [r2]
  402f84:	e5933000 	ldr	r3, [r3]
  402f88:	e8bd000e 	pop	{r1, r2, r3}
  402f8c:	e1b0f00e 	movs	pc, lr
  402f90:	00404584 	subeq	r4, r0, r4, lsl #11
  402f94:	00407a58 	subeq	r7, r0, r8, asr sl

00402f98 <vTickISR>:
  402f98:	e24ee004 	sub	lr, lr, #4
  402f9c:	e92d503f 	push	{r0, r1, r2, r3, r4, r5, ip, lr}
  402fa0:	e92d0001 	stmfd	sp!, {r0}
  402fa4:	e94d2000 	stmdb	sp, {sp}^
  402fa8:	e1a00000 	nop			@ (mov r0, r0)
  402fac:	e24dd004 	sub	sp, sp, #4
  402fb0:	e8bd0001 	ldmfd	sp!, {r0}
  402fb4:	e9204000 	stmdb	r0!, {lr}
  402fb8:	e1a0e000 	mov	lr, r0
  402fbc:	e8bd0001 	ldmfd	sp!, {r0}
  402fc0:	e94e7fff 	stmdb	lr, {r0, r1, r2, r3, r4, r5, r6, r7, r8, r9, sl, fp, ip, sp, lr}^
  402fc4:	e1a00000 	nop			@ (mov r0, r0)
  402fc8:	e24ee03c 	sub	lr, lr, #60	@ 0x3c
  402fcc:	e14f0000 	mrs	r0, SPSR
  402fd0:	e92e0001 	stmdb	lr!, {r0}
  402fd4:	e59f00f4 	ldr	r0, [pc, #244]	@ 4030d0 <vPortExitCritical+0x4c>
  402fd8:	e5900000 	ldr	r0, [r0]
  402fdc:	e92e0001 	stmdb	lr!, {r0}
  402fe0:	e59f00e4 	ldr	r0, [pc, #228]	@ 4030cc <vPortExitCritical+0x48>
  402fe4:	e5900000 	ldr	r0, [r0]
  402fe8:	e580e000 	str	lr, [r0]
  402fec:	e59f505c 	ldr	r5, [pc, #92]	@ 403050 <SkipContextSwitch+0x44>
  402ff0:	e5953000 	ldr	r3, [r5]
  402ff4:	e59f4058 	ldr	r4, [pc, #88]	@ 403054 <SkipContextSwitch+0x48>
  402ff8:	e5943000 	ldr	r3, [r4]
  402ffc:	ebfff7f7 	bl	400fe0 <xTaskIncrementTick>
  403000:	e3500000 	cmp	r0, #0
  403004:	0a000000 	beq	40300c <SkipContextSwitch>
  403008:	ebfff978 	bl	4015f0 <vTaskSwitchContext>

0040300c <SkipContextSwitch>:
  40300c:	eb0001c6 	bl	40372c <getIntTmr>
  403010:	eb000190 	bl	403658 <clearInt>
  403014:	e59f00b0 	ldr	r0, [pc, #176]	@ 4030cc <vPortExitCritical+0x48>
  403018:	e5900000 	ldr	r0, [r0]
  40301c:	e590e000 	ldr	lr, [r0]
  403020:	e59f00a8 	ldr	r0, [pc, #168]	@ 4030d0 <vPortExitCritical+0x4c>
  403024:	e8be0002 	ldm	lr!, {r1}
  403028:	e5801000 	str	r1, [r0]
  40302c:	e8be0001 	ldm	lr!, {r0}
  403030:	e169f000 	msr	SPSR_fc, r0
  403034:	e8de7fff 	ldm	lr, {r0, r1, r2, r3, r4, r5, r6, r7, r8, r9, sl, fp, ip, sp, lr}^
  403038:	e1a00000 	nop			@ (mov r0, r0)
  40303c:	e59ee03c 	ldr	lr, [lr, #60]	@ 0x3c
  403040:	e25ef004 	subs	pc, lr, #4
  403044:	e5953000 	ldr	r3, [r5]
  403048:	e5943000 	ldr	r3, [r4]
  40304c:	e8fd903f 	ldm	sp!, {r0, r1, r2, r3, r4, r5, ip, pc}^
  403050:	00404584 	subeq	r4, r0, r4, lsl #11
  403054:	00407a58 	subeq	r7, r0, r8, asr sl

00403058 <vPortEnterCritical>:
  403058:	e92d0001 	stmfd	sp!, {r0}
  40305c:	e10f0000 	mrs	r0, CPSR
  403060:	e38000c0 	orr	r0, r0, #192	@ 0xc0
  403064:	e129f000 	msr	CPSR_fc, r0
  403068:	e8bd0001 	ldmfd	sp!, {r0}
  40306c:	e59f200c 	ldr	r2, [pc, #12]	@ 403080 <vPortEnterCritical+0x28>
  403070:	e5923000 	ldr	r3, [r2]
  403074:	e2833001 	add	r3, r3, #1
  403078:	e5823000 	str	r3, [r2]
  40307c:	e12fff1e 	bx	lr
  403080:	00404584 	subeq	r4, r0, r4, lsl #11

00403084 <vPortExitCritical>:
  403084:	e59f303c 	ldr	r3, [pc, #60]	@ 4030c8 <vPortExitCritical+0x44>
  403088:	e5933000 	ldr	r3, [r3]
  40308c:	e3530002 	cmp	r3, #2
  403090:	912fff1e 	bxls	lr
  403094:	e59f302c 	ldr	r3, [pc, #44]	@ 4030c8 <vPortExitCritical+0x44>
  403098:	e5932000 	ldr	r2, [r3]
  40309c:	e2422001 	sub	r2, r2, #1
  4030a0:	e5832000 	str	r2, [r3]
  4030a4:	e5933000 	ldr	r3, [r3]
  4030a8:	e3530002 	cmp	r3, #2
  4030ac:	112fff1e 	bxne	lr
  4030b0:	e92d0001 	stmfd	sp!, {r0}
  4030b4:	e10f0000 	mrs	r0, CPSR
  4030b8:	e3c000c0 	bic	r0, r0, #192	@ 0xc0
  4030bc:	e129f000 	msr	CPSR_fc, r0
  4030c0:	e8bd0001 	ldmfd	sp!, {r0}
  4030c4:	e12fff1e 	bx	lr
  4030c8:	00404584 	subeq	r4, r0, r4, lsl #11
  4030cc:	00407a58 	subeq	r7, r0, r8, asr sl
  4030d0:	00404584 	subeq	r4, r0, r4, lsl #11

004030d4 <vListInitialise>:
  4030d4:	e2803008 	add	r3, r0, #8
  4030d8:	e5803004 	str	r3, [r0, #4]
  4030dc:	e3e02000 	mvn	r2, #0
  4030e0:	e5802008 	str	r2, [r0, #8]
  4030e4:	e580300c 	str	r3, [r0, #12]
  4030e8:	e5803010 	str	r3, [r0, #16]
  4030ec:	e3a03000 	mov	r3, #0
  4030f0:	e5803000 	str	r3, [r0]
  4030f4:	e12fff1e 	bx	lr

004030f8 <vListInitialiseItem>:
  4030f8:	e3a03000 	mov	r3, #0
  4030fc:	e5803010 	str	r3, [r0, #16]
  403100:	e12fff1e 	bx	lr

00403104 <vListInsertEnd>:
  403104:	e5903004 	ldr	r3, [r0, #4]
  403108:	e5813004 	str	r3, [r1, #4]
  40310c:	e5932008 	ldr	r2, [r3, #8]
  403110:	e5812008 	str	r2, [r1, #8]
  403114:	e5821004 	str	r1, [r2, #4]
  403118:	e5831008 	str	r1, [r3, #8]
  40311c:	e5810010 	str	r0, [r1, #16]
  403120:	e5903000 	ldr	r3, [r0]
  403124:	e2833001 	add	r3, r3, #1
  403128:	e5803000 	str	r3, [r0]
  40312c:	e12fff1e 	bx	lr

00403130 <vListInsert>:
  403130:	e52de004 	push	{lr}		@ (str lr, [sp, #-4]!)
  403134:	e591e000 	ldr	lr, [r1]
  403138:	e37e0001 	cmn	lr, #1
  40313c:	0a000010 	beq	403184 <vListInsert+0x54>
  403140:	e2803008 	add	r3, r0, #8
  403144:	e1a0c003 	mov	ip, r3
  403148:	e5933004 	ldr	r3, [r3, #4]
  40314c:	e5932000 	ldr	r2, [r3]
  403150:	e152000e 	cmp	r2, lr
  403154:	9afffffa 	bls	403144 <vListInsert+0x14>
  403158:	e59c3004 	ldr	r3, [ip, #4]
  40315c:	e5813004 	str	r3, [r1, #4]
  403160:	e5831008 	str	r1, [r3, #8]
  403164:	e581c008 	str	ip, [r1, #8]
  403168:	e58c1004 	str	r1, [ip, #4]
  40316c:	e5810010 	str	r0, [r1, #16]
  403170:	e5903000 	ldr	r3, [r0]
  403174:	e2833001 	add	r3, r3, #1
  403178:	e5803000 	str	r3, [r0]
  40317c:	e49de004 	pop	{lr}		@ (ldr lr, [sp], #4)
  403180:	e12fff1e 	bx	lr
  403184:	e590c010 	ldr	ip, [r0, #16]
  403188:	eafffff2 	b	403158 <vListInsert+0x28>

0040318c <uxListRemove>:
  40318c:	e5903010 	ldr	r3, [r0, #16]
  403190:	e5901004 	ldr	r1, [r0, #4]
  403194:	e5902008 	ldr	r2, [r0, #8]
  403198:	e5812008 	str	r2, [r1, #8]
  40319c:	e5901004 	ldr	r1, [r0, #4]
  4031a0:	e5821004 	str	r1, [r2, #4]
  4031a4:	e5932004 	ldr	r2, [r3, #4]
  4031a8:	e1520000 	cmp	r2, r0
  4031ac:	0a000005 	beq	4031c8 <uxListRemove+0x3c>
  4031b0:	e3a02000 	mov	r2, #0
  4031b4:	e5802010 	str	r2, [r0, #16]
  4031b8:	e5930000 	ldr	r0, [r3]
  4031bc:	e2400001 	sub	r0, r0, #1
  4031c0:	e5830000 	str	r0, [r3]
  4031c4:	e12fff1e 	bx	lr
  4031c8:	e5902008 	ldr	r2, [r0, #8]
  4031cc:	e5832004 	str	r2, [r3, #4]
  4031d0:	eafffff6 	b	4031b0 <uxListRemove+0x24>

004031d4 <gpio_set_port_dir_input>:
  4031d4:	e3500001 	cmp	r0, #1
  4031d8:	8a000004 	bhi	4031f0 <gpio_set_port_dir_input+0x1c>
  4031dc:	e2800018 	add	r0, r0, #24
  4031e0:	e3a03102 	mov	r3, #-2147483648	@ 0x80000000
  4031e4:	e7831100 	str	r1, [r3, r0, lsl #2]
  4031e8:	e3a00000 	mov	r0, #0
  4031ec:	e12fff1e 	bx	lr
  4031f0:	e3a00001 	mov	r0, #1
  4031f4:	e12fff1e 	bx	lr

004031f8 <gpio_set_port_dir_output>:
  4031f8:	e3500001 	cmp	r0, #1
  4031fc:	8a000004 	bhi	403214 <gpio_set_port_dir_output+0x1c>
  403200:	e2800016 	add	r0, r0, #22
  403204:	e3a03102 	mov	r3, #-2147483648	@ 0x80000000
  403208:	e7831100 	str	r1, [r3, r0, lsl #2]
  40320c:	e3a00000 	mov	r0, #0
  403210:	e12fff1e 	bx	lr
  403214:	e3a00001 	mov	r0, #1
  403218:	e12fff1e 	bx	lr

0040321c <gpio_set_pin_dir_input>:
  40321c:	e350003f 	cmp	r0, #63	@ 0x3f
  403220:	8a000008 	bhi	403248 <gpio_set_pin_dir_input+0x2c>
  403224:	e200201f 	and	r2, r0, #31
  403228:	e1a002a0 	lsr	r0, r0, #5
  40322c:	e3a03001 	mov	r3, #1
  403230:	e1a03213 	lsl	r3, r3, r2
  403234:	e2800018 	add	r0, r0, #24
  403238:	e3a02102 	mov	r2, #-2147483648	@ 0x80000000
  40323c:	e7823100 	str	r3, [r2, r0, lsl #2]
  403240:	e3a00000 	mov	r0, #0
  403244:	e12fff1e 	bx	lr
  403248:	e3a00001 	mov	r0, #1
  40324c:	e12fff1e 	bx	lr

00403250 <gpio_set_pin_dir_output>:
  403250:	e350003f 	cmp	r0, #63	@ 0x3f
  403254:	8a000008 	bhi	40327c <gpio_set_pin_dir_output+0x2c>
  403258:	e200201f 	and	r2, r0, #31
  40325c:	e1a002a0 	lsr	r0, r0, #5
  403260:	e3a03001 	mov	r3, #1
  403264:	e1a03213 	lsl	r3, r3, r2
  403268:	e2800016 	add	r0, r0, #22
  40326c:	e3a02102 	mov	r2, #-2147483648	@ 0x80000000
  403270:	e7823100 	str	r3, [r2, r0, lsl #2]
  403274:	e3a00000 	mov	r0, #0
  403278:	e12fff1e 	bx	lr
  40327c:	e3a00001 	mov	r0, #1
  403280:	e12fff1e 	bx	lr

00403284 <gpio_set_port>:
  403284:	e3500001 	cmp	r0, #1
  403288:	8a000004 	bhi	4032a0 <gpio_set_port+0x1c>
  40328c:	e2800012 	add	r0, r0, #18
  403290:	e3a03102 	mov	r3, #-2147483648	@ 0x80000000
  403294:	e7831100 	str	r1, [r3, r0, lsl #2]
  403298:	e3a00000 	mov	r0, #0
  40329c:	e12fff1e 	bx	lr
  4032a0:	e3a00001 	mov	r0, #1
  4032a4:	e12fff1e 	bx	lr

004032a8 <gpio_clear_port>:
  4032a8:	e3500001 	cmp	r0, #1
  4032ac:	8a000004 	bhi	4032c4 <gpio_clear_port+0x1c>
  4032b0:	e2800014 	add	r0, r0, #20
  4032b4:	e3a03102 	mov	r3, #-2147483648	@ 0x80000000
  4032b8:	e7831100 	str	r1, [r3, r0, lsl #2]
  4032bc:	e3a00000 	mov	r0, #0
  4032c0:	e12fff1e 	bx	lr
  4032c4:	e3a00001 	mov	r0, #1
  4032c8:	e12fff1e 	bx	lr

004032cc <gpio_set_pin>:
  4032cc:	e350003f 	cmp	r0, #63	@ 0x3f
  4032d0:	8a000008 	bhi	4032f8 <gpio_set_pin+0x2c>
  4032d4:	e200201f 	and	r2, r0, #31
  4032d8:	e1a002a0 	lsr	r0, r0, #5
  4032dc:	e3a03001 	mov	r3, #1
  4032e0:	e1a03213 	lsl	r3, r3, r2
  4032e4:	e2800012 	add	r0, r0, #18
  4032e8:	e3a02102 	mov	r2, #-2147483648	@ 0x80000000
  4032ec:	e7823100 	str	r3, [r2, r0, lsl #2]
  4032f0:	e3a00000 	mov	r0, #0
  4032f4:	e12fff1e 	bx	lr
  4032f8:	e3a00001 	mov	r0, #1
  4032fc:	e12fff1e 	bx	lr

00403300 <gpio_clear_pin>:
  403300:	e350003f 	cmp	r0, #63	@ 0x3f
  403304:	8a000008 	bhi	40332c <gpio_clear_pin+0x2c>
  403308:	e200201f 	and	r2, r0, #31
  40330c:	e1a002a0 	lsr	r0, r0, #5
  403310:	e3a03001 	mov	r3, #1
  403314:	e1a03213 	lsl	r3, r3, r2
  403318:	e2800014 	add	r0, r0, #20
  40331c:	e3a02102 	mov	r2, #-2147483648	@ 0x80000000
  403320:	e7823100 	str	r3, [r2, r0, lsl #2]
  403324:	e3a00000 	mov	r0, #0
  403328:	e12fff1e 	bx	lr
  40332c:	e3a00001 	mov	r0, #1
  403330:	e12fff1e 	bx	lr

00403334 <gpio_get_port>:
  403334:	e3500001 	cmp	r0, #1
  403338:	8a000005 	bhi	403354 <gpio_get_port+0x20>
  40333c:	e2800002 	add	r0, r0, #2
  403340:	e3a03102 	mov	r3, #-2147483648	@ 0x80000000
  403344:	e7933100 	ldr	r3, [r3, r0, lsl #2]
  403348:	e5813000 	str	r3, [r1]
  40334c:	e3a00000 	mov	r0, #0
  403350:	e12fff1e 	bx	lr
  403354:	e3a00001 	mov	r0, #1
  403358:	e12fff1e 	bx	lr

0040335c <gpio_get_pin>:
  40335c:	e350003f 	cmp	r0, #63	@ 0x3f
  403360:	8a000009 	bhi	40338c <gpio_get_pin+0x30>
  403364:	e1a032a0 	lsr	r3, r0, #5
  403368:	e2833002 	add	r3, r3, #2
  40336c:	e3a02102 	mov	r2, #-2147483648	@ 0x80000000
  403370:	e7923103 	ldr	r3, [r2, r3, lsl #2]
  403374:	e200001f 	and	r0, r0, #31
  403378:	e3a02001 	mov	r2, #1
  40337c:	e0033012 	and	r3, r3, r2, lsl r0
  403380:	e5813000 	str	r3, [r1]
  403384:	e3a00000 	mov	r0, #0
  403388:	e12fff1e 	bx	lr
  40338c:	e3a00001 	mov	r0, #1
  403390:	e12fff1e 	bx	lr

00403394 <gpio_set_port_func>:
  403394:	e3510003 	cmp	r1, #3
  403398:	93500001 	cmpls	r0, #1
  40339c:	8a000004 	bhi	4033b4 <gpio_set_port_func+0x20>
  4033a0:	e3a03000 	mov	r3, #0
  4033a4:	ea000005 	b	4033c0 <gpio_set_port_func+0x2c>
  4033a8:	e3a00000 	mov	r0, #0
  4033ac:	e8bd4070 	pop	{r4, r5, r6, lr}
  4033b0:	e12fff1e 	bx	lr
  4033b4:	e3a00001 	mov	r0, #1
  4033b8:	e12fff1e 	bx	lr
  4033bc:	e2833001 	add	r3, r3, #1
  4033c0:	e353001f 	cmp	r3, #31
  4033c4:	8a000017 	bhi	403428 <gpio_set_port_func+0x94>
  4033c8:	e3a0c001 	mov	ip, #1
  4033cc:	e012c31c 	ands	ip, r2, ip, lsl r3
  4033d0:	0afffff9 	beq	4033bc <gpio_set_port_func+0x28>
  4033d4:	e92d4070 	push	{r4, r5, r6, lr}
  4033d8:	e083c280 	add	ip, r3, r0, lsl #5
  4033dc:	e1a0e22c 	lsr	lr, ip, #4
  4033e0:	e1a0c08c 	lsl	ip, ip, #1
  4033e4:	e20cc01e 	and	ip, ip, #30
  4033e8:	e3a04102 	mov	r4, #-2147483648	@ 0x80000000
  4033ec:	e28ee006 	add	lr, lr, #6
  4033f0:	e794510e 	ldr	r5, [r4, lr, lsl #2]
  4033f4:	e3a06003 	mov	r6, #3
  4033f8:	e1c55c16 	bic	r5, r5, r6, lsl ip
  4033fc:	e784510e 	str	r5, [r4, lr, lsl #2]
  403400:	e794510e 	ldr	r5, [r4, lr, lsl #2]
  403404:	e185cc11 	orr	ip, r5, r1, lsl ip
  403408:	e784c10e 	str	ip, [r4, lr, lsl #2]
  40340c:	e2833001 	add	r3, r3, #1
  403410:	e353001f 	cmp	r3, #31
  403414:	8affffe3 	bhi	4033a8 <gpio_set_port_func+0x14>
  403418:	e3a0c001 	mov	ip, #1
  40341c:	e012c31c 	ands	ip, r2, ip, lsl r3
  403420:	0afffff9 	beq	40340c <gpio_set_port_func+0x78>
  403424:	eaffffeb 	b	4033d8 <gpio_set_port_func+0x44>
  403428:	e3a00000 	mov	r0, #0
  40342c:	e12fff1e 	bx	lr

00403430 <gpio_set_pin_func>:
  403430:	e3510003 	cmp	r1, #3
  403434:	9350003f 	cmpls	r0, #63	@ 0x3f
  403438:	8a00000f 	bhi	40347c <gpio_set_pin_func+0x4c>
  40343c:	e52de004 	push	{lr}		@ (str lr, [sp, #-4]!)
  403440:	e1a03220 	lsr	r3, r0, #4
  403444:	e1a00080 	lsl	r0, r0, #1
  403448:	e200001e 	and	r0, r0, #30
  40344c:	e3a02102 	mov	r2, #-2147483648	@ 0x80000000
  403450:	e2833006 	add	r3, r3, #6
  403454:	e792c103 	ldr	ip, [r2, r3, lsl #2]
  403458:	e3a0e003 	mov	lr, #3
  40345c:	e1ccc01e 	bic	ip, ip, lr, lsl r0
  403460:	e782c103 	str	ip, [r2, r3, lsl #2]
  403464:	e792c103 	ldr	ip, [r2, r3, lsl #2]
  403468:	e18c1011 	orr	r1, ip, r1, lsl r0
  40346c:	e7821103 	str	r1, [r2, r3, lsl #2]
  403470:	e3a00000 	mov	r0, #0
  403474:	e49de004 	pop	{lr}		@ (ldr lr, [sp], #4)
  403478:	e12fff1e 	bx	lr
  40347c:	e3a00001 	mov	r0, #1
  403480:	e12fff1e 	bx	lr

00403484 <itc_init>:
  403484:	e3a03000 	mov	r3, #0
  403488:	ea000003 	b	40349c <itc_init+0x18>
  40348c:	e59f2028 	ldr	r2, [pc, #40]	@ 4034bc <itc_init+0x38>
  403490:	e3a01000 	mov	r1, #0
  403494:	e7821103 	str	r1, [r2, r3, lsl #2]
  403498:	e2833001 	add	r3, r3, #1
  40349c:	e353000a 	cmp	r3, #10
  4034a0:	9afffff9 	bls	40348c <itc_init+0x8>
  4034a4:	e59f3014 	ldr	r3, [pc, #20]	@ 4034c0 <itc_init+0x3c>
  4034a8:	e3a02000 	mov	r2, #0
  4034ac:	e5832034 	str	r2, [r3, #52]	@ 0x34
  4034b0:	e5832000 	str	r2, [r3]
  4034b4:	e5832010 	str	r2, [r3, #16]
  4034b8:	e12fff1e 	bx	lr
  4034bc:	0040fa8c 	subeq	pc, r0, ip, lsl #21
  4034c0:	80020000 	andhi	r0, r2, r0

004034c4 <itc_disable_ints>:
  4034c4:	e59f3014 	ldr	r3, [pc, #20]	@ 4034e0 <itc_disable_ints+0x1c>
  4034c8:	e5931010 	ldr	r1, [r3, #16]
  4034cc:	e59f2010 	ldr	r2, [pc, #16]	@ 4034e4 <itc_disable_ints+0x20>
  4034d0:	e582102c 	str	r1, [r2, #44]	@ 0x2c
  4034d4:	e3a02000 	mov	r2, #0
  4034d8:	e5832010 	str	r2, [r3, #16]
  4034dc:	e12fff1e 	bx	lr
  4034e0:	80020000 	andhi	r0, r2, r0
  4034e4:	0040fa8c 	subeq	pc, r0, ip, lsl #21

004034e8 <itc_restore_ints>:
  4034e8:	e59f300c 	ldr	r3, [pc, #12]	@ 4034fc <itc_restore_ints+0x14>
  4034ec:	e593202c 	ldr	r2, [r3, #44]	@ 0x2c
  4034f0:	e59f3008 	ldr	r3, [pc, #8]	@ 403500 <itc_restore_ints+0x18>
  4034f4:	e5832010 	str	r2, [r3, #16]
  4034f8:	e12fff1e 	bx	lr
  4034fc:	0040fa8c 	subeq	pc, r0, ip, lsl #21
  403500:	80020000 	andhi	r0, r2, r0

00403504 <itc_set_handler>:
  403504:	e59f3004 	ldr	r3, [pc, #4]	@ 403510 <itc_set_handler+0xc>
  403508:	e7831100 	str	r1, [r3, r0, lsl #2]
  40350c:	e12fff1e 	bx	lr
  403510:	0040fa8c 	subeq	pc, r0, ip, lsl #21

00403514 <itc_set_priority>:
  403514:	e3510000 	cmp	r1, #0
  403518:	0a000004 	beq	403530 <itc_set_priority+0x1c>
  40351c:	e3a03001 	mov	r3, #1
  403520:	e1a03013 	lsl	r3, r3, r0
  403524:	e59f201c 	ldr	r2, [pc, #28]	@ 403548 <itc_set_priority+0x34>
  403528:	e5823014 	str	r3, [r2, #20]
  40352c:	e12fff1e 	bx	lr
  403530:	e59f2010 	ldr	r2, [pc, #16]	@ 403548 <itc_set_priority+0x34>
  403534:	e5923014 	ldr	r3, [r2, #20]
  403538:	e3a01001 	mov	r1, #1
  40353c:	e1c33011 	bic	r3, r3, r1, lsl r0
  403540:	e5823014 	str	r3, [r2, #20]
  403544:	e12fff1e 	bx	lr
  403548:	80020000 	andhi	r0, r2, r0

0040354c <itc_enable_interrupt>:
  40354c:	e59f3004 	ldr	r3, [pc, #4]	@ 403558 <itc_enable_interrupt+0xc>
  403550:	e5830008 	str	r0, [r3, #8]
  403554:	e12fff1e 	bx	lr
  403558:	80020000 	andhi	r0, r2, r0

0040355c <itc_disable_interrupt>:
  40355c:	e59f3004 	ldr	r3, [pc, #4]	@ 403568 <itc_disable_interrupt+0xc>
  403560:	e583000c 	str	r0, [r3, #12]
  403564:	e12fff1e 	bx	lr
  403568:	80020000 	andhi	r0, r2, r0

0040356c <itc_force_interrupt>:
  40356c:	e59f2010 	ldr	r2, [pc, #16]	@ 403584 <itc_force_interrupt+0x18>
  403570:	e5923034 	ldr	r3, [r2, #52]	@ 0x34
  403574:	e3a01001 	mov	r1, #1
  403578:	e1833011 	orr	r3, r3, r1, lsl r0
  40357c:	e5823034 	str	r3, [r2, #52]	@ 0x34
  403580:	e12fff1e 	bx	lr
  403584:	80020000 	andhi	r0, r2, r0

00403588 <itc_unforce_interrupt>:
  403588:	e59f2010 	ldr	r2, [pc, #16]	@ 4035a0 <itc_unforce_interrupt+0x18>
  40358c:	e5923034 	ldr	r3, [r2, #52]	@ 0x34
  403590:	e3a01001 	mov	r1, #1
  403594:	e1c33011 	bic	r3, r3, r1, lsl r0
  403598:	e5823034 	str	r3, [r2, #52]	@ 0x34
  40359c:	e12fff1e 	bx	lr
  4035a0:	80020000 	andhi	r0, r2, r0

004035a4 <itc_service_normal_interrupt>:
  4035a4:	e92d4010 	push	{r4, lr}
  4035a8:	e59f3018 	ldr	r3, [pc, #24]	@ 4035c8 <itc_service_normal_interrupt+0x24>
  4035ac:	e5932028 	ldr	r2, [r3, #40]	@ 0x28
  4035b0:	e59f3014 	ldr	r3, [pc, #20]	@ 4035cc <itc_service_normal_interrupt+0x28>
  4035b4:	e7933102 	ldr	r3, [r3, r2, lsl #2]
  4035b8:	e1a0e00f 	mov	lr, pc
  4035bc:	e12fff13 	bx	r3
  4035c0:	e8bd4010 	pop	{r4, lr}
  4035c4:	e12fff1e 	bx	lr
  4035c8:	80020000 	andhi	r0, r2, r0
  4035cc:	0040fa8c 	subeq	pc, r0, ip, lsl #21

004035d0 <itc_service_fast_interrupt>:
  4035d0:	e92d4010 	push	{r4, lr}
  4035d4:	e59f3018 	ldr	r3, [pc, #24]	@ 4035f4 <itc_service_fast_interrupt+0x24>
  4035d8:	e593202c 	ldr	r2, [r3, #44]	@ 0x2c
  4035dc:	e59f3014 	ldr	r3, [pc, #20]	@ 4035f8 <itc_service_fast_interrupt+0x28>
  4035e0:	e7933102 	ldr	r3, [r3, r2, lsl #2]
  4035e4:	e1a0e00f 	mov	lr, pc
  4035e8:	e12fff13 	bx	r3
  4035ec:	e8bd4010 	pop	{r4, lr}
  4035f0:	e12fff1e 	bx	lr
  4035f4:	80020000 	andhi	r0, r2, r0
  4035f8:	0040fa8c 	subeq	pc, r0, ip, lsl #21

004035fc <timerEnable>:
  4035fc:	e3500003 	cmp	r0, #3
  403600:	812fff1e 	bxhi	lr
  403604:	e59f2018 	ldr	r2, [pc, #24]	@ 403624 <timerEnable+0x28>
  403608:	e1d231b8 	ldrh	r3, [r2, #24]
  40360c:	e3a01001 	mov	r1, #1
  403610:	e1833011 	orr	r3, r3, r1, lsl r0
  403614:	e1a03803 	lsl	r3, r3, #16
  403618:	e1a03823 	lsr	r3, r3, #16
  40361c:	e1c231b8 	strh	r3, [r2, #24]
  403620:	e12fff1e 	bx	lr
  403624:	80007000 	andhi	r7, r0, r0

00403628 <timerDisable>:
  403628:	e3500003 	cmp	r0, #3
  40362c:	812fff1e 	bxhi	lr
  403630:	e59f101c 	ldr	r1, [pc, #28]	@ 403654 <timerDisable+0x2c>
  403634:	e1d121b8 	ldrh	r2, [r1, #24]
  403638:	e3a03001 	mov	r3, #1
  40363c:	e1e03013 	mvn	r3, r3, lsl r0
  403640:	e1a03803 	lsl	r3, r3, #16
  403644:	e1a03843 	asr	r3, r3, #16
  403648:	e0033002 	and	r3, r3, r2
  40364c:	e1c131b8 	strh	r3, [r1, #24]
  403650:	e12fff1e 	bx	lr
  403654:	80007000 	andhi	r7, r0, r0

00403658 <clearInt>:
  403658:	e0803080 	add	r3, r0, r0, lsl #1
  40365c:	e0803103 	add	r3, r0, r3, lsl #2
  403660:	e1a03083 	lsl	r3, r3, #1
  403664:	e2833102 	add	r3, r3, #-2147483648	@ 0x80000000
  403668:	e2833a07 	add	r3, r3, #28672	@ 0x7000
  40366c:	e1d320be 	ldrh	r2, [r3, #14]
  403670:	e3c22902 	bic	r2, r2, #32768	@ 0x8000
  403674:	e1c320be 	strh	r2, [r3, #14]
  403678:	e1d321b4 	ldrh	r2, [r3, #20]
  40367c:	e3c22010 	bic	r2, r2, #16
  403680:	e1c321b4 	strh	r2, [r3, #20]
  403684:	e1d321b4 	ldrh	r2, [r3, #20]
  403688:	e3c22020 	bic	r2, r2, #32
  40368c:	e1c321b4 	strh	r2, [r3, #20]
  403690:	e12fff1e 	bx	lr

00403694 <TimerInt_Init>:
  403694:	e92d4070 	push	{r4, r5, r6, lr}
  403698:	e1a04000 	mov	r4, r0
  40369c:	e59f0084 	ldr	r0, [pc, #132]	@ 403728 <TimerInt_Init+0x94>
  4036a0:	eb000302 	bl	4042b0 <__divsi3>
  4036a4:	e1a05000 	mov	r5, r0
  4036a8:	e1a00004 	mov	r0, r4
  4036ac:	ebffffdd 	bl	403628 <timerDisable>
  4036b0:	e0843084 	add	r3, r4, r4, lsl #1
  4036b4:	e0843103 	add	r3, r4, r3, lsl #2
  4036b8:	e1a03083 	lsl	r3, r3, #1
  4036bc:	e2833102 	add	r3, r3, #-2147483648	@ 0x80000000
  4036c0:	e2833a07 	add	r3, r3, #28672	@ 0x7000
  4036c4:	e3a02020 	mov	r2, #32
  4036c8:	e1c320bc 	strh	r2, [r3, #12]
  4036cc:	e3a02000 	mov	r2, #0
  4036d0:	e1c320be 	strh	r2, [r3, #14]
  4036d4:	e1c320b6 	strh	r2, [r3, #6]
  4036d8:	e1a00805 	lsl	r0, r5, #16
  4036dc:	e1a00820 	lsr	r0, r0, #16
  4036e0:	e1c300b0 	strh	r0, [r3]
  4036e4:	e1c301b0 	strh	r0, [r3, #16]
  4036e8:	e3a01041 	mov	r1, #65	@ 0x41
  4036ec:	e1c311b4 	strh	r1, [r3, #20]
  4036f0:	e1d310bc 	ldrh	r1, [r3, #12]
  4036f4:	e3811c1e 	orr	r1, r1, #7680	@ 0x1e00
  4036f8:	e1c310bc 	strh	r1, [r3, #12]
  4036fc:	e1c320ba 	strh	r2, [r3, #10]
  403700:	e1d320bc 	ldrh	r2, [r3, #12]
  403704:	e3c22903 	bic	r2, r2, #49152	@ 0xc000
  403708:	e3822a02 	orr	r2, r2, #8192	@ 0x2000
  40370c:	e1c320bc 	strh	r2, [r3, #12]
  403710:	e1a00004 	mov	r0, r4
  403714:	ebffffcf 	bl	403658 <clearInt>
  403718:	e1a00004 	mov	r0, r4
  40371c:	ebffffb6 	bl	4035fc <timerEnable>
  403720:	e8bd4070 	pop	{r4, r5, r6, lr}
  403724:	e12fff1e 	bx	lr
  403728:	0002dc6c 	andeq	sp, r2, ip, ror #24

0040372c <getIntTmr>:
  40372c:	e59f305c 	ldr	r3, [pc, #92]	@ 403790 <getIntTmr+0x64>
  403730:	e1d330be 	ldrh	r3, [r3, #14]
  403734:	e1b037a3 	lsrs	r3, r3, #15
  403738:	1a00000e 	bne	403778 <getIntTmr+0x4c>
  40373c:	e3a00004 	mov	r0, #4
  403740:	e59f3048 	ldr	r3, [pc, #72]	@ 403790 <getIntTmr+0x64>
  403744:	e1d332b8 	ldrh	r3, [r3, #40]	@ 0x28
  403748:	e1b037a3 	lsrs	r3, r3, #15
  40374c:	1a00000b 	bne	403780 <getIntTmr+0x54>
  403750:	e59f3038 	ldr	r3, [pc, #56]	@ 403790 <getIntTmr+0x64>
  403754:	e1d334b2 	ldrh	r3, [r3, #66]	@ 0x42
  403758:	e1b037a3 	lsrs	r3, r3, #15
  40375c:	1a000009 	bne	403788 <getIntTmr+0x5c>
  403760:	e59f3028 	ldr	r3, [pc, #40]	@ 403790 <getIntTmr+0x64>
  403764:	e1d335bc 	ldrh	r3, [r3, #92]	@ 0x5c
  403768:	e1b037a3 	lsrs	r3, r3, #15
  40376c:	012fff1e 	bxeq	lr
  403770:	e3a00003 	mov	r0, #3
  403774:	e12fff1e 	bx	lr
  403778:	e3a00000 	mov	r0, #0
  40377c:	eaffffef 	b	403740 <getIntTmr+0x14>
  403780:	e3a00001 	mov	r0, #1
  403784:	eafffff1 	b	403750 <getIntTmr+0x24>
  403788:	e3a00002 	mov	r0, #2
  40378c:	eafffff3 	b	403760 <getIntTmr+0x34>
  403790:	80007000 	andhi	r7, r0, r0

00403794 <bsp_excep_init>:
  403794:	e92d4010 	push	{r4, lr}
  403798:	eb0000be 	bl	403a98 <excep_init>
  40379c:	ebffff38 	bl	403484 <itc_init>
  4037a0:	e8bd4010 	pop	{r4, lr}
  4037a4:	e12fff1e 	bx	lr

004037a8 <bsp_sys_init>:
  4037a8:	e92d4010 	push	{r4, lr}
  4037ac:	e59f4024 	ldr	r4, [pc, #36]	@ 4037d8 <bsp_sys_init+0x30>
  4037b0:	e59f2024 	ldr	r2, [pc, #36]	@ 4037dc <bsp_sys_init+0x34>
  4037b4:	e1a01004 	mov	r1, r4
  4037b8:	e3a00000 	mov	r0, #0
  4037bc:	eb00019b 	bl	403e30 <uart_init>
  4037c0:	e59f2018 	ldr	r2, [pc, #24]	@ 4037e0 <bsp_sys_init+0x38>
  4037c4:	e1a01004 	mov	r1, r4
  4037c8:	e3a00001 	mov	r0, #1
  4037cc:	eb000197 	bl	403e30 <uart_init>
  4037d0:	e8bd4010 	pop	{r4, lr}
  4037d4:	e12fff1e 	bx	lr
  4037d8:	0001c200 	andeq	ip, r1, r0, lsl #4
  4037dc:	00404540 	subeq	r4, r0, r0, asr #10
  4037e0:	0040454c 	subeq	r4, r0, ip, asr #10

004037e4 <bsp_io_redirect>:
  4037e4:	e92d4070 	push	{r4, r5, r6, lr}
  4037e8:	e1a06001 	mov	r6, r1
  4037ec:	e1a04002 	mov	r4, r2
  4037f0:	e59f5040 	ldr	r5, [pc, #64]	@ 403838 <bsp_io_redirect+0x54>
  4037f4:	e1a03005 	mov	r3, r5
  4037f8:	e3a02000 	mov	r2, #0
  4037fc:	e1a01000 	mov	r1, r0
  403800:	e1a00002 	mov	r0, r2
  403804:	eb00007c 	bl	4039fc <redirect_fd>
  403808:	e1a03005 	mov	r3, r5
  40380c:	e3a02001 	mov	r2, #1
  403810:	e1a01006 	mov	r1, r6
  403814:	e1a00002 	mov	r0, r2
  403818:	eb000077 	bl	4039fc <redirect_fd>
  40381c:	e1a03005 	mov	r3, r5
  403820:	e3a02001 	mov	r2, #1
  403824:	e1a01004 	mov	r1, r4
  403828:	e3a00002 	mov	r0, #2
  40382c:	eb000072 	bl	4039fc <redirect_fd>
  403830:	e8bd4070 	pop	{r4, r5, r6, lr}
  403834:	e12fff1e 	bx	lr
  403838:	000001ff 	strdeq	r0, [r0], -pc	@ <UNPREDICTABLE>

0040383c <bsp_init>:
  40383c:	e92d4010 	push	{r4, lr}
  403840:	ebffffd3 	bl	403794 <bsp_excep_init>
  403844:	ebffffd7 	bl	4037a8 <bsp_sys_init>
  403848:	e59f0010 	ldr	r0, [pc, #16]	@ 403860 <bsp_init+0x24>
  40384c:	e1a02000 	mov	r2, r0
  403850:	e1a01000 	mov	r1, r0
  403854:	ebffffe2 	bl	4037e4 <bsp_io_redirect>
  403858:	e8bd4010 	pop	{r4, lr}
  40385c:	e12fff1e 	bx	lr
  403860:	00404540 	subeq	r4, r0, r0, asr #10

00403864 <bsp_register_dev>:
  403864:	e92d4030 	push	{r4, r5, lr}
  403868:	e1a04000 	mov	r4, r0
  40386c:	e59f0068 	ldr	r0, [pc, #104]	@ 4038dc <bsp_register_dev+0x78>
  403870:	e590e000 	ldr	lr, [r0]
  403874:	e35e0007 	cmp	lr, #7
  403878:	8a000015 	bhi	4038d4 <bsp_register_dev+0x70>
  40387c:	e1a0000e 	mov	r0, lr
  403880:	e59fc054 	ldr	ip, [pc, #84]	@ 4038dc <bsp_register_dev+0x78>
  403884:	e28e5001 	add	r5, lr, #1
  403888:	e58c5000 	str	r5, [ip]
  40388c:	e08ee18e 	add	lr, lr, lr, lsl #3
  403890:	e08cc10e 	add	ip, ip, lr, lsl #2
  403894:	e58c4004 	str	r4, [ip, #4]
  403898:	e58c1008 	str	r1, [ip, #8]
  40389c:	e58c200c 	str	r2, [ip, #12]
  4038a0:	e58c3010 	str	r3, [ip, #16]
  4038a4:	e59d300c 	ldr	r3, [sp, #12]
  4038a8:	e58c3014 	str	r3, [ip, #20]
  4038ac:	e59d3010 	ldr	r3, [sp, #16]
  4038b0:	e58c3018 	str	r3, [ip, #24]
  4038b4:	e59d3014 	ldr	r3, [sp, #20]
  4038b8:	e58c301c 	str	r3, [ip, #28]
  4038bc:	e59d3018 	ldr	r3, [sp, #24]
  4038c0:	e58c3020 	str	r3, [ip, #32]
  4038c4:	e59d301c 	ldr	r3, [sp, #28]
  4038c8:	e58c3024 	str	r3, [ip, #36]	@ 0x24
  4038cc:	e8bd4030 	pop	{r4, r5, lr}
  4038d0:	e12fff1e 	bx	lr
  4038d4:	e3e00000 	mvn	r0, #0
  4038d8:	eafffffb 	b	4038cc <bsp_register_dev+0x68>
  4038dc:	00404588 	subeq	r4, r0, r8, lsl #11

004038e0 <find_dev>:
  4038e0:	e92d4070 	push	{r4, r5, r6, lr}
  4038e4:	e1a06000 	mov	r6, r0
  4038e8:	eb00054f 	bl	404e2c <strlen>
  4038ec:	e2805001 	add	r5, r0, #1
  4038f0:	e3a04000 	mov	r4, #0
  4038f4:	ea000000 	b	4038fc <find_dev+0x1c>
  4038f8:	e2844001 	add	r4, r4, #1
  4038fc:	e59f3048 	ldr	r3, [pc, #72]	@ 40394c <find_dev+0x6c>
  403900:	e5933000 	ldr	r3, [r3]
  403904:	e1530004 	cmp	r3, r4
  403908:	9a00000c 	bls	403940 <find_dev+0x60>
  40390c:	e084c184 	add	ip, r4, r4, lsl #3
  403910:	e59f3034 	ldr	r3, [pc, #52]	@ 40394c <find_dev+0x6c>
  403914:	e083310c 	add	r3, r3, ip, lsl #2
  403918:	e1a02005 	mov	r2, r5
  40391c:	e1a01006 	mov	r1, r6
  403920:	e5930004 	ldr	r0, [r3, #4]
  403924:	eb000374 	bl	4046fc <memcmp>
  403928:	e3500000 	cmp	r0, #0
  40392c:	1afffff1 	bne	4038f8 <find_dev+0x18>
  403930:	e0844184 	add	r4, r4, r4, lsl #3
  403934:	e59f0014 	ldr	r0, [pc, #20]	@ 403950 <find_dev+0x70>
  403938:	e0800104 	add	r0, r0, r4, lsl #2
  40393c:	ea000000 	b	403944 <find_dev+0x64>
  403940:	e3a00000 	mov	r0, #0
  403944:	e8bd4070 	pop	{r4, r5, r6, lr}
  403948:	e12fff1e 	bx	lr
  40394c:	00404588 	subeq	r4, r0, r8, lsl #11
  403950:	0040458c 	subeq	r4, r0, ip, lsl #11

00403954 <get_dev>:
  403954:	e59f3008 	ldr	r3, [pc, #8]	@ 403964 <get_dev+0x10>
  403958:	e0833180 	add	r3, r3, r0, lsl #3
  40395c:	e5930124 	ldr	r0, [r3, #292]	@ 0x124
  403960:	e12fff1e 	bx	lr
  403964:	00404588 	subeq	r4, r0, r8, lsl #11

00403968 <get_flags>:
  403968:	e59f3008 	ldr	r3, [pc, #8]	@ 403978 <get_flags+0x10>
  40396c:	e0833180 	add	r3, r3, r0, lsl #3
  403970:	e5930128 	ldr	r0, [r3, #296]	@ 0x128
  403974:	e12fff1e 	bx	lr
  403978:	00404588 	subeq	r4, r0, r8, lsl #11

0040397c <get_fd>:
  40397c:	e1a02000 	mov	r2, r0
  403980:	e3a00000 	mov	r0, #0
  403984:	e3500007 	cmp	r0, #7
  403988:	ca00000a 	bgt	4039b8 <get_fd+0x3c>
  40398c:	e59f3040 	ldr	r3, [pc, #64]	@ 4039d4 <get_fd+0x58>
  403990:	e0833180 	add	r3, r3, r0, lsl #3
  403994:	e5933124 	ldr	r3, [r3, #292]	@ 0x124
  403998:	e3530000 	cmp	r3, #0
  40399c:	12800001 	addne	r0, r0, #1
  4039a0:	1afffff7 	bne	403984 <get_fd+0x8>
  4039a4:	e59f3028 	ldr	r3, [pc, #40]	@ 4039d4 <get_fd+0x58>
  4039a8:	e0833180 	add	r3, r3, r0, lsl #3
  4039ac:	e5832124 	str	r2, [r3, #292]	@ 0x124
  4039b0:	e5831128 	str	r1, [r3, #296]	@ 0x128
  4039b4:	e12fff1e 	bx	lr
  4039b8:	e92d4010 	push	{r4, lr}
  4039bc:	eb00034a 	bl	4046ec <__errno>
  4039c0:	e3a03017 	mov	r3, #23
  4039c4:	e5803000 	str	r3, [r0]
  4039c8:	e3e00000 	mvn	r0, #0
  4039cc:	e8bd4010 	pop	{r4, lr}
  4039d0:	e12fff1e 	bx	lr
  4039d4:	00404588 	subeq	r4, r0, r8, lsl #11

004039d8 <release_fd>:
  4039d8:	e3500002 	cmp	r0, #2
  4039dc:	912fff1e 	bxls	lr
  4039e0:	e59f3010 	ldr	r3, [pc, #16]	@ 4039f8 <release_fd+0x20>
  4039e4:	e0833180 	add	r3, r3, r0, lsl #3
  4039e8:	e3a02000 	mov	r2, #0
  4039ec:	e5832124 	str	r2, [r3, #292]	@ 0x124
  4039f0:	e5832128 	str	r2, [r3, #296]	@ 0x128
  4039f4:	e12fff1e 	bx	lr
  4039f8:	00404588 	subeq	r4, r0, r8, lsl #11

004039fc <redirect_fd>:
  4039fc:	e92d41f0 	push	{r4, r5, r6, r7, r8, lr}
  403a00:	e1a07000 	mov	r7, r0
  403a04:	e1a05002 	mov	r5, r2
  403a08:	e1a06003 	mov	r6, r3
  403a0c:	e1a00001 	mov	r0, r1
  403a10:	ebffffb2 	bl	4038e0 <find_dev>
  403a14:	e2504000 	subs	r4, r0, #0
  403a18:	0a00000e 	beq	403a58 <redirect_fd+0x5c>
  403a1c:	e5943008 	ldr	r3, [r4, #8]
  403a20:	e3530000 	cmp	r3, #0
  403a24:	0a000006 	beq	403a44 <redirect_fd+0x48>
  403a28:	e1a02006 	mov	r2, r6
  403a2c:	e1a01005 	mov	r1, r5
  403a30:	e5940004 	ldr	r0, [r4, #4]
  403a34:	e1a0e00f 	mov	lr, pc
  403a38:	e12fff13 	bx	r3
  403a3c:	e3500000 	cmp	r0, #0
  403a40:	ba000004 	blt	403a58 <redirect_fd+0x5c>
  403a44:	e1a01005 	mov	r1, r5
  403a48:	e1a00004 	mov	r0, r4
  403a4c:	ebffffca 	bl	40397c <get_fd>
  403a50:	e3500000 	cmp	r0, #0
  403a54:	aa000001 	bge	403a60 <redirect_fd+0x64>
  403a58:	e8bd41f0 	pop	{r4, r5, r6, r7, r8, lr}
  403a5c:	e12fff1e 	bx	lr
  403a60:	e59f301c 	ldr	r3, [pc, #28]	@ 403a84 <redirect_fd+0x88>
  403a64:	e0832180 	add	r2, r3, r0, lsl #3
  403a68:	e5921124 	ldr	r1, [r2, #292]	@ 0x124
  403a6c:	e0833187 	add	r3, r3, r7, lsl #3
  403a70:	e5831124 	str	r1, [r3, #292]	@ 0x124
  403a74:	e5922128 	ldr	r2, [r2, #296]	@ 0x128
  403a78:	e5832128 	str	r2, [r3, #296]	@ 0x128
  403a7c:	ebffffd5 	bl	4039d8 <release_fd>
  403a80:	eafffff4 	b	403a58 <redirect_fd+0x5c>
  403a84:	00404588 	subeq	r4, r0, r8, lsl #11

00403a88 <excep_nonnested_irq_handler>:
  403a88:	e24ee004 	sub	lr, lr, #4
  403a8c:	e92d500f 	push	{r0, r1, r2, r3, ip, lr}
  403a90:	ebfffec3 	bl	4035a4 <itc_service_normal_interrupt>
  403a94:	e8fd900f 	ldm	sp!, {r0, r1, r2, r3, ip, pc}^

00403a98 <excep_init>:
  403a98:	e59f3008 	ldr	r3, [pc, #8]	@ 403aa8 <excep_init+0x10>
  403a9c:	e59f2008 	ldr	r2, [pc, #8]	@ 403aac <excep_init+0x14>
  403aa0:	e5832018 	str	r2, [r3, #24]
  403aa4:	e12fff1e 	bx	lr
  403aa8:	00400020 	subeq	r0, r0, r0, lsr #32
  403aac:	00403a88 	subeq	r3, r0, r8, lsl #21

00403ab0 <excep_disable_ints>:
  403ab0:	e10f0000 	mrs	r0, CPSR
  403ab4:	e380c0c0 	orr	ip, r0, #192	@ 0xc0
  403ab8:	e121f00c 	msr	CPSR_c, ip
  403abc:	e1a00320 	lsr	r0, r0, #6
  403ac0:	e2000003 	and	r0, r0, #3
  403ac4:	e12fff1e 	bx	lr

00403ac8 <excep_disable_irq>:
  403ac8:	e10f0000 	mrs	r0, CPSR
  403acc:	e380c080 	orr	ip, r0, #128	@ 0x80
  403ad0:	e121f00c 	msr	CPSR_c, ip
  403ad4:	e1a003a0 	lsr	r0, r0, #7
  403ad8:	e2000001 	and	r0, r0, #1
  403adc:	e12fff1e 	bx	lr

00403ae0 <excep_disable_fiq>:
  403ae0:	e10f0000 	mrs	r0, CPSR
  403ae4:	e380c040 	orr	ip, r0, #64	@ 0x40
  403ae8:	e121f00c 	msr	CPSR_c, ip
  403aec:	e1a00320 	lsr	r0, r0, #6
  403af0:	e2000001 	and	r0, r0, #1
  403af4:	e12fff1e 	bx	lr

00403af8 <excep_restore_ints>:
  403af8:	e2000003 	and	r0, r0, #3
  403afc:	e10fc000 	mrs	ip, CPSR
  403b00:	e3ccc0c0 	bic	ip, ip, #192	@ 0xc0
  403b04:	e18cc300 	orr	ip, ip, r0, lsl #6
  403b08:	e121f00c 	msr	CPSR_c, ip
  403b0c:	e12fff1e 	bx	lr

00403b10 <excep_restore_irq>:
  403b10:	e2000001 	and	r0, r0, #1
  403b14:	e10fc000 	mrs	ip, CPSR
  403b18:	e3ccc080 	bic	ip, ip, #128	@ 0x80
  403b1c:	e18cc380 	orr	ip, ip, r0, lsl #7
  403b20:	e121f00c 	msr	CPSR_c, ip
  403b24:	e12fff1e 	bx	lr

00403b28 <excep_restore_fiq>:
  403b28:	e2000001 	and	r0, r0, #1
  403b2c:	e10fc000 	mrs	ip, CPSR
  403b30:	e3ccc040 	bic	ip, ip, #64	@ 0x40
  403b34:	e18cc300 	orr	ip, ip, r0, lsl #6
  403b38:	e121f00c 	msr	CPSR_c, ip
  403b3c:	e12fff1e 	bx	lr

00403b40 <excep_set_handler>:
  403b40:	e59f3004 	ldr	r3, [pc, #4]	@ 403b4c <excep_set_handler+0xc>
  403b44:	e7831100 	str	r1, [r3, r0, lsl #2]
  403b48:	e12fff1e 	bx	lr
  403b4c:	00400020 	subeq	r0, r0, r0, lsr #32

00403b50 <excep_get_handler>:
  403b50:	e59f3004 	ldr	r3, [pc, #4]	@ 403b5c <excep_get_handler+0xc>
  403b54:	e7930100 	ldr	r0, [r3, r0, lsl #2]
  403b58:	e12fff1e 	bx	lr
  403b5c:	00400020 	subeq	r0, r0, r0, lsr #32

00403b60 <uart_send>:
  403b60:	e92d47f0 	push	{r4, r5, r6, r7, r8, r9, sl, lr}
  403b64:	e3500001 	cmp	r0, #1
  403b68:	8a00000b 	bhi	403b9c <uart_send+0x3c>
  403b6c:	e1a07000 	mov	r7, r0
  403b70:	e1a04001 	mov	r4, r1
  403b74:	e1a06002 	mov	r6, r2
  403b78:	e3510000 	cmp	r1, #0
  403b7c:	0a00000b 	beq	403bb0 <uart_send+0x50>
  403b80:	e59f308c 	ldr	r3, [pc, #140]	@ 403c14 <uart_send+0xb4>
  403b84:	e7939100 	ldr	r9, [r3, r0, lsl #2]
  403b88:	e1d930b0 	ldrh	r3, [r9]
  403b8c:	e3833a02 	orr	r3, r3, #8192	@ 0x2000
  403b90:	e1c930b0 	strh	r3, [r9]
  403b94:	e3a08000 	mov	r8, #0
  403b98:	ea00000e 	b	403bd8 <uart_send+0x78>
  403b9c:	eb0002d2 	bl	4046ec <__errno>
  403ba0:	e3a03013 	mov	r3, #19
  403ba4:	e5803000 	str	r3, [r0]
  403ba8:	e3e08000 	mvn	r8, #0
  403bac:	ea000015 	b	403c08 <uart_send+0xa8>
  403bb0:	eb0002cd 	bl	4046ec <__errno>
  403bb4:	e3a0300e 	mov	r3, #14
  403bb8:	e5803000 	str	r3, [r0]
  403bbc:	e3e08000 	mvn	r8, #0
  403bc0:	ea000010 	b	403c08 <uart_send+0xa8>
  403bc4:	e4d41001 	ldrb	r1, [r4], #1
  403bc8:	e1a00005 	mov	r0, r5
  403bcc:	eb000188 	bl	4041f4 <circular_buffer_write>
  403bd0:	e2888001 	add	r8, r8, #1
  403bd4:	e2466001 	sub	r6, r6, #1
  403bd8:	e0873107 	add	r3, r7, r7, lsl #2
  403bdc:	e59f5034 	ldr	r5, [pc, #52]	@ 403c18 <uart_send+0xb8>
  403be0:	e0855103 	add	r5, r5, r3, lsl #2
  403be4:	e1a00005 	mov	r0, r5
  403be8:	eb000177 	bl	4041cc <circular_buffer_is_full>
  403bec:	e3500000 	cmp	r0, #0
  403bf0:	1a000001 	bne	403bfc <uart_send+0x9c>
  403bf4:	e3560000 	cmp	r6, #0
  403bf8:	1afffff1 	bne	403bc4 <uart_send+0x64>
  403bfc:	e1d930b0 	ldrh	r3, [r9]
  403c00:	e3c33a02 	bic	r3, r3, #8192	@ 0x2000
  403c04:	e1c930b0 	strh	r3, [r9]
  403c08:	e1a00008 	mov	r0, r8
  403c0c:	e8bd47f0 	pop	{r4, r5, r6, r7, r8, r9, sl, lr}
  403c10:	e12fff1e 	bx	lr
  403c14:	00404564 	subeq	r4, r0, r4, ror #10
  403c18:	0040fabc 	strheq	pc, [r0], #-172	@ 0xffffff54	@ <UNPREDICTABLE>

00403c1c <uart_isr>:
  403c1c:	e92d4070 	push	{r4, r5, r6, lr}
  403c20:	e1a04000 	mov	r4, r0
  403c24:	e59f3114 	ldr	r3, [pc, #276]	@ 403d40 <uart_isr+0x124>
  403c28:	e7936100 	ldr	r6, [r3, r0, lsl #2]
  403c2c:	e5963004 	ldr	r3, [r6, #4]
  403c30:	e5963004 	ldr	r3, [r6, #4]
  403c34:	e3130040 	tst	r3, #64	@ 0x40
  403c38:	1a000007 	bne	403c5c <uart_isr+0x40>
  403c3c:	e5963004 	ldr	r3, [r6, #4]
  403c40:	e3130080 	tst	r3, #128	@ 0x80
  403c44:	1a00001e 	bne	403cc4 <uart_isr+0xa8>
  403c48:	e8bd4070 	pop	{r4, r5, r6, lr}
  403c4c:	e12fff1e 	bx	lr
  403c50:	e5d61008 	ldrb	r1, [r6, #8]
  403c54:	e1a00005 	mov	r0, r5
  403c58:	eb000165 	bl	4041f4 <circular_buffer_write>
  403c5c:	e0843104 	add	r3, r4, r4, lsl #2
  403c60:	e59f50dc 	ldr	r5, [pc, #220]	@ 403d44 <uart_isr+0x128>
  403c64:	e0855103 	add	r5, r5, r3, lsl #2
  403c68:	e1a00005 	mov	r0, r5
  403c6c:	eb000156 	bl	4041cc <circular_buffer_is_full>
  403c70:	e3500000 	cmp	r0, #0
  403c74:	1a000002 	bne	403c84 <uart_isr+0x68>
  403c78:	e596300c 	ldr	r3, [r6, #12]
  403c7c:	e313003f 	tst	r3, #63	@ 0x3f
  403c80:	1afffff2 	bne	403c50 <uart_isr+0x34>
  403c84:	e59f30bc 	ldr	r3, [pc, #188]	@ 403d48 <uart_isr+0x12c>
  403c88:	e0833184 	add	r3, r3, r4, lsl #3
  403c8c:	e5933054 	ldr	r3, [r3, #84]	@ 0x54
  403c90:	e3530000 	cmp	r3, #0
  403c94:	159f30ac 	ldrne	r3, [pc, #172]	@ 403d48 <uart_isr+0x12c>
  403c98:	10833184 	addne	r3, r3, r4, lsl #3
  403c9c:	15933054 	ldrne	r3, [r3, #84]	@ 0x54
  403ca0:	11a0e00f 	movne	lr, pc
  403ca4:	112fff13 	bxne	r3
  403ca8:	e1a00005 	mov	r0, r5
  403cac:	eb000146 	bl	4041cc <circular_buffer_is_full>
  403cb0:	e3500000 	cmp	r0, #0
  403cb4:	11d630b0 	ldrhne	r3, [r6]
  403cb8:	13833901 	orrne	r3, r3, #16384	@ 0x4000
  403cbc:	11c630b0 	strhne	r3, [r6]
  403cc0:	eaffffdd 	b	403c3c <uart_isr+0x20>
  403cc4:	e0843104 	add	r3, r4, r4, lsl #2
  403cc8:	e59f5078 	ldr	r5, [pc, #120]	@ 403d48 <uart_isr+0x12c>
  403ccc:	e0855103 	add	r5, r5, r3, lsl #2
  403cd0:	e1a00005 	mov	r0, r5
  403cd4:	eb000142 	bl	4041e4 <circular_buffer_is_empty>
  403cd8:	e3500000 	cmp	r0, #0
  403cdc:	1a000007 	bne	403d00 <uart_isr+0xe4>
  403ce0:	e5963010 	ldr	r3, [r6, #16]
  403ce4:	e313003f 	tst	r3, #63	@ 0x3f
  403ce8:	0a000004 	beq	403d00 <uart_isr+0xe4>
  403cec:	e1a00005 	mov	r0, r5
  403cf0:	eb000158 	bl	404258 <circular_buffer_read>
  403cf4:	e20000ff 	and	r0, r0, #255	@ 0xff
  403cf8:	e5c60008 	strb	r0, [r6, #8]
  403cfc:	eafffff0 	b	403cc4 <uart_isr+0xa8>
  403d00:	e59f3040 	ldr	r3, [pc, #64]	@ 403d48 <uart_isr+0x12c>
  403d04:	e0833184 	add	r3, r3, r4, lsl #3
  403d08:	e5933050 	ldr	r3, [r3, #80]	@ 0x50
  403d0c:	e3530000 	cmp	r3, #0
  403d10:	159f3030 	ldrne	r3, [pc, #48]	@ 403d48 <uart_isr+0x12c>
  403d14:	10833184 	addne	r3, r3, r4, lsl #3
  403d18:	15933050 	ldrne	r3, [r3, #80]	@ 0x50
  403d1c:	11a0e00f 	movne	lr, pc
  403d20:	112fff13 	bxne	r3
  403d24:	e1a00005 	mov	r0, r5
  403d28:	eb00012d 	bl	4041e4 <circular_buffer_is_empty>
  403d2c:	e3500000 	cmp	r0, #0
  403d30:	11d630b0 	ldrhne	r3, [r6]
  403d34:	13833a02 	orrne	r3, r3, #8192	@ 0x2000
  403d38:	11c630b0 	strhne	r3, [r6]
  403d3c:	eaffffc1 	b	403c48 <uart_isr+0x2c>
  403d40:	00404564 	subeq	r4, r0, r4, ror #10
  403d44:	0040fae4 	subeq	pc, r0, r4, ror #21
  403d48:	0040fabc 	strheq	pc, [r0], #-172	@ 0xffffff54	@ <UNPREDICTABLE>

00403d4c <uart_2_isr>:
  403d4c:	e92d4010 	push	{r4, lr}
  403d50:	e3a00001 	mov	r0, #1
  403d54:	ebffffb0 	bl	403c1c <uart_isr>
  403d58:	e8bd4010 	pop	{r4, lr}
  403d5c:	e12fff1e 	bx	lr

00403d60 <uart_1_isr>:
  403d60:	e92d4010 	push	{r4, lr}
  403d64:	e3a00000 	mov	r0, #0
  403d68:	ebffffab 	bl	403c1c <uart_isr>
  403d6c:	e8bd4010 	pop	{r4, lr}
  403d70:	e12fff1e 	bx	lr

00403d74 <uart_receive>:
  403d74:	e92d47f0 	push	{r4, r5, r6, r7, r8, r9, sl, lr}
  403d78:	e3500001 	cmp	r0, #1
  403d7c:	8a00000b 	bhi	403db0 <uart_receive+0x3c>
  403d80:	e1a07000 	mov	r7, r0
  403d84:	e1a04001 	mov	r4, r1
  403d88:	e1a06002 	mov	r6, r2
  403d8c:	e3510000 	cmp	r1, #0
  403d90:	0a00000b 	beq	403dc4 <uart_receive+0x50>
  403d94:	e59f308c 	ldr	r3, [pc, #140]	@ 403e28 <uart_receive+0xb4>
  403d98:	e7939100 	ldr	r9, [r3, r0, lsl #2]
  403d9c:	e1d930b0 	ldrh	r3, [r9]
  403da0:	e3833901 	orr	r3, r3, #16384	@ 0x4000
  403da4:	e1c930b0 	strh	r3, [r9]
  403da8:	e3a08000 	mov	r8, #0
  403dac:	ea00000e 	b	403dec <uart_receive+0x78>
  403db0:	eb00024d 	bl	4046ec <__errno>
  403db4:	e3a03013 	mov	r3, #19
  403db8:	e5803000 	str	r3, [r0]
  403dbc:	e3e08000 	mvn	r8, #0
  403dc0:	ea000015 	b	403e1c <uart_receive+0xa8>
  403dc4:	eb000248 	bl	4046ec <__errno>
  403dc8:	e3a0300e 	mov	r3, #14
  403dcc:	e5803000 	str	r3, [r0]
  403dd0:	e3e08000 	mvn	r8, #0
  403dd4:	ea000010 	b	403e1c <uart_receive+0xa8>
  403dd8:	e1a00005 	mov	r0, r5
  403ddc:	eb00011d 	bl	404258 <circular_buffer_read>
  403de0:	e4c40001 	strb	r0, [r4], #1
  403de4:	e2888001 	add	r8, r8, #1
  403de8:	e2466001 	sub	r6, r6, #1
  403dec:	e0873107 	add	r3, r7, r7, lsl #2
  403df0:	e59f5034 	ldr	r5, [pc, #52]	@ 403e2c <uart_receive+0xb8>
  403df4:	e0855103 	add	r5, r5, r3, lsl #2
  403df8:	e1a00005 	mov	r0, r5
  403dfc:	eb0000f8 	bl	4041e4 <circular_buffer_is_empty>
  403e00:	e3500000 	cmp	r0, #0
  403e04:	1a000001 	bne	403e10 <uart_receive+0x9c>
  403e08:	e3560000 	cmp	r6, #0
  403e0c:	1afffff1 	bne	403dd8 <uart_receive+0x64>
  403e10:	e1d930b0 	ldrh	r3, [r9]
  403e14:	e3c33901 	bic	r3, r3, #16384	@ 0x4000
  403e18:	e1c930b0 	strh	r3, [r9]
  403e1c:	e1a00008 	mov	r0, r8
  403e20:	e8bd47f0 	pop	{r4, r5, r6, r7, r8, r9, sl, lr}
  403e24:	e12fff1e 	bx	lr
  403e28:	00404564 	subeq	r4, r0, r4, ror #10
  403e2c:	0040fae4 	subeq	pc, r0, r4, ror #21

00403e30 <uart_init>:
  403e30:	e92d4ff0 	push	{r4, r5, r6, r7, r8, r9, sl, fp, lr}
  403e34:	e24dd024 	sub	sp, sp, #36	@ 0x24
  403e38:	e58d201c 	str	r2, [sp, #28]
  403e3c:	e3500001 	cmp	r0, #1
  403e40:	8a000066 	bhi	403fe0 <uart_init+0x1b0>
  403e44:	e1a04000 	mov	r4, r0
  403e48:	e59d301c 	ldr	r3, [sp, #28]
  403e4c:	e3530000 	cmp	r3, #0
  403e50:	0a000067 	beq	403ff4 <uart_init+0x1c4>
  403e54:	e59f61ac 	ldr	r6, [pc, #428]	@ 404008 <uart_init+0x1d8>
  403e58:	e7965100 	ldr	r5, [r6, r0, lsl #2]
  403e5c:	e3a03a06 	mov	r3, #24576	@ 0x6000
  403e60:	e5853000 	str	r3, [r5]
  403e64:	e0813181 	add	r3, r1, r1, lsl #3
  403e68:	e0813083 	add	r3, r1, r3, lsl #1
  403e6c:	e0611203 	rsb	r1, r1, r3, lsl #4
  403e70:	e0811281 	add	r1, r1, r1, lsl #5
  403e74:	e59f3190 	ldr	r3, [pc, #400]	@ 40400c <uart_init+0x1dc>
  403e78:	e0832391 	umull	r2, r3, r1, r3
  403e7c:	e1a038a3 	lsr	r3, r3, #17
  403e80:	e1a03803 	lsl	r3, r3, #16
  403e84:	e3833c27 	orr	r3, r3, #9984	@ 0x2700
  403e88:	e383300f 	orr	r3, r3, #15
  403e8c:	e5853018 	str	r3, [r5, #24]
  403e90:	e5953000 	ldr	r3, [r5]
  403e94:	e3833003 	orr	r3, r3, #3
  403e98:	e5853000 	str	r3, [r5]
  403e9c:	e1a07100 	lsl	r7, r0, #2
  403ea0:	e0866100 	add	r6, r6, r0, lsl #2
  403ea4:	e5d6b008 	ldrb	fp, [r6, #8]
  403ea8:	e3a01001 	mov	r1, #1
  403eac:	e1a0000b 	mov	r0, fp
  403eb0:	ebfffd5e 	bl	403430 <gpio_set_pin_func>
  403eb4:	e5d69009 	ldrb	r9, [r6, #9]
  403eb8:	e3a01001 	mov	r1, #1
  403ebc:	e1a00009 	mov	r0, r9
  403ec0:	ebfffd5a 	bl	403430 <gpio_set_pin_func>
  403ec4:	e5d6a00a 	ldrb	sl, [r6, #10]
  403ec8:	e3a01001 	mov	r1, #1
  403ecc:	e1a0000a 	mov	r0, sl
  403ed0:	ebfffd56 	bl	403430 <gpio_set_pin_func>
  403ed4:	e5d6800b 	ldrb	r8, [r6, #11]
  403ed8:	e3a01001 	mov	r1, #1
  403edc:	e1a00008 	mov	r0, r8
  403ee0:	ebfffd52 	bl	403430 <gpio_set_pin_func>
  403ee4:	e1a0000b 	mov	r0, fp
  403ee8:	ebfffcd8 	bl	403250 <gpio_set_pin_dir_output>
  403eec:	e1a0000a 	mov	r0, sl
  403ef0:	ebfffcd6 	bl	403250 <gpio_set_pin_dir_output>
  403ef4:	e1a00009 	mov	r0, r9
  403ef8:	ebfffcc7 	bl	40321c <gpio_set_pin_dir_input>
  403efc:	e1a00008 	mov	r0, r8
  403f00:	ebfffcc5 	bl	40321c <gpio_set_pin_dir_input>
  403f04:	e59f8104 	ldr	r8, [pc, #260]	@ 404010 <uart_init+0x1e0>
  403f08:	e2881060 	add	r1, r8, #96	@ 0x60
  403f0c:	e1a09404 	lsl	r9, r4, #8
  403f10:	e2883028 	add	r3, r8, #40	@ 0x28
  403f14:	e0870004 	add	r0, r7, r4
  403f18:	e3a02c01 	mov	r2, #256	@ 0x100
  403f1c:	e0811404 	add	r1, r1, r4, lsl #8
  403f20:	e0830100 	add	r0, r3, r0, lsl #2
  403f24:	eb0000a1 	bl	4041b0 <circular_buffer_init>
  403f28:	e2881e26 	add	r1, r8, #608	@ 0x260
  403f2c:	e0870004 	add	r0, r7, r4
  403f30:	e3a02c01 	mov	r2, #256	@ 0x100
  403f34:	e0811009 	add	r1, r1, r9
  403f38:	e0880100 	add	r0, r8, r0, lsl #2
  403f3c:	eb00009b 	bl	4041b0 <circular_buffer_init>
  403f40:	e5d53010 	ldrb	r3, [r5, #16]
  403f44:	e383301f 	orr	r3, r3, #31
  403f48:	e5c53010 	strb	r3, [r5, #16]
  403f4c:	e5d5300c 	ldrb	r3, [r5, #12]
  403f50:	e3c3301e 	bic	r3, r3, #30
  403f54:	e3833001 	orr	r3, r3, #1
  403f58:	e5c5300c 	strb	r3, [r5, #12]
  403f5c:	e2847001 	add	r7, r4, #1
  403f60:	e20770ff 	and	r7, r7, #255	@ 0xff
  403f64:	e3a01000 	mov	r1, #0
  403f68:	e1a00007 	mov	r0, r7
  403f6c:	ebfffd68 	bl	403514 <itc_set_priority>
  403f70:	e5961010 	ldr	r1, [r6, #16]
  403f74:	e1a00007 	mov	r0, r7
  403f78:	ebfffd61 	bl	403504 <itc_set_handler>
  403f7c:	e1a00007 	mov	r0, r7
  403f80:	ebfffd71 	bl	40354c <itc_enable_interrupt>
  403f84:	e0888184 	add	r8, r8, r4, lsl #3
  403f88:	e3a06000 	mov	r6, #0
  403f8c:	e5886050 	str	r6, [r8, #80]	@ 0x50
  403f90:	e5886054 	str	r6, [r8, #84]	@ 0x54
  403f94:	e1d530b0 	ldrh	r3, [r5]
  403f98:	e3c33901 	bic	r3, r3, #16384	@ 0x4000
  403f9c:	e1c530b0 	strh	r3, [r5]
  403fa0:	e58d6010 	str	r6, [sp, #16]
  403fa4:	e58d600c 	str	r6, [sp, #12]
  403fa8:	e58d6008 	str	r6, [sp, #8]
  403fac:	e59f3060 	ldr	r3, [pc, #96]	@ 404014 <uart_init+0x1e4>
  403fb0:	e58d3004 	str	r3, [sp, #4]
  403fb4:	e59f305c 	ldr	r3, [pc, #92]	@ 404018 <uart_init+0x1e8>
  403fb8:	e58d3000 	str	r3, [sp]
  403fbc:	e1a03006 	mov	r3, r6
  403fc0:	e1a02006 	mov	r2, r6
  403fc4:	e1a01004 	mov	r1, r4
  403fc8:	e59d001c 	ldr	r0, [sp, #28]
  403fcc:	ebfffe24 	bl	403864 <bsp_register_dev>
  403fd0:	e1a00006 	mov	r0, r6
  403fd4:	e28dd024 	add	sp, sp, #36	@ 0x24
  403fd8:	e8bd4ff0 	pop	{r4, r5, r6, r7, r8, r9, sl, fp, lr}
  403fdc:	e12fff1e 	bx	lr
  403fe0:	eb0001c1 	bl	4046ec <__errno>
  403fe4:	e3a03013 	mov	r3, #19
  403fe8:	e5803000 	str	r3, [r0]
  403fec:	e3e00000 	mvn	r0, #0
  403ff0:	eafffff7 	b	403fd4 <uart_init+0x1a4>
  403ff4:	eb0001bc 	bl	4046ec <__errno>
  403ff8:	e3a0300e 	mov	r3, #14
  403ffc:	e5803000 	str	r3, [r0]
  404000:	e3e00000 	mvn	r0, #0
  404004:	eafffff2 	b	403fd4 <uart_init+0x1a4>
  404008:	00404564 	subeq	r4, r0, r4, ror #10
  40400c:	165e9f81 	ldrbne	r9, [lr], -r1, lsl #31
  404010:	0040fabc 	strheq	pc, [r0], #-172	@ 0xffffff54	@ <UNPREDICTABLE>
  404014:	00403b60 	subeq	r3, r0, r0, ror #22
  404018:	00403d74 	subeq	r3, r0, r4, ror sp

0040401c <uart_send_byte>:
  40401c:	e92d41f0 	push	{r4, r5, r6, r7, r8, lr}
  404020:	e1a06000 	mov	r6, r0
  404024:	e1a08001 	mov	r8, r1
  404028:	e59f307c 	ldr	r3, [pc, #124]	@ 4040ac <uart_send_byte+0x90>
  40402c:	e7934100 	ldr	r4, [r3, r0, lsl #2]
  404030:	e5947000 	ldr	r7, [r4]
  404034:	e1a076a7 	lsr	r7, r7, #13
  404038:	e2077001 	and	r7, r7, #1
  40403c:	e1d430b0 	ldrh	r3, [r4]
  404040:	e3833a02 	orr	r3, r3, #8192	@ 0x2000
  404044:	e1c430b0 	strh	r3, [r4]
  404048:	ea000006 	b	404068 <uart_send_byte+0x4c>
  40404c:	e1a00005 	mov	r0, r5
  404050:	eb000080 	bl	404258 <circular_buffer_read>
  404054:	e20000ff 	and	r0, r0, #255	@ 0xff
  404058:	e5c40008 	strb	r0, [r4, #8]
  40405c:	e5943010 	ldr	r3, [r4, #16]
  404060:	e313003f 	tst	r3, #63	@ 0x3f
  404064:	1afffff8 	bne	40404c <uart_send_byte+0x30>
  404068:	e0863106 	add	r3, r6, r6, lsl #2
  40406c:	e59f503c 	ldr	r5, [pc, #60]	@ 4040b0 <uart_send_byte+0x94>
  404070:	e0855103 	add	r5, r5, r3, lsl #2
  404074:	e1a00005 	mov	r0, r5
  404078:	eb000059 	bl	4041e4 <circular_buffer_is_empty>
  40407c:	e3500000 	cmp	r0, #0
  404080:	0afffff5 	beq	40405c <uart_send_byte+0x40>
  404084:	e5943010 	ldr	r3, [r4, #16]
  404088:	e313003f 	tst	r3, #63	@ 0x3f
  40408c:	0afffffc 	beq	404084 <uart_send_byte+0x68>
  404090:	e5c48008 	strb	r8, [r4, #8]
  404094:	e1d430b0 	ldrh	r3, [r4]
  404098:	e3c33a02 	bic	r3, r3, #8192	@ 0x2000
  40409c:	e1833687 	orr	r3, r3, r7, lsl #13
  4040a0:	e1c430b0 	strh	r3, [r4]
  4040a4:	e8bd41f0 	pop	{r4, r5, r6, r7, r8, lr}
  4040a8:	e12fff1e 	bx	lr
  4040ac:	00404564 	subeq	r4, r0, r4, ror #10
  4040b0:	0040fabc 	strheq	pc, [r0], #-172	@ 0xffffff54	@ <UNPREDICTABLE>

004040b4 <uart_receive_byte>:
  4040b4:	e92d4070 	push	{r4, r5, r6, lr}
  4040b8:	e59f3070 	ldr	r3, [pc, #112]	@ 404130 <uart_receive_byte+0x7c>
  4040bc:	e7934100 	ldr	r4, [r3, r0, lsl #2]
  4040c0:	e5945000 	ldr	r5, [r4]
  4040c4:	e1a05725 	lsr	r5, r5, #14
  4040c8:	e2055001 	and	r5, r5, #1
  4040cc:	e1d430b0 	ldrh	r3, [r4]
  4040d0:	e3833901 	orr	r3, r3, #16384	@ 0x4000
  4040d4:	e1c430b0 	strh	r3, [r4]
  4040d8:	e0800100 	add	r0, r0, r0, lsl #2
  4040dc:	e59f6050 	ldr	r6, [pc, #80]	@ 404134 <uart_receive_byte+0x80>
  4040e0:	e0866100 	add	r6, r6, r0, lsl #2
  4040e4:	e1a00006 	mov	r0, r6
  4040e8:	eb00003d 	bl	4041e4 <circular_buffer_is_empty>
  4040ec:	e3500000 	cmp	r0, #0
  4040f0:	0a00000a 	beq	404120 <uart_receive_byte+0x6c>
  4040f4:	e594300c 	ldr	r3, [r4, #12]
  4040f8:	e313003f 	tst	r3, #63	@ 0x3f
  4040fc:	0afffffc 	beq	4040f4 <uart_receive_byte+0x40>
  404100:	e5d40008 	ldrb	r0, [r4, #8]
  404104:	e20000ff 	and	r0, r0, #255	@ 0xff
  404108:	e1d430b0 	ldrh	r3, [r4]
  40410c:	e3c33901 	bic	r3, r3, #16384	@ 0x4000
  404110:	e1833705 	orr	r3, r3, r5, lsl #14
  404114:	e1c430b0 	strh	r3, [r4]
  404118:	e8bd4070 	pop	{r4, r5, r6, lr}
  40411c:	e12fff1e 	bx	lr
  404120:	e1a00006 	mov	r0, r6
  404124:	eb00004b 	bl	404258 <circular_buffer_read>
  404128:	e20000ff 	and	r0, r0, #255	@ 0xff
  40412c:	eafffff5 	b	404108 <uart_receive_byte+0x54>
  404130:	00404564 	subeq	r4, r0, r4, ror #10
  404134:	0040fae4 	subeq	pc, r0, r4, ror #21

00404138 <uart_set_receive_callback>:
  404138:	e3500001 	cmp	r0, #1
  40413c:	8a000004 	bhi	404154 <uart_set_receive_callback+0x1c>
  404140:	e59f3028 	ldr	r3, [pc, #40]	@ 404170 <uart_set_receive_callback+0x38>
  404144:	e0833180 	add	r3, r3, r0, lsl #3
  404148:	e5831054 	str	r1, [r3, #84]	@ 0x54
  40414c:	e3a00000 	mov	r0, #0
  404150:	e12fff1e 	bx	lr
  404154:	e92d4010 	push	{r4, lr}
  404158:	eb000163 	bl	4046ec <__errno>
  40415c:	e3a03013 	mov	r3, #19
  404160:	e5803000 	str	r3, [r0]
  404164:	e3e00000 	mvn	r0, #0
  404168:	e8bd4010 	pop	{r4, lr}
  40416c:	e12fff1e 	bx	lr
  404170:	0040fabc 	strheq	pc, [r0], #-172	@ 0xffffff54	@ <UNPREDICTABLE>

00404174 <uart_set_send_callback>:
  404174:	e3500001 	cmp	r0, #1
  404178:	8a000004 	bhi	404190 <uart_set_send_callback+0x1c>
  40417c:	e59f3028 	ldr	r3, [pc, #40]	@ 4041ac <uart_set_send_callback+0x38>
  404180:	e0833180 	add	r3, r3, r0, lsl #3
  404184:	e5831050 	str	r1, [r3, #80]	@ 0x50
  404188:	e3a00000 	mov	r0, #0
  40418c:	e12fff1e 	bx	lr
  404190:	e92d4010 	push	{r4, lr}
  404194:	eb000154 	bl	4046ec <__errno>
  404198:	e3a03013 	mov	r3, #19
  40419c:	e5803000 	str	r3, [r0]
  4041a0:	e3e00000 	mvn	r0, #0
  4041a4:	e8bd4010 	pop	{r4, lr}
  4041a8:	e12fff1e 	bx	lr
  4041ac:	0040fabc 	strheq	pc, [r0], #-172	@ 0xffffff54	@ <UNPREDICTABLE>

004041b0 <circular_buffer_init>:
  4041b0:	e5801000 	str	r1, [r0]
  4041b4:	e5802004 	str	r2, [r0, #4]
  4041b8:	e3a03000 	mov	r3, #0
  4041bc:	e5803008 	str	r3, [r0, #8]
  4041c0:	e580300c 	str	r3, [r0, #12]
  4041c4:	e5803010 	str	r3, [r0, #16]
  4041c8:	e12fff1e 	bx	lr

004041cc <circular_buffer_is_full>:
  4041cc:	e5902010 	ldr	r2, [r0, #16]
  4041d0:	e5900004 	ldr	r0, [r0, #4]
  4041d4:	e1520000 	cmp	r2, r0
  4041d8:	13a00000 	movne	r0, #0
  4041dc:	03a00001 	moveq	r0, #1
  4041e0:	e12fff1e 	bx	lr

004041e4 <circular_buffer_is_empty>:
  4041e4:	e5900010 	ldr	r0, [r0, #16]
  4041e8:	e2700001 	rsbs	r0, r0, #1
  4041ec:	33a00000 	movcc	r0, #0
  4041f0:	e12fff1e 	bx	lr

004041f4 <circular_buffer_write>:
  4041f4:	e1a03000 	mov	r3, r0
  4041f8:	e5900010 	ldr	r0, [r0, #16]
  4041fc:	e5932004 	ldr	r2, [r3, #4]
  404200:	e1500002 	cmp	r0, r2
  404204:	0a000011 	beq	404250 <circular_buffer_write+0x5c>
  404208:	e5930000 	ldr	r0, [r3]
  40420c:	e593200c 	ldr	r2, [r3, #12]
  404210:	e7c01002 	strb	r1, [r0, r2]
  404214:	e5932010 	ldr	r2, [r3, #16]
  404218:	e2822001 	add	r2, r2, #1
  40421c:	e5832010 	str	r2, [r3, #16]
  404220:	e593200c 	ldr	r2, [r3, #12]
  404224:	e2822001 	add	r2, r2, #1
  404228:	e583200c 	str	r2, [r3, #12]
  40422c:	e593000c 	ldr	r0, [r3, #12]
  404230:	e5932004 	ldr	r2, [r3, #4]
  404234:	e1500002 	cmp	r0, r2
  404238:	0a000001 	beq	404244 <circular_buffer_write+0x50>
  40423c:	e1a00001 	mov	r0, r1
  404240:	e12fff1e 	bx	lr
  404244:	e3a02000 	mov	r2, #0
  404248:	e583200c 	str	r2, [r3, #12]
  40424c:	eafffffa 	b	40423c <circular_buffer_write+0x48>
  404250:	e3e00000 	mvn	r0, #0
  404254:	e12fff1e 	bx	lr

00404258 <circular_buffer_read>:
  404258:	e1a03000 	mov	r3, r0
  40425c:	e5902010 	ldr	r2, [r0, #16]
  404260:	e3520000 	cmp	r2, #0
  404264:	0a00000f 	beq	4042a8 <circular_buffer_read+0x50>
  404268:	e5901000 	ldr	r1, [r0]
  40426c:	e5902008 	ldr	r2, [r0, #8]
  404270:	e7d10002 	ldrb	r0, [r1, r2]
  404274:	e5932010 	ldr	r2, [r3, #16]
  404278:	e2422001 	sub	r2, r2, #1
  40427c:	e5832010 	str	r2, [r3, #16]
  404280:	e5932008 	ldr	r2, [r3, #8]
  404284:	e2822001 	add	r2, r2, #1
  404288:	e5832008 	str	r2, [r3, #8]
  40428c:	e5931008 	ldr	r1, [r3, #8]
  404290:	e5932004 	ldr	r2, [r3, #4]
  404294:	e1510002 	cmp	r1, r2
  404298:	112fff1e 	bxne	lr
  40429c:	e3a02000 	mov	r2, #0
  4042a0:	e5832008 	str	r2, [r3, #8]
  4042a4:	e12fff1e 	bx	lr
  4042a8:	e3e00000 	mvn	r0, #0
  4042ac:	e12fff1e 	bx	lr

004042b0 <__divsi3>:
  4042b0:	e3510000 	cmp	r1, #0
  4042b4:	0a000043 	beq	4043c8 <.divsi3_skip_div0_test+0x110>

004042b8 <.divsi3_skip_div0_test>:
  4042b8:	e020c001 	eor	ip, r0, r1
  4042bc:	42611000 	rsbmi	r1, r1, #0
  4042c0:	e2512001 	subs	r2, r1, #1
  4042c4:	0a000027 	beq	404368 <.divsi3_skip_div0_test+0xb0>
  4042c8:	e1b03000 	movs	r3, r0
  4042cc:	42603000 	rsbmi	r3, r0, #0
  4042d0:	e1530001 	cmp	r3, r1
  4042d4:	9a000026 	bls	404374 <.divsi3_skip_div0_test+0xbc>
  4042d8:	e1110002 	tst	r1, r2
  4042dc:	0a000028 	beq	404384 <.divsi3_skip_div0_test+0xcc>
  4042e0:	e311020e 	tst	r1, #-536870912	@ 0xe0000000
  4042e4:	01a01181 	lsleq	r1, r1, #3
  4042e8:	03a02008 	moveq	r2, #8
  4042ec:	13a02001 	movne	r2, #1
  4042f0:	e3510201 	cmp	r1, #268435456	@ 0x10000000
  4042f4:	31510003 	cmpcc	r1, r3
  4042f8:	31a01201 	lslcc	r1, r1, #4
  4042fc:	31a02202 	lslcc	r2, r2, #4
  404300:	3afffffa 	bcc	4042f0 <.divsi3_skip_div0_test+0x38>
  404304:	e3510102 	cmp	r1, #-2147483648	@ 0x80000000
  404308:	31510003 	cmpcc	r1, r3
  40430c:	31a01081 	lslcc	r1, r1, #1
  404310:	31a02082 	lslcc	r2, r2, #1
  404314:	3afffffa 	bcc	404304 <.divsi3_skip_div0_test+0x4c>
  404318:	e3a00000 	mov	r0, #0
  40431c:	e1530001 	cmp	r3, r1
  404320:	20433001 	subcs	r3, r3, r1
  404324:	21800002 	orrcs	r0, r0, r2
  404328:	e15300a1 	cmp	r3, r1, lsr #1
  40432c:	204330a1 	subcs	r3, r3, r1, lsr #1
  404330:	218000a2 	orrcs	r0, r0, r2, lsr #1
  404334:	e1530121 	cmp	r3, r1, lsr #2
  404338:	20433121 	subcs	r3, r3, r1, lsr #2
  40433c:	21800122 	orrcs	r0, r0, r2, lsr #2
  404340:	e15301a1 	cmp	r3, r1, lsr #3
  404344:	204331a1 	subcs	r3, r3, r1, lsr #3
  404348:	218001a2 	orrcs	r0, r0, r2, lsr #3
  40434c:	e3530000 	cmp	r3, #0
  404350:	11b02222 	lsrsne	r2, r2, #4
  404354:	11a01221 	lsrne	r1, r1, #4
  404358:	1affffef 	bne	40431c <.divsi3_skip_div0_test+0x64>
  40435c:	e35c0000 	cmp	ip, #0
  404360:	42600000 	rsbmi	r0, r0, #0
  404364:	e12fff1e 	bx	lr
  404368:	e13c0000 	teq	ip, r0
  40436c:	42600000 	rsbmi	r0, r0, #0
  404370:	e12fff1e 	bx	lr
  404374:	33a00000 	movcc	r0, #0
  404378:	01a00fcc 	asreq	r0, ip, #31
  40437c:	03800001 	orreq	r0, r0, #1
  404380:	e12fff1e 	bx	lr
  404384:	e3510801 	cmp	r1, #65536	@ 0x10000
  404388:	21a01821 	lsrcs	r1, r1, #16
  40438c:	23a02010 	movcs	r2, #16
  404390:	33a02000 	movcc	r2, #0
  404394:	e3510c01 	cmp	r1, #256	@ 0x100
  404398:	21a01421 	lsrcs	r1, r1, #8
  40439c:	22822008 	addcs	r2, r2, #8
  4043a0:	e3510010 	cmp	r1, #16
  4043a4:	21a01221 	lsrcs	r1, r1, #4
  4043a8:	22822004 	addcs	r2, r2, #4
  4043ac:	e3510004 	cmp	r1, #4
  4043b0:	82822003 	addhi	r2, r2, #3
  4043b4:	908220a1 	addls	r2, r2, r1, lsr #1
  4043b8:	e35c0000 	cmp	ip, #0
  4043bc:	e1a00233 	lsr	r0, r3, r2
  4043c0:	42600000 	rsbmi	r0, r0, #0
  4043c4:	e12fff1e 	bx	lr
  4043c8:	e3500000 	cmp	r0, #0
  4043cc:	c3e00102 	mvngt	r0, #-2147483648	@ 0x80000000
  4043d0:	b3a00102 	movlt	r0, #-2147483648	@ 0x80000000
  4043d4:	ea000007 	b	4043f8 <__aeabi_idiv0>

004043d8 <__aeabi_idivmod>:
  4043d8:	e3510000 	cmp	r1, #0
  4043dc:	0afffff9 	beq	4043c8 <.divsi3_skip_div0_test+0x110>
  4043e0:	e92d4003 	push	{r0, r1, lr}
  4043e4:	ebffffb3 	bl	4042b8 <.divsi3_skip_div0_test>
  4043e8:	e8bd4006 	pop	{r1, r2, lr}
  4043ec:	e0030092 	mul	r3, r2, r0
  4043f0:	e0411003 	sub	r1, r1, r3
  4043f4:	e12fff1e 	bx	lr

004043f8 <__aeabi_idiv0>:
  4043f8:	e12fff1e 	bx	lr

004043fc <__udivsi3>:
  4043fc:	e2512001 	subs	r2, r1, #1
  404400:	012fff1e 	bxeq	lr
  404404:	3a000036 	bcc	4044e4 <__udivsi3+0xe8>
  404408:	e1500001 	cmp	r0, r1
  40440c:	9a000022 	bls	40449c <__udivsi3+0xa0>
  404410:	e1110002 	tst	r1, r2
  404414:	0a000023 	beq	4044a8 <__udivsi3+0xac>
  404418:	e311020e 	tst	r1, #-536870912	@ 0xe0000000
  40441c:	01a01181 	lsleq	r1, r1, #3
  404420:	03a03008 	moveq	r3, #8
  404424:	13a03001 	movne	r3, #1
  404428:	e3510201 	cmp	r1, #268435456	@ 0x10000000
  40442c:	31510000 	cmpcc	r1, r0
  404430:	31a01201 	lslcc	r1, r1, #4
  404434:	31a03203 	lslcc	r3, r3, #4
  404438:	3afffffa 	bcc	404428 <__udivsi3+0x2c>
  40443c:	e3510102 	cmp	r1, #-2147483648	@ 0x80000000
  404440:	31510000 	cmpcc	r1, r0
  404444:	31a01081 	lslcc	r1, r1, #1
  404448:	31a03083 	lslcc	r3, r3, #1
  40444c:	3afffffa 	bcc	40443c <__udivsi3+0x40>
  404450:	e3a02000 	mov	r2, #0
  404454:	e1500001 	cmp	r0, r1
  404458:	20400001 	subcs	r0, r0, r1
  40445c:	21822003 	orrcs	r2, r2, r3
  404460:	e15000a1 	cmp	r0, r1, lsr #1
  404464:	204000a1 	subcs	r0, r0, r1, lsr #1
  404468:	218220a3 	orrcs	r2, r2, r3, lsr #1
  40446c:	e1500121 	cmp	r0, r1, lsr #2
  404470:	20400121 	subcs	r0, r0, r1, lsr #2
  404474:	21822123 	orrcs	r2, r2, r3, lsr #2
  404478:	e15001a1 	cmp	r0, r1, lsr #3
  40447c:	204001a1 	subcs	r0, r0, r1, lsr #3
  404480:	218221a3 	orrcs	r2, r2, r3, lsr #3
  404484:	e3500000 	cmp	r0, #0
  404488:	11b03223 	lsrsne	r3, r3, #4
  40448c:	11a01221 	lsrne	r1, r1, #4
  404490:	1affffef 	bne	404454 <__udivsi3+0x58>
  404494:	e1a00002 	mov	r0, r2
  404498:	e12fff1e 	bx	lr
  40449c:	03a00001 	moveq	r0, #1
  4044a0:	13a00000 	movne	r0, #0
  4044a4:	e12fff1e 	bx	lr
  4044a8:	e3510801 	cmp	r1, #65536	@ 0x10000
  4044ac:	21a01821 	lsrcs	r1, r1, #16
  4044b0:	23a02010 	movcs	r2, #16
  4044b4:	33a02000 	movcc	r2, #0
  4044b8:	e3510c01 	cmp	r1, #256	@ 0x100
  4044bc:	21a01421 	lsrcs	r1, r1, #8
  4044c0:	22822008 	addcs	r2, r2, #8
  4044c4:	e3510010 	cmp	r1, #16
  4044c8:	21a01221 	lsrcs	r1, r1, #4
  4044cc:	22822004 	addcs	r2, r2, #4
  4044d0:	e3510004 	cmp	r1, #4
  4044d4:	82822003 	addhi	r2, r2, #3
  4044d8:	908220a1 	addls	r2, r2, r1, lsr #1
  4044dc:	e1a00230 	lsr	r0, r0, r2
  4044e0:	e12fff1e 	bx	lr
  4044e4:	e3500000 	cmp	r0, #0
  4044e8:	13e00000 	mvnne	r0, #0
  4044ec:	eaffffc1 	b	4043f8 <__aeabi_idiv0>

004044f0 <__aeabi_uidivmod>:
  4044f0:	e3510000 	cmp	r1, #0
  4044f4:	0afffffa 	beq	4044e4 <__udivsi3+0xe8>
  4044f8:	e92d4003 	push	{r0, r1, lr}
  4044fc:	ebffffbe 	bl	4043fc <__udivsi3>
  404500:	e8bd4006 	pop	{r1, r2, lr}
  404504:	e0030092 	mul	r3, r2, r0
  404508:	e0411003 	sub	r1, r1, r3
  40450c:	e12fff1e 	bx	lr
  404510:	6d617845 	stclvs	8, cr7, [r1, #-276]!	@ 0xfffffeec
  404514:	20656c70 	rsbcs	r6, r5, r0, ror ip
  404518:	65657246 	strbvs	r7, [r5, #-582]!	@ 0xfffffdba
  40451c:	534f5452 	movtpl	r5, #62546	@ 0xf452
  404520:	6f725020 	svcvs	0x00725020
  404524:	7463656a 	strbtvc	r6, [r3], #-1386	@ 0xfffffa96
  404528:	00000000 	andeq	r0, r0, r0
  40452c:	6e696c42 	cdpvs	12, 6, cr6, cr9, cr2, {2}
  404530:	6465526b 	strbtvs	r5, [r5], #-619	@ 0xfffffd95
  404534:	00000000 	andeq	r0, r0, r0
  404538:	454c4449 	strbmi	r4, [ip, #-1097]	@ 0xfffffbb7
  40453c:	00000000 	andeq	r0, r0, r0
  404540:	7665642f 	strbtvc	r6, [r5], -pc, lsr #8
  404544:	7261752f 	rsbvc	r7, r1, #197132288	@ 0xbc00000
  404548:	00003174 	andeq	r3, r0, r4, ror r1
  40454c:	7665642f 	strbtvc	r6, [r5], -pc, lsr #8
  404550:	7261752f 	rsbvc	r7, r1, #197132288	@ 0xbc00000
  404554:	00003274 	andeq	r3, r0, r4, ror r2
  404558:	7665642f 	strbtvc	r6, [r5], -pc, lsr #8
  40455c:	6c756e2f 	ldclvs	14, cr6, [r5], #-188	@ 0xffffff44
  404560:	0000006c 	andeq	r0, r0, ip, rrx

00404564 <uart_regs>:
  404564:	80005000 	andhi	r5, r0, r0
  404568:	8000b000 	andhi	fp, r0, r0

0040456c <uart_pins>:
  40456c:	11100f0e 	tstne	r0, lr, lsl #30
  404570:	15141312 	ldrne	r1, [r4, #-786]	@ 0xfffffcee

00404574 <uart_irq_handlers>:
  404574:	00403d60 	subeq	r3, r0, r0, ror #26
  404578:	00403d4c 	subeq	r3, r0, ip, asr #26
  40457c:	0000000a 	andeq	r0, r0, sl

00404580 <uxTopUsedPriority>:
  404580:	00000004 	andeq	r0, r0, r4

00404584 <ulCriticalNesting>:
  404584:	0000270f 	andeq	r2, r0, pc, lsl #14

00404588 <bsp_next_dev>:
  404588:	00000001 	andeq	r0, r0, r1

0040458c <bsp_dev_list>:
  40458c:	00404558 	subeq	r4, r0, r8, asr r5
	...

004046ac <bsp_fd_list>:
  4046ac:	0040458c 	subeq	r4, r0, ip, lsl #11
  4046b0:	00000000 	andeq	r0, r0, r0
  4046b4:	0040458c 	subeq	r4, r0, ip, lsl #11
  4046b8:	00000000 	andeq	r0, r0, r0
  4046bc:	0040458c 	subeq	r4, r0, ip, lsl #11
	...

Disassembly of section .text.__errno:

004046ec <__errno>:
  4046ec:	e59f3004 	ldr	r3, [pc, #4]	@ 4046f8 <__errno+0xc>
  4046f0:	e5930000 	ldr	r0, [r3]
  4046f4:	e12fff1e 	bx	lr
  4046f8:	00407434 	subeq	r7, r0, r4, lsr r4

Disassembly of section .text.memcmp:

004046fc <memcmp>:
  4046fc:	e3520003 	cmp	r2, #3
  404700:	e92d4010 	push	{r4, lr}
  404704:	9a00001c 	bls	40477c <memcmp+0x80>
  404708:	e1803001 	orr	r3, r0, r1
  40470c:	e3130003 	tst	r3, #3
  404710:	12424001 	subne	r4, r2, #1
  404714:	0a00000c 	beq	40474c <memcmp+0x50>
  404718:	e2402001 	sub	r2, r0, #1
  40471c:	e2411001 	sub	r1, r1, #1
  404720:	ea000001 	b	40472c <memcmp+0x30>
  404724:	e0903003 	adds	r3, r0, r3
  404728:	0a000018 	beq	404790 <memcmp+0x94>
  40472c:	e5f2e001 	ldrb	lr, [r2, #1]!
  404730:	e5f1c001 	ldrb	ip, [r1, #1]!
  404734:	e15e000c 	cmp	lr, ip
  404738:	e0443002 	sub	r3, r4, r2
  40473c:	0afffff8 	beq	404724 <memcmp+0x28>
  404740:	e04e000c 	sub	r0, lr, ip
  404744:	e8bd4010 	pop	{r4, lr}
  404748:	e12fff1e 	bx	lr
  40474c:	e1a0c000 	mov	ip, r0
  404750:	e1a03001 	mov	r3, r1
  404754:	ea000002 	b	404764 <memcmp+0x68>
  404758:	e2422004 	sub	r2, r2, #4
  40475c:	e3520003 	cmp	r2, #3
  404760:	9a00000d 	bls	40479c <memcmp+0xa0>
  404764:	e1a01003 	mov	r1, r3
  404768:	e1a0000c 	mov	r0, ip
  40476c:	e493e004 	ldr	lr, [r3], #4
  404770:	e49c4004 	ldr	r4, [ip], #4
  404774:	e154000e 	cmp	r4, lr
  404778:	0afffff6 	beq	404758 <memcmp+0x5c>
  40477c:	e3520000 	cmp	r2, #0
  404780:	01a00002 	moveq	r0, r2
  404784:	e2424001 	sub	r4, r2, #1
  404788:	1affffe2 	bne	404718 <memcmp+0x1c>
  40478c:	eaffffec 	b	404744 <memcmp+0x48>
  404790:	e1a00003 	mov	r0, r3
  404794:	e8bd4010 	pop	{r4, lr}
  404798:	e12fff1e 	bx	lr
  40479c:	e3520000 	cmp	r2, #0
  4047a0:	e1a0000c 	mov	r0, ip
  4047a4:	e1a01003 	mov	r1, r3
  4047a8:	01a00002 	moveq	r0, r2
  4047ac:	e2424001 	sub	r4, r2, #1
  4047b0:	1affffd8 	bne	404718 <memcmp+0x1c>
  4047b4:	eaffffe2 	b	404744 <memcmp+0x48>

Disassembly of section .text.memset:

004047b8 <memset>:
  4047b8:	e3100003 	tst	r0, #3
  4047bc:	e92d4030 	push	{r4, r5, lr}
  4047c0:	0a000036 	beq	4048a0 <memset+0xe8>
  4047c4:	e3520000 	cmp	r2, #0
  4047c8:	e2423001 	sub	r3, r2, #1
  4047cc:	0a00002f 	beq	404890 <memset+0xd8>
  4047d0:	e1a0e000 	mov	lr, r0
  4047d4:	e20120ff 	and	r2, r1, #255	@ 0xff
  4047d8:	ea000001 	b	4047e4 <memset+0x2c>
  4047dc:	e2533001 	subs	r3, r3, #1
  4047e0:	3a00002a 	bcc	404890 <memset+0xd8>
  4047e4:	e4ce2001 	strb	r2, [lr], #1
  4047e8:	e31e0003 	tst	lr, #3
  4047ec:	1afffffa 	bne	4047dc <memset+0x24>
  4047f0:	e3530003 	cmp	r3, #3
  4047f4:	9a00001e 	bls	404874 <memset+0xbc>
  4047f8:	e201c0ff 	and	ip, r1, #255	@ 0xff
  4047fc:	e08cc40c 	add	ip, ip, ip, lsl #8
  404800:	e353000f 	cmp	r3, #15
  404804:	e08cc80c 	add	ip, ip, ip, lsl #16
  404808:	9a000027 	bls	4048ac <memset+0xf4>
  40480c:	e2432010 	sub	r2, r3, #16
  404810:	e3c2400f 	bic	r4, r2, #15
  404814:	e28e5020 	add	r5, lr, #32
  404818:	e0855004 	add	r5, r5, r4
  40481c:	e1a04222 	lsr	r4, r2, #4
  404820:	e28e2010 	add	r2, lr, #16
  404824:	e502c010 	str	ip, [r2, #-16]
  404828:	e502c00c 	str	ip, [r2, #-12]
  40482c:	e502c008 	str	ip, [r2, #-8]
  404830:	e502c004 	str	ip, [r2, #-4]
  404834:	e2822010 	add	r2, r2, #16
  404838:	e1520005 	cmp	r2, r5
  40483c:	1afffff8 	bne	404824 <memset+0x6c>
  404840:	e2842001 	add	r2, r4, #1
  404844:	e313000c 	tst	r3, #12
  404848:	e08e2202 	add	r2, lr, r2, lsl #4
  40484c:	e203300f 	and	r3, r3, #15
  404850:	0a000010 	beq	404898 <memset+0xe0>
  404854:	e243e004 	sub	lr, r3, #4
  404858:	e3cee003 	bic	lr, lr, #3
  40485c:	e28ee004 	add	lr, lr, #4
  404860:	e082e00e 	add	lr, r2, lr
  404864:	e482c004 	str	ip, [r2], #4
  404868:	e152000e 	cmp	r2, lr
  40486c:	1afffffc 	bne	404864 <memset+0xac>
  404870:	e2033003 	and	r3, r3, #3
  404874:	e3530000 	cmp	r3, #0
  404878:	120110ff 	andne	r1, r1, #255	@ 0xff
  40487c:	108e3003 	addne	r3, lr, r3
  404880:	0a000002 	beq	404890 <memset+0xd8>
  404884:	e4ce1001 	strb	r1, [lr], #1
  404888:	e153000e 	cmp	r3, lr
  40488c:	1afffffc 	bne	404884 <memset+0xcc>
  404890:	e8bd4030 	pop	{r4, r5, lr}
  404894:	e12fff1e 	bx	lr
  404898:	e1a0e002 	mov	lr, r2
  40489c:	eafffff4 	b	404874 <memset+0xbc>
  4048a0:	e1a0e000 	mov	lr, r0
  4048a4:	e1a03002 	mov	r3, r2
  4048a8:	eaffffd0 	b	4047f0 <memset+0x38>
  4048ac:	e1a0200e 	mov	r2, lr
  4048b0:	eaffffe7 	b	404854 <memset+0x9c>

Disassembly of section .text._puts_r:

004048b4 <_puts_r>:
  4048b4:	e92d4030 	push	{r4, r5, lr}
  4048b8:	e1a05000 	mov	r5, r0
  4048bc:	e24dd024 	sub	sp, sp, #36	@ 0x24
  4048c0:	e1a00001 	mov	r0, r1
  4048c4:	e1a04001 	mov	r4, r1
  4048c8:	eb000157 	bl	404e2c <strlen>
  4048cc:	e3a02001 	mov	r2, #1
  4048d0:	e3a03002 	mov	r3, #2
  4048d4:	e59f10d8 	ldr	r1, [pc, #216]	@ 4049b4 <_puts_r+0x100>
  4048d8:	e58d1018 	str	r1, [sp, #24]
  4048dc:	e5951034 	ldr	r1, [r5, #52]	@ 0x34
  4048e0:	e58d3008 	str	r3, [sp, #8]
  4048e4:	e3510000 	cmp	r1, #0
  4048e8:	e0803002 	add	r3, r0, r2
  4048ec:	e28d1010 	add	r1, sp, #16
  4048f0:	e58d4010 	str	r4, [sp, #16]
  4048f4:	e58d1004 	str	r1, [sp, #4]
  4048f8:	e5954008 	ldr	r4, [r5, #8]
  4048fc:	e58d201c 	str	r2, [sp, #28]
  404900:	e58d0014 	str	r0, [sp, #20]
  404904:	e58d300c 	str	r3, [sp, #12]
  404908:	0a000026 	beq	4049a8 <_puts_r+0xf4>
  40490c:	e5942064 	ldr	r2, [r4, #100]	@ 0x64
  404910:	e3120001 	tst	r2, #1
  404914:	e1d430fc 	ldrsh	r3, [r4, #12]
  404918:	1a000001 	bne	404924 <_puts_r+0x70>
  40491c:	e3130c02 	tst	r3, #512	@ 0x200
  404920:	0a00001c 	beq	404998 <_puts_r+0xe4>
  404924:	e3130a02 	tst	r3, #8192	@ 0x2000
  404928:	05942064 	ldreq	r2, [r4, #100]	@ 0x64
  40492c:	03833a02 	orreq	r3, r3, #8192	@ 0x2000
  404930:	03c22a02 	biceq	r2, r2, #8192	@ 0x2000
  404934:	e1a00005 	mov	r0, r5
  404938:	01c430bc 	strheq	r3, [r4, #12]
  40493c:	05842064 	streq	r2, [r4, #100]	@ 0x64
  404940:	e1a01004 	mov	r1, r4
  404944:	e28d2004 	add	r2, sp, #4
  404948:	eb000186 	bl	404f68 <__sfvwrite_r>
  40494c:	e5943064 	ldr	r3, [r4, #100]	@ 0x64
  404950:	e3500000 	cmp	r0, #0
  404954:	03a0500a 	moveq	r5, #10
  404958:	13e05000 	mvnne	r5, #0
  40495c:	e3130001 	tst	r3, #1
  404960:	1a000002 	bne	404970 <_puts_r+0xbc>
  404964:	e1d430bc 	ldrh	r3, [r4, #12]
  404968:	e3130c02 	tst	r3, #512	@ 0x200
  40496c:	0a000003 	beq	404980 <_puts_r+0xcc>
  404970:	e1a00005 	mov	r0, r5
  404974:	e28dd024 	add	sp, sp, #36	@ 0x24
  404978:	e8bd4030 	pop	{r4, r5, lr}
  40497c:	e12fff1e 	bx	lr
  404980:	e5940058 	ldr	r0, [r4, #88]	@ 0x58
  404984:	eb00052a 	bl	405e34 <__retarget_lock_release_recursive>
  404988:	e1a00005 	mov	r0, r5
  40498c:	e28dd024 	add	sp, sp, #36	@ 0x24
  404990:	e8bd4030 	pop	{r4, r5, lr}
  404994:	e12fff1e 	bx	lr
  404998:	e5940058 	ldr	r0, [r4, #88]	@ 0x58
  40499c:	eb00051e 	bl	405e1c <__retarget_lock_acquire_recursive>
  4049a0:	e1d430fc 	ldrsh	r3, [r4, #12]
  4049a4:	eaffffde 	b	404924 <_puts_r+0x70>
  4049a8:	e1a00005 	mov	r0, r5
  4049ac:	eb0000e1 	bl	404d38 <__sinit>
  4049b0:	eaffffd5 	b	40490c <_puts_r+0x58>
  4049b4:	0040457c 	subeq	r4, r0, ip, ror r5

Disassembly of section .text.puts:

004049b8 <puts>:
  4049b8:	e59f3008 	ldr	r3, [pc, #8]	@ 4049c8 <puts+0x10>
  4049bc:	e1a01000 	mov	r1, r0
  4049c0:	e5930000 	ldr	r0, [r3]
  4049c4:	eaffffba 	b	4048b4 <_puts_r>
  4049c8:	00407434 	subeq	r7, r0, r4, lsr r4

Disassembly of section .text.stdio_exit_handler:

004049cc <stdio_exit_handler>:
  4049cc:	e92d4010 	push	{r4, lr}
  4049d0:	e59f2010 	ldr	r2, [pc, #16]	@ 4049e8 <stdio_exit_handler+0x1c>
  4049d4:	e59f1010 	ldr	r1, [pc, #16]	@ 4049ec <stdio_exit_handler+0x20>
  4049d8:	e59f0010 	ldr	r0, [pc, #16]	@ 4049f0 <stdio_exit_handler+0x24>
  4049dc:	eb0002a5 	bl	405478 <_fwalk_sglue>
  4049e0:	e8bd4010 	pop	{r4, lr}
  4049e4:	e12fff1e 	bx	lr
  4049e8:	00407558 	subeq	r7, r0, r8, asr r5
  4049ec:	00405e38 	subeq	r5, r0, r8, lsr lr
  4049f0:	00407438 	subeq	r7, r0, r8, lsr r4

Disassembly of section .text.cleanup_stdio:

004049f4 <cleanup_stdio>:
  4049f4:	e59f3040 	ldr	r3, [pc, #64]	@ 404a3c <cleanup_stdio+0x48>
  4049f8:	e5901004 	ldr	r1, [r0, #4]
  4049fc:	e1510003 	cmp	r1, r3
  404a00:	e92d4010 	push	{r4, lr}
  404a04:	e1a04000 	mov	r4, r0
  404a08:	1b00050a 	blne	405e38 <_fclose_r>
  404a0c:	e5941008 	ldr	r1, [r4, #8]
  404a10:	e59f3028 	ldr	r3, [pc, #40]	@ 404a40 <cleanup_stdio+0x4c>
  404a14:	e1510003 	cmp	r1, r3
  404a18:	11a00004 	movne	r0, r4
  404a1c:	1b000505 	blne	405e38 <_fclose_r>
  404a20:	e594100c 	ldr	r1, [r4, #12]
  404a24:	e59f3018 	ldr	r3, [pc, #24]	@ 404a44 <cleanup_stdio+0x50>
  404a28:	e1510003 	cmp	r1, r3
  404a2c:	11a00004 	movne	r0, r4
  404a30:	1b000500 	blne	405e38 <_fclose_r>
  404a34:	e8bd4010 	pop	{r4, lr}
  404a38:	e12fff1e 	bx	lr
  404a3c:	0040ff1c 	subeq	pc, r0, ip, lsl pc	@ <UNPREDICTABLE>
  404a40:	0040ff84 	subeq	pc, r0, r4, lsl #31
  404a44:	0040ffec 	subeq	pc, r0, ip, ror #31

Disassembly of section .text.__fp_lock:

00404a48 <__fp_lock>:
  404a48:	e5913064 	ldr	r3, [r1, #100]	@ 0x64
  404a4c:	e3130001 	tst	r3, #1
  404a50:	1a000002 	bne	404a60 <__fp_lock+0x18>
  404a54:	e1d130bc 	ldrh	r3, [r1, #12]
  404a58:	e3130c02 	tst	r3, #512	@ 0x200
  404a5c:	0a000001 	beq	404a68 <__fp_lock+0x20>
  404a60:	e3a00000 	mov	r0, #0
  404a64:	e12fff1e 	bx	lr
  404a68:	e92d4010 	push	{r4, lr}
  404a6c:	e5910058 	ldr	r0, [r1, #88]	@ 0x58
  404a70:	eb0004e9 	bl	405e1c <__retarget_lock_acquire_recursive>
  404a74:	e3a00000 	mov	r0, #0
  404a78:	e8bd4010 	pop	{r4, lr}
  404a7c:	e12fff1e 	bx	lr

Disassembly of section .text.__fp_unlock:

00404a80 <__fp_unlock>:
  404a80:	e5913064 	ldr	r3, [r1, #100]	@ 0x64
  404a84:	e3130001 	tst	r3, #1
  404a88:	1a000002 	bne	404a98 <__fp_unlock+0x18>
  404a8c:	e1d130bc 	ldrh	r3, [r1, #12]
  404a90:	e3130c02 	tst	r3, #512	@ 0x200
  404a94:	0a000001 	beq	404aa0 <__fp_unlock+0x20>
  404a98:	e3a00000 	mov	r0, #0
  404a9c:	e12fff1e 	bx	lr
  404aa0:	e92d4010 	push	{r4, lr}
  404aa4:	e5910058 	ldr	r0, [r1, #88]	@ 0x58
  404aa8:	eb0004e1 	bl	405e34 <__retarget_lock_release_recursive>
  404aac:	e3a00000 	mov	r0, #0
  404ab0:	e8bd4010 	pop	{r4, lr}
  404ab4:	e12fff1e 	bx	lr

Disassembly of section .text.global_stdio_init.part.0:

00404ab8 <global_stdio_init.part.0>:
  404ab8:	e92d47f0 	push	{r4, r5, r6, r7, r8, r9, sl, lr}
  404abc:	e3a05000 	mov	r5, #0
  404ac0:	e3a03004 	mov	r3, #4
  404ac4:	e59f4114 	ldr	r4, [pc, #276]	@ 404be0 <global_stdio_init.part.0+0x128>
  404ac8:	e59f2114 	ldr	r2, [pc, #276]	@ 404be4 <global_stdio_init.part.0+0x12c>
  404acc:	e59f1114 	ldr	r1, [pc, #276]	@ 404be8 <global_stdio_init.part.0+0x130>
  404ad0:	e59f9114 	ldr	r9, [pc, #276]	@ 404bec <global_stdio_init.part.0+0x134>
  404ad4:	e59f8114 	ldr	r8, [pc, #276]	@ 404bf0 <global_stdio_init.part.0+0x138>
  404ad8:	e59f7114 	ldr	r7, [pc, #276]	@ 404bf4 <global_stdio_init.part.0+0x13c>
  404adc:	e59f6114 	ldr	r6, [pc, #276]	@ 404bf8 <global_stdio_init.part.0+0x140>
  404ae0:	e5821000 	str	r1, [r2]
  404ae4:	e284005c 	add	r0, r4, #92	@ 0x5c
  404ae8:	e1a01005 	mov	r1, r5
  404aec:	e3a02008 	mov	r2, #8
  404af0:	e584300c 	str	r3, [r4, #12]
  404af4:	e5845000 	str	r5, [r4]
  404af8:	e5845004 	str	r5, [r4, #4]
  404afc:	e5845008 	str	r5, [r4, #8]
  404b00:	e5845064 	str	r5, [r4, #100]	@ 0x64
  404b04:	e5845010 	str	r5, [r4, #16]
  404b08:	e5845014 	str	r5, [r4, #20]
  404b0c:	e5845018 	str	r5, [r4, #24]
  404b10:	ebffff28 	bl	4047b8 <memset>
  404b14:	e2840058 	add	r0, r4, #88	@ 0x58
  404b18:	e584401c 	str	r4, [r4, #28]
  404b1c:	e5849020 	str	r9, [r4, #32]
  404b20:	e5848024 	str	r8, [r4, #36]	@ 0x24
  404b24:	e5847028 	str	r7, [r4, #40]	@ 0x28
  404b28:	e584602c 	str	r6, [r4, #44]	@ 0x2c
  404b2c:	eb0004b6 	bl	405e0c <__retarget_lock_init_recursive>
  404b30:	e59f30c4 	ldr	r3, [pc, #196]	@ 404bfc <global_stdio_init.part.0+0x144>
  404b34:	e1a01005 	mov	r1, r5
  404b38:	e3a02008 	mov	r2, #8
  404b3c:	e28400c4 	add	r0, r4, #196	@ 0xc4
  404b40:	e5843074 	str	r3, [r4, #116]	@ 0x74
  404b44:	e5845068 	str	r5, [r4, #104]	@ 0x68
  404b48:	e584506c 	str	r5, [r4, #108]	@ 0x6c
  404b4c:	e5845070 	str	r5, [r4, #112]	@ 0x70
  404b50:	e58450cc 	str	r5, [r4, #204]	@ 0xcc
  404b54:	e5845078 	str	r5, [r4, #120]	@ 0x78
  404b58:	e584507c 	str	r5, [r4, #124]	@ 0x7c
  404b5c:	e5845080 	str	r5, [r4, #128]	@ 0x80
  404b60:	ebffff14 	bl	4047b8 <memset>
  404b64:	e2843068 	add	r3, r4, #104	@ 0x68
  404b68:	e28400c0 	add	r0, r4, #192	@ 0xc0
  404b6c:	e5843084 	str	r3, [r4, #132]	@ 0x84
  404b70:	e5849088 	str	r9, [r4, #136]	@ 0x88
  404b74:	e584808c 	str	r8, [r4, #140]	@ 0x8c
  404b78:	e5847090 	str	r7, [r4, #144]	@ 0x90
  404b7c:	e5846094 	str	r6, [r4, #148]	@ 0x94
  404b80:	eb0004a1 	bl	405e0c <__retarget_lock_init_recursive>
  404b84:	e59f3074 	ldr	r3, [pc, #116]	@ 404c00 <global_stdio_init.part.0+0x148>
  404b88:	e1a01005 	mov	r1, r5
  404b8c:	e3a02008 	mov	r2, #8
  404b90:	e2840f4b 	add	r0, r4, #300	@ 0x12c
  404b94:	e58430dc 	str	r3, [r4, #220]	@ 0xdc
  404b98:	e58450d0 	str	r5, [r4, #208]	@ 0xd0
  404b9c:	e58450d4 	str	r5, [r4, #212]	@ 0xd4
  404ba0:	e58450d8 	str	r5, [r4, #216]	@ 0xd8
  404ba4:	e5845134 	str	r5, [r4, #308]	@ 0x134
  404ba8:	e58450e0 	str	r5, [r4, #224]	@ 0xe0
  404bac:	e58450e4 	str	r5, [r4, #228]	@ 0xe4
  404bb0:	e58450e8 	str	r5, [r4, #232]	@ 0xe8
  404bb4:	ebfffeff 	bl	4047b8 <memset>
  404bb8:	e28430d0 	add	r3, r4, #208	@ 0xd0
  404bbc:	e2840f4a 	add	r0, r4, #296	@ 0x128
  404bc0:	e58490f0 	str	r9, [r4, #240]	@ 0xf0
  404bc4:	e58480f4 	str	r8, [r4, #244]	@ 0xf4
  404bc8:	e58470f8 	str	r7, [r4, #248]	@ 0xf8
  404bcc:	e58460fc 	str	r6, [r4, #252]	@ 0xfc
  404bd0:	e58430ec 	str	r3, [r4, #236]	@ 0xec
  404bd4:	eb00048c 	bl	405e0c <__retarget_lock_init_recursive>
  404bd8:	e8bd47f0 	pop	{r4, r5, r6, r7, r8, r9, sl, lr}
  404bdc:	e12fff1e 	bx	lr
  404be0:	0040ff1c 	subeq	pc, r0, ip, lsl pc	@ <UNPREDICTABLE>
  404be4:	00410054 	subeq	r0, r1, r4, asr r0
  404be8:	004049cc 	subeq	r4, r0, ip, asr #19
  404bec:	00404e8c 	subeq	r4, r0, ip, lsl #29
  404bf0:	00404ec8 	subeq	r4, r0, r8, asr #29
  404bf4:	00404f24 	subeq	r4, r0, r4, lsr #30
  404bf8:	00404f54 	subeq	r4, r0, r4, asr pc
  404bfc:	00010009 	andeq	r0, r1, r9
  404c00:	00020012 	andeq	r0, r2, r2, lsl r0

Disassembly of section .text.__sfp:

00404c04 <__sfp>:
  404c04:	e92d41f0 	push	{r4, r5, r6, r7, r8, lr}
  404c08:	e1a06000 	mov	r6, r0
  404c0c:	e59f0114 	ldr	r0, [pc, #276]	@ 404d28 <__sfp+0x124>
  404c10:	eb000481 	bl	405e1c <__retarget_lock_acquire_recursive>
  404c14:	e59f3110 	ldr	r3, [pc, #272]	@ 404d2c <__sfp+0x128>
  404c18:	e5933000 	ldr	r3, [r3]
  404c1c:	e3530000 	cmp	r3, #0
  404c20:	0a000038 	beq	404d08 <__sfp+0x104>
  404c24:	e59f7104 	ldr	r7, [pc, #260]	@ 404d30 <__sfp+0x12c>
  404c28:	e9970018 	ldmib	r7, {r3, r4}
  404c2c:	e2533001 	subs	r3, r3, #1
  404c30:	5a000003 	bpl	404c44 <__sfp+0x40>
  404c34:	ea00001e 	b	404cb4 <__sfp+0xb0>
  404c38:	e3730001 	cmn	r3, #1
  404c3c:	e2844068 	add	r4, r4, #104	@ 0x68
  404c40:	0a00001b 	beq	404cb4 <__sfp+0xb0>
  404c44:	e1d450fc 	ldrsh	r5, [r4, #12]
  404c48:	e3550000 	cmp	r5, #0
  404c4c:	e2433001 	sub	r3, r3, #1
  404c50:	1afffff8 	bne	404c38 <__sfp+0x34>
  404c54:	e59f30d8 	ldr	r3, [pc, #216]	@ 404d34 <__sfp+0x130>
  404c58:	e2840058 	add	r0, r4, #88	@ 0x58
  404c5c:	e584300c 	str	r3, [r4, #12]
  404c60:	e5845064 	str	r5, [r4, #100]	@ 0x64
  404c64:	eb000468 	bl	405e0c <__retarget_lock_init_recursive>
  404c68:	e59f00b8 	ldr	r0, [pc, #184]	@ 404d28 <__sfp+0x124>
  404c6c:	eb000470 	bl	405e34 <__retarget_lock_release_recursive>
  404c70:	e3a02008 	mov	r2, #8
  404c74:	e1a01005 	mov	r1, r5
  404c78:	e5845000 	str	r5, [r4]
  404c7c:	e5845008 	str	r5, [r4, #8]
  404c80:	e5845004 	str	r5, [r4, #4]
  404c84:	e5845010 	str	r5, [r4, #16]
  404c88:	e5845014 	str	r5, [r4, #20]
  404c8c:	e5845018 	str	r5, [r4, #24]
  404c90:	e284005c 	add	r0, r4, #92	@ 0x5c
  404c94:	ebfffec7 	bl	4047b8 <memset>
  404c98:	e5845030 	str	r5, [r4, #48]	@ 0x30
  404c9c:	e5845034 	str	r5, [r4, #52]	@ 0x34
  404ca0:	e5845044 	str	r5, [r4, #68]	@ 0x44
  404ca4:	e5845048 	str	r5, [r4, #72]	@ 0x48
  404ca8:	e1a00004 	mov	r0, r4
  404cac:	e8bd41f0 	pop	{r4, r5, r6, r7, r8, lr}
  404cb0:	e12fff1e 	bx	lr
  404cb4:	e5975000 	ldr	r5, [r7]
  404cb8:	e3550000 	cmp	r5, #0
  404cbc:	0a000001 	beq	404cc8 <__sfp+0xc4>
  404cc0:	e1a07005 	mov	r7, r5
  404cc4:	eaffffd7 	b	404c28 <__sfp+0x24>
  404cc8:	e3a01f6b 	mov	r1, #428	@ 0x1ac
  404ccc:	e1a00006 	mov	r0, r6
  404cd0:	eb000206 	bl	4054f0 <_malloc_r>
  404cd4:	e2504000 	subs	r4, r0, #0
  404cd8:	0a00000c 	beq	404d10 <__sfp+0x10c>
  404cdc:	e3a03004 	mov	r3, #4
  404ce0:	e284000c 	add	r0, r4, #12
  404ce4:	e1a01005 	mov	r1, r5
  404ce8:	e5845000 	str	r5, [r4]
  404cec:	e3a02e1a 	mov	r2, #416	@ 0x1a0
  404cf0:	e5840008 	str	r0, [r4, #8]
  404cf4:	e5843004 	str	r3, [r4, #4]
  404cf8:	ebfffeae 	bl	4047b8 <memset>
  404cfc:	e1a05004 	mov	r5, r4
  404d00:	e5874000 	str	r4, [r7]
  404d04:	eaffffed 	b	404cc0 <__sfp+0xbc>
  404d08:	ebffff6a 	bl	404ab8 <global_stdio_init.part.0>
  404d0c:	eaffffc4 	b	404c24 <__sfp+0x20>
  404d10:	e5874000 	str	r4, [r7]
  404d14:	e59f000c 	ldr	r0, [pc, #12]	@ 404d28 <__sfp+0x124>
  404d18:	eb000445 	bl	405e34 <__retarget_lock_release_recursive>
  404d1c:	e3a0300c 	mov	r3, #12
  404d20:	e5863000 	str	r3, [r6]
  404d24:	eaffffdf 	b	404ca8 <__sfp+0xa4>
  404d28:	004100a8 	subeq	r0, r1, r8, lsr #1
  404d2c:	00410054 	subeq	r0, r1, r4, asr r0
  404d30:	00407558 	subeq	r7, r0, r8, asr r5
  404d34:	ffff0001 			@ <UNDEFINED> instruction: 0xffff0001

Disassembly of section .text.__sinit:

00404d38 <__sinit>:
  404d38:	e92d4010 	push	{r4, lr}
  404d3c:	e1a04000 	mov	r4, r0
  404d40:	e59f0048 	ldr	r0, [pc, #72]	@ 404d90 <__sinit+0x58>
  404d44:	eb000434 	bl	405e1c <__retarget_lock_acquire_recursive>
  404d48:	e5943034 	ldr	r3, [r4, #52]	@ 0x34
  404d4c:	e3530000 	cmp	r3, #0
  404d50:	1a000005 	bne	404d6c <__sinit+0x34>
  404d54:	e59f3038 	ldr	r3, [pc, #56]	@ 404d94 <__sinit+0x5c>
  404d58:	e5933000 	ldr	r3, [r3]
  404d5c:	e59f2034 	ldr	r2, [pc, #52]	@ 404d98 <__sinit+0x60>
  404d60:	e3530000 	cmp	r3, #0
  404d64:	e5842034 	str	r2, [r4, #52]	@ 0x34
  404d68:	0a000003 	beq	404d7c <__sinit+0x44>
  404d6c:	e59f001c 	ldr	r0, [pc, #28]	@ 404d90 <__sinit+0x58>
  404d70:	eb00042f 	bl	405e34 <__retarget_lock_release_recursive>
  404d74:	e8bd4010 	pop	{r4, lr}
  404d78:	e12fff1e 	bx	lr
  404d7c:	ebffff4d 	bl	404ab8 <global_stdio_init.part.0>
  404d80:	e59f0008 	ldr	r0, [pc, #8]	@ 404d90 <__sinit+0x58>
  404d84:	eb00042a 	bl	405e34 <__retarget_lock_release_recursive>
  404d88:	e8bd4010 	pop	{r4, lr}
  404d8c:	e12fff1e 	bx	lr
  404d90:	004100a8 	subeq	r0, r1, r8, lsr #1
  404d94:	00410054 	subeq	r0, r1, r4, asr r0
  404d98:	004049f4 	strdeq	r4, [r0], #-148	@ 0xffffff6c

Disassembly of section .text.__sfp_lock_acquire:

00404d9c <__sfp_lock_acquire>:
  404d9c:	e92d4010 	push	{r4, lr}
  404da0:	e59f0008 	ldr	r0, [pc, #8]	@ 404db0 <__sfp_lock_acquire+0x14>
  404da4:	eb00041c 	bl	405e1c <__retarget_lock_acquire_recursive>
  404da8:	e8bd4010 	pop	{r4, lr}
  404dac:	e12fff1e 	bx	lr
  404db0:	004100a8 	subeq	r0, r1, r8, lsr #1

Disassembly of section .text.__sfp_lock_release:

00404db4 <__sfp_lock_release>:
  404db4:	e92d4010 	push	{r4, lr}
  404db8:	e59f0008 	ldr	r0, [pc, #8]	@ 404dc8 <__sfp_lock_release+0x14>
  404dbc:	eb00041c 	bl	405e34 <__retarget_lock_release_recursive>
  404dc0:	e8bd4010 	pop	{r4, lr}
  404dc4:	e12fff1e 	bx	lr
  404dc8:	004100a8 	subeq	r0, r1, r8, lsr #1

Disassembly of section .text.__fp_lock_all:

00404dcc <__fp_lock_all>:
  404dcc:	e92d4010 	push	{r4, lr}
  404dd0:	e59f0018 	ldr	r0, [pc, #24]	@ 404df0 <__fp_lock_all+0x24>
  404dd4:	eb000410 	bl	405e1c <__retarget_lock_acquire_recursive>
  404dd8:	e3a00000 	mov	r0, #0
  404ddc:	e59f2010 	ldr	r2, [pc, #16]	@ 404df4 <__fp_lock_all+0x28>
  404de0:	e59f1010 	ldr	r1, [pc, #16]	@ 404df8 <__fp_lock_all+0x2c>
  404de4:	eb0001a3 	bl	405478 <_fwalk_sglue>
  404de8:	e8bd4010 	pop	{r4, lr}
  404dec:	e12fff1e 	bx	lr
  404df0:	004100a8 	subeq	r0, r1, r8, lsr #1
  404df4:	00407558 	subeq	r7, r0, r8, asr r5
  404df8:	00404a48 	subeq	r4, r0, r8, asr #20

Disassembly of section .text.__fp_unlock_all:

00404dfc <__fp_unlock_all>:
  404dfc:	e92d4010 	push	{r4, lr}
  404e00:	e59f2018 	ldr	r2, [pc, #24]	@ 404e20 <__fp_unlock_all+0x24>
  404e04:	e59f1018 	ldr	r1, [pc, #24]	@ 404e24 <__fp_unlock_all+0x28>
  404e08:	e3a00000 	mov	r0, #0
  404e0c:	eb000199 	bl	405478 <_fwalk_sglue>
  404e10:	e59f0010 	ldr	r0, [pc, #16]	@ 404e28 <__fp_unlock_all+0x2c>
  404e14:	eb000406 	bl	405e34 <__retarget_lock_release_recursive>
  404e18:	e8bd4010 	pop	{r4, lr}
  404e1c:	e12fff1e 	bx	lr
  404e20:	00407558 	subeq	r7, r0, r8, asr r5
  404e24:	00404a80 	subeq	r4, r0, r0, lsl #21
  404e28:	004100a8 	subeq	r0, r1, r8, lsr #1

Disassembly of section .text.strlen:

00404e2c <strlen>:
  404e2c:	e3c01003 	bic	r1, r0, #3
  404e30:	e2100003 	ands	r0, r0, #3
  404e34:	e2600000 	rsb	r0, r0, #0
  404e38:	e4913004 	ldr	r3, [r1], #4
  404e3c:	e280c004 	add	ip, r0, #4
  404e40:	e1a0c18c 	lsl	ip, ip, #3
  404e44:	e3e02000 	mvn	r2, #0
  404e48:	11833c32 	orrne	r3, r3, r2, lsr ip
  404e4c:	e3a0c001 	mov	ip, #1
  404e50:	e18cc40c 	orr	ip, ip, ip, lsl #8
  404e54:	e18cc80c 	orr	ip, ip, ip, lsl #16
  404e58:	e043200c 	sub	r2, r3, ip
  404e5c:	e1c22003 	bic	r2, r2, r3
  404e60:	e012238c 	ands	r2, r2, ip, lsl #7
  404e64:	04913004 	ldreq	r3, [r1], #4
  404e68:	02800004 	addeq	r0, r0, #4
  404e6c:	0afffff9 	beq	404e58 <strlen+0x2c>
  404e70:	e31300ff 	tst	r3, #255	@ 0xff
  404e74:	12800001 	addne	r0, r0, #1
  404e78:	13130cff 	tstne	r3, #65280	@ 0xff00
  404e7c:	12800001 	addne	r0, r0, #1
  404e80:	131308ff 	tstne	r3, #16711680	@ 0xff0000
  404e84:	12800001 	addne	r0, r0, #1
  404e88:	e12fff1e 	bx	lr

Disassembly of section .text.__sread:

00404e8c <__sread>:
  404e8c:	e92d4010 	push	{r4, lr}
  404e90:	e1a04001 	mov	r4, r1
  404e94:	e1d110fe 	ldrsh	r1, [r1, #14]
  404e98:	eb000913 	bl	4072ec <_read_r>
  404e9c:	e3500000 	cmp	r0, #0
  404ea0:	a5943050 	ldrge	r3, [r4, #80]	@ 0x50
  404ea4:	b1d430bc 	ldrhlt	r3, [r4, #12]
  404ea8:	a0833000 	addge	r3, r3, r0
  404eac:	b3c33a01 	biclt	r3, r3, #4096	@ 0x1000
  404eb0:	a5843050 	strge	r3, [r4, #80]	@ 0x50
  404eb4:	b1c430bc 	strhlt	r3, [r4, #12]
  404eb8:	e8bd4010 	pop	{r4, lr}
  404ebc:	e12fff1e 	bx	lr

Disassembly of section .text.__seofread:

00404ec0 <__seofread>:
  404ec0:	e3a00000 	mov	r0, #0
  404ec4:	e12fff1e 	bx	lr

Disassembly of section .text.__swrite:

00404ec8 <__swrite>:
  404ec8:	e92d41f0 	push	{r4, r5, r6, r7, r8, lr}
  404ecc:	e1a04001 	mov	r4, r1
  404ed0:	e1d110fc 	ldrsh	r1, [r1, #12]
  404ed4:	e3110c01 	tst	r1, #256	@ 0x100
  404ed8:	e1a05000 	mov	r5, r0
  404edc:	e1a06002 	mov	r6, r2
  404ee0:	e1a07003 	mov	r7, r3
  404ee4:	1a000008 	bne	404f0c <__swrite+0x44>
  404ee8:	e3c11a01 	bic	r1, r1, #4096	@ 0x1000
  404eec:	e1c410bc 	strh	r1, [r4, #12]
  404ef0:	e1a03007 	mov	r3, r7
  404ef4:	e1a02006 	mov	r2, r6
  404ef8:	e1a00005 	mov	r0, r5
  404efc:	e1d410fe 	ldrsh	r1, [r4, #14]
  404f00:	eb00014a 	bl	405430 <_write_r>
  404f04:	e8bd41f0 	pop	{r4, r5, r6, r7, r8, lr}
  404f08:	e12fff1e 	bx	lr
  404f0c:	e1d410fe 	ldrsh	r1, [r4, #14]
  404f10:	e3a03002 	mov	r3, #2
  404f14:	e3a02000 	mov	r2, #0
  404f18:	eb0008e1 	bl	4072a4 <_lseek_r>
  404f1c:	e1d410fc 	ldrsh	r1, [r4, #12]
  404f20:	eafffff0 	b	404ee8 <__swrite+0x20>

Disassembly of section .text.__sseek:

00404f24 <__sseek>:
  404f24:	e92d4010 	push	{r4, lr}
  404f28:	e1a04001 	mov	r4, r1
  404f2c:	e1d110fe 	ldrsh	r1, [r1, #14]
  404f30:	eb0008db 	bl	4072a4 <_lseek_r>
  404f34:	e1d430fc 	ldrsh	r3, [r4, #12]
  404f38:	e3700001 	cmn	r0, #1
  404f3c:	03c33a01 	biceq	r3, r3, #4096	@ 0x1000
  404f40:	13833a01 	orrne	r3, r3, #4096	@ 0x1000
  404f44:	15840050 	strne	r0, [r4, #80]	@ 0x50
  404f48:	e1c430bc 	strh	r3, [r4, #12]
  404f4c:	e8bd4010 	pop	{r4, lr}
  404f50:	e12fff1e 	bx	lr

Disassembly of section .text.__sclose:

00404f54 <__sclose>:
  404f54:	e92d4010 	push	{r4, lr}
  404f58:	e1d110fe 	ldrsh	r1, [r1, #14]
  404f5c:	eb0004e8 	bl	406304 <_close_r>
  404f60:	e8bd4010 	pop	{r4, lr}
  404f64:	e12fff1e 	bx	lr

Disassembly of section .text.__sfvwrite_r:

00404f68 <__sfvwrite_r>:
  404f68:	e5923008 	ldr	r3, [r2, #8]
  404f6c:	e3530000 	cmp	r3, #0
  404f70:	0a000096 	beq	4051d0 <__sfvwrite_r+0x268>
  404f74:	e92d4ff0 	push	{r4, r5, r6, r7, r8, r9, sl, fp, lr}
  404f78:	e1d1e0fc 	ldrsh	lr, [r1, #12]
  404f7c:	e31e0008 	tst	lr, #8
  404f80:	e1a08002 	mov	r8, r2
  404f84:	e1a0b000 	mov	fp, r0
  404f88:	e1a04001 	mov	r4, r1
  404f8c:	e24dd00c 	sub	sp, sp, #12
  404f90:	0a000024 	beq	405028 <__sfvwrite_r+0xc0>
  404f94:	e5913010 	ldr	r3, [r1, #16]
  404f98:	e3530000 	cmp	r3, #0
  404f9c:	0a000021 	beq	405028 <__sfvwrite_r+0xc0>
  404fa0:	e21e3002 	ands	r3, lr, #2
  404fa4:	e5986000 	ldr	r6, [r8]
  404fa8:	0a000027 	beq	40504c <__sfvwrite_r+0xe4>
  404fac:	e3a09000 	mov	r9, #0
  404fb0:	e1a05009 	mov	r5, r9
  404fb4:	e594a024 	ldr	sl, [r4, #36]	@ 0x24
  404fb8:	e594101c 	ldr	r1, [r4, #28]
  404fbc:	e59f7468 	ldr	r7, [pc, #1128]	@ 40542c <__sfvwrite_r+0x4c4>
  404fc0:	e3550000 	cmp	r5, #0
  404fc4:	0a000013 	beq	405018 <__sfvwrite_r+0xb0>
  404fc8:	e1550007 	cmp	r5, r7
  404fcc:	31a03005 	movcc	r3, r5
  404fd0:	21a03007 	movcs	r3, r7
  404fd4:	e1a02009 	mov	r2, r9
  404fd8:	e1a0000b 	mov	r0, fp
  404fdc:	e1a0e00f 	mov	lr, pc
  404fe0:	e12fff1a 	bx	sl
  404fe4:	e3500000 	cmp	r0, #0
  404fe8:	da000071 	ble	4051b4 <__sfvwrite_r+0x24c>
  404fec:	e5983008 	ldr	r3, [r8, #8]
  404ff0:	e0433000 	sub	r3, r3, r0
  404ff4:	e3530000 	cmp	r3, #0
  404ff8:	e5883008 	str	r3, [r8, #8]
  404ffc:	e0899000 	add	r9, r9, r0
  405000:	e0455000 	sub	r5, r5, r0
  405004:	0a000061 	beq	405190 <__sfvwrite_r+0x228>
  405008:	e3550000 	cmp	r5, #0
  40500c:	e594a024 	ldr	sl, [r4, #36]	@ 0x24
  405010:	e594101c 	ldr	r1, [r4, #28]
  405014:	1affffeb 	bne	404fc8 <__sfvwrite_r+0x60>
  405018:	e5969000 	ldr	r9, [r6]
  40501c:	e5965004 	ldr	r5, [r6, #4]
  405020:	e2866008 	add	r6, r6, #8
  405024:	eaffffe5 	b	404fc0 <__sfvwrite_r+0x58>
  405028:	e1a01004 	mov	r1, r4
  40502c:	e1a0000b 	mov	r0, fp
  405030:	eb0003e6 	bl	405fd0 <__swsetup_r>
  405034:	e3500000 	cmp	r0, #0
  405038:	1a000060 	bne	4051c0 <__sfvwrite_r+0x258>
  40503c:	e1d4e0fc 	ldrsh	lr, [r4, #12]
  405040:	e21e3002 	ands	r3, lr, #2
  405044:	e5986000 	ldr	r6, [r8]
  405048:	1affffd7 	bne	404fac <__sfvwrite_r+0x44>
  40504c:	e21e9001 	ands	r9, lr, #1
  405050:	1a000060 	bne	4051d8 <__sfvwrite_r+0x270>
  405054:	e1a07009 	mov	r7, r9
  405058:	e594c000 	ldr	ip, [r4]
  40505c:	e5943008 	ldr	r3, [r4, #8]
  405060:	e3570000 	cmp	r7, #0
  405064:	e1a0000c 	mov	r0, ip
  405068:	e1a0a003 	mov	sl, r3
  40506c:	0a000043 	beq	405180 <__sfvwrite_r+0x218>
  405070:	e31e0c02 	tst	lr, #512	@ 0x200
  405074:	0a000092 	beq	4052c4 <__sfvwrite_r+0x35c>
  405078:	e1530007 	cmp	r3, r7
  40507c:	e1a02003 	mov	r2, r3
  405080:	8a0000ba 	bhi	405370 <__sfvwrite_r+0x408>
  405084:	e31e0d12 	tst	lr, #1152	@ 0x480
  405088:	0a000023 	beq	40511c <__sfvwrite_r+0x1b4>
  40508c:	e5943010 	ldr	r3, [r4, #16]
  405090:	e5942014 	ldr	r2, [r4, #20]
  405094:	e04c5003 	sub	r5, ip, r3
  405098:	e0822082 	add	r2, r2, r2, lsl #1
  40509c:	e0822fa2 	add	r2, r2, r2, lsr #31
  4050a0:	e2851001 	add	r1, r5, #1
  4050a4:	e1a020c2 	asr	r2, r2, #1
  4050a8:	e0811007 	add	r1, r1, r7
  4050ac:	e1510002 	cmp	r1, r2
  4050b0:	91a0a002 	movls	sl, r2
  4050b4:	81a0a001 	movhi	sl, r1
  4050b8:	81a02001 	movhi	r2, r1
  4050bc:	e31e0b01 	tst	lr, #1024	@ 0x400
  4050c0:	0a0000c5 	beq	4053dc <__sfvwrite_r+0x474>
  4050c4:	e1a01002 	mov	r1, r2
  4050c8:	e1a0000b 	mov	r0, fp
  4050cc:	eb000107 	bl	4054f0 <_malloc_r>
  4050d0:	e2503000 	subs	r3, r0, #0
  4050d4:	0a0000d0 	beq	40541c <__sfvwrite_r+0x4b4>
  4050d8:	e1a02005 	mov	r2, r5
  4050dc:	e5941010 	ldr	r1, [r4, #16]
  4050e0:	e58d3004 	str	r3, [sp, #4]
  4050e4:	eb0005dd 	bl	406860 <memcpy>
  4050e8:	e1d420bc 	ldrh	r2, [r4, #12]
  4050ec:	e3c22d12 	bic	r2, r2, #1152	@ 0x480
  4050f0:	e3822080 	orr	r2, r2, #128	@ 0x80
  4050f4:	e1c420bc 	strh	r2, [r4, #12]
  4050f8:	e59d3004 	ldr	r3, [sp, #4]
  4050fc:	e04ac005 	sub	ip, sl, r5
  405100:	e584a014 	str	sl, [r4, #20]
  405104:	e1a02007 	mov	r2, r7
  405108:	e1a0a007 	mov	sl, r7
  40510c:	e0830005 	add	r0, r3, r5
  405110:	e5843010 	str	r3, [r4, #16]
  405114:	e584c008 	str	ip, [r4, #8]
  405118:	e5840000 	str	r0, [r4]
  40511c:	e1a05007 	mov	r5, r7
  405120:	e3a07000 	mov	r7, #0
  405124:	e1a01009 	mov	r1, r9
  405128:	e58d2004 	str	r2, [sp, #4]
  40512c:	eb0002e0 	bl	405cb4 <memmove>
  405130:	e5943008 	ldr	r3, [r4, #8]
  405134:	e594c000 	ldr	ip, [r4]
  405138:	e59d2004 	ldr	r2, [sp, #4]
  40513c:	e043a00a 	sub	sl, r3, sl
  405140:	e08c2002 	add	r2, ip, r2
  405144:	e584a008 	str	sl, [r4, #8]
  405148:	e5842000 	str	r2, [r4]
  40514c:	e5983008 	ldr	r3, [r8, #8]
  405150:	e0433005 	sub	r3, r3, r5
  405154:	e3530000 	cmp	r3, #0
  405158:	e5883008 	str	r3, [r8, #8]
  40515c:	e0899005 	add	r9, r9, r5
  405160:	0a00000a 	beq	405190 <__sfvwrite_r+0x228>
  405164:	e594c000 	ldr	ip, [r4]
  405168:	e5943008 	ldr	r3, [r4, #8]
  40516c:	e3570000 	cmp	r7, #0
  405170:	e1a0000c 	mov	r0, ip
  405174:	e1a0a003 	mov	sl, r3
  405178:	e1d4e0fc 	ldrsh	lr, [r4, #12]
  40517c:	1affffbb 	bne	405070 <__sfvwrite_r+0x108>
  405180:	e5969000 	ldr	r9, [r6]
  405184:	e5967004 	ldr	r7, [r6, #4]
  405188:	e2866008 	add	r6, r6, #8
  40518c:	eaffffb3 	b	405060 <__sfvwrite_r+0xf8>
  405190:	e3a00000 	mov	r0, #0
  405194:	e28dd00c 	add	sp, sp, #12
  405198:	e8bd4ff0 	pop	{r4, r5, r6, r7, r8, r9, sl, fp, lr}
  40519c:	e12fff1e 	bx	lr
  4051a0:	e1a01004 	mov	r1, r4
  4051a4:	e1a0000b 	mov	r0, fp
  4051a8:	eb000513 	bl	4065fc <_fflush_r>
  4051ac:	e3500000 	cmp	r0, #0
  4051b0:	0a00002b 	beq	405264 <__sfvwrite_r+0x2fc>
  4051b4:	e1d430fc 	ldrsh	r3, [r4, #12]
  4051b8:	e3833040 	orr	r3, r3, #64	@ 0x40
  4051bc:	e1c430bc 	strh	r3, [r4, #12]
  4051c0:	e3e00000 	mvn	r0, #0
  4051c4:	e28dd00c 	add	sp, sp, #12
  4051c8:	e8bd4ff0 	pop	{r4, r5, r6, r7, r8, r9, sl, fp, lr}
  4051cc:	e12fff1e 	bx	lr
  4051d0:	e3a00000 	mov	r0, #0
  4051d4:	e12fff1e 	bx	lr
  4051d8:	e1a09003 	mov	r9, r3
  4051dc:	e1a00003 	mov	r0, r3
  4051e0:	e1a0a003 	mov	sl, r3
  4051e4:	e1a07003 	mov	r7, r3
  4051e8:	ea000024 	b	405280 <__sfvwrite_r+0x318>
  4051ec:	e3500000 	cmp	r0, #0
  4051f0:	0a00002a 	beq	4052a0 <__sfvwrite_r+0x338>
  4051f4:	e1a02009 	mov	r2, r9
  4051f8:	e1520007 	cmp	r2, r7
  4051fc:	21a02007 	movcs	r2, r7
  405200:	e5941010 	ldr	r1, [r4, #16]
  405204:	e5943014 	ldr	r3, [r4, #20]
  405208:	e5945008 	ldr	r5, [r4, #8]
  40520c:	e5940000 	ldr	r0, [r4]
  405210:	e0835005 	add	r5, r3, r5
  405214:	e1500001 	cmp	r0, r1
  405218:	93a01000 	movls	r1, #0
  40521c:	83a01001 	movhi	r1, #1
  405220:	e1520005 	cmp	r2, r5
  405224:	d3a01000 	movle	r1, #0
  405228:	e3510000 	cmp	r1, #0
  40522c:	1a00005e 	bne	4053ac <__sfvwrite_r+0x444>
  405230:	e1530002 	cmp	r3, r2
  405234:	ca000050 	bgt	40537c <__sfvwrite_r+0x414>
  405238:	e5945024 	ldr	r5, [r4, #36]	@ 0x24
  40523c:	e1a0200a 	mov	r2, sl
  405240:	e1a0000b 	mov	r0, fp
  405244:	e594101c 	ldr	r1, [r4, #28]
  405248:	e1a0e00f 	mov	lr, pc
  40524c:	e12fff15 	bx	r5
  405250:	e2505000 	subs	r5, r0, #0
  405254:	daffffd6 	ble	4051b4 <__sfvwrite_r+0x24c>
  405258:	e0599005 	subs	r9, r9, r5
  40525c:	13a00001 	movne	r0, #1
  405260:	0affffce 	beq	4051a0 <__sfvwrite_r+0x238>
  405264:	e5983008 	ldr	r3, [r8, #8]
  405268:	e0433005 	sub	r3, r3, r5
  40526c:	e3530000 	cmp	r3, #0
  405270:	e5883008 	str	r3, [r8, #8]
  405274:	e08aa005 	add	sl, sl, r5
  405278:	e0477005 	sub	r7, r7, r5
  40527c:	0affffc3 	beq	405190 <__sfvwrite_r+0x228>
  405280:	e3570000 	cmp	r7, #0
  405284:	1affffd8 	bne	4051ec <__sfvwrite_r+0x284>
  405288:	e5967004 	ldr	r7, [r6, #4]
  40528c:	e3570000 	cmp	r7, #0
  405290:	e1a03006 	mov	r3, r6
  405294:	e2866008 	add	r6, r6, #8
  405298:	0afffffa 	beq	405288 <__sfvwrite_r+0x320>
  40529c:	e593a000 	ldr	sl, [r3]
  4052a0:	e1a02007 	mov	r2, r7
  4052a4:	e3a0100a 	mov	r1, #10
  4052a8:	e1a0000a 	mov	r0, sl
  4052ac:	eb00052e 	bl	40676c <memchr>
  4052b0:	e3500000 	cmp	r0, #0
  4052b4:	0a000055 	beq	405410 <__sfvwrite_r+0x4a8>
  4052b8:	e2800001 	add	r0, r0, #1
  4052bc:	e040900a 	sub	r9, r0, sl
  4052c0:	eaffffcb 	b	4051f4 <__sfvwrite_r+0x28c>
  4052c4:	e5942010 	ldr	r2, [r4, #16]
  4052c8:	e152000c 	cmp	r2, ip
  4052cc:	3a000012 	bcc	40531c <__sfvwrite_r+0x3b4>
  4052d0:	e5941014 	ldr	r1, [r4, #20]
  4052d4:	e1510007 	cmp	r1, r7
  4052d8:	8a00000f 	bhi	40531c <__sfvwrite_r+0x3b4>
  4052dc:	e3770106 	cmn	r7, #-2147483647	@ 0x80000001
  4052e0:	31a05007 	movcc	r5, r7
  4052e4:	23e05102 	mvncs	r5, #-2147483648	@ 0x80000000
  4052e8:	e1a00005 	mov	r0, r5
  4052ec:	ebfffc39 	bl	4043d8 <__aeabi_idivmod>
  4052f0:	e1a02009 	mov	r2, r9
  4052f4:	e0453001 	sub	r3, r5, r1
  4052f8:	e1a0000b 	mov	r0, fp
  4052fc:	e5945024 	ldr	r5, [r4, #36]	@ 0x24
  405300:	e594101c 	ldr	r1, [r4, #28]
  405304:	e1a0e00f 	mov	lr, pc
  405308:	e12fff15 	bx	r5
  40530c:	e2505000 	subs	r5, r0, #0
  405310:	daffffa7 	ble	4051b4 <__sfvwrite_r+0x24c>
  405314:	e0477005 	sub	r7, r7, r5
  405318:	eaffff8b 	b	40514c <__sfvwrite_r+0x1e4>
  40531c:	e1530007 	cmp	r3, r7
  405320:	31a05003 	movcc	r5, r3
  405324:	21a05007 	movcs	r5, r7
  405328:	e1a0000c 	mov	r0, ip
  40532c:	e1a01009 	mov	r1, r9
  405330:	e1a02005 	mov	r2, r5
  405334:	eb00025e 	bl	405cb4 <memmove>
  405338:	e5943008 	ldr	r3, [r4, #8]
  40533c:	e594c000 	ldr	ip, [r4]
  405340:	e0433005 	sub	r3, r3, r5
  405344:	e08cc005 	add	ip, ip, r5
  405348:	e3530000 	cmp	r3, #0
  40534c:	e5843008 	str	r3, [r4, #8]
  405350:	e584c000 	str	ip, [r4]
  405354:	1affffee 	bne	405314 <__sfvwrite_r+0x3ac>
  405358:	e1a01004 	mov	r1, r4
  40535c:	e1a0000b 	mov	r0, fp
  405360:	eb0004a5 	bl	4065fc <_fflush_r>
  405364:	e3500000 	cmp	r0, #0
  405368:	0affffe9 	beq	405314 <__sfvwrite_r+0x3ac>
  40536c:	eaffff90 	b	4051b4 <__sfvwrite_r+0x24c>
  405370:	e1a0a007 	mov	sl, r7
  405374:	e1a02007 	mov	r2, r7
  405378:	eaffff67 	b	40511c <__sfvwrite_r+0x1b4>
  40537c:	e1a0100a 	mov	r1, sl
  405380:	e1a05002 	mov	r5, r2
  405384:	e58d2004 	str	r2, [sp, #4]
  405388:	eb000249 	bl	405cb4 <memmove>
  40538c:	e5943008 	ldr	r3, [r4, #8]
  405390:	e59d2004 	ldr	r2, [sp, #4]
  405394:	e0433002 	sub	r3, r3, r2
  405398:	e5843008 	str	r3, [r4, #8]
  40539c:	e5943000 	ldr	r3, [r4]
  4053a0:	e0833002 	add	r3, r3, r2
  4053a4:	e5843000 	str	r3, [r4]
  4053a8:	eaffffaa 	b	405258 <__sfvwrite_r+0x2f0>
  4053ac:	e1a02005 	mov	r2, r5
  4053b0:	e1a0100a 	mov	r1, sl
  4053b4:	eb00023e 	bl	405cb4 <memmove>
  4053b8:	e5943000 	ldr	r3, [r4]
  4053bc:	e0833005 	add	r3, r3, r5
  4053c0:	e1a01004 	mov	r1, r4
  4053c4:	e1a0000b 	mov	r0, fp
  4053c8:	e5843000 	str	r3, [r4]
  4053cc:	eb00048a 	bl	4065fc <_fflush_r>
  4053d0:	e3500000 	cmp	r0, #0
  4053d4:	0affff9f 	beq	405258 <__sfvwrite_r+0x2f0>
  4053d8:	eaffff75 	b	4051b4 <__sfvwrite_r+0x24c>
  4053dc:	e1a01003 	mov	r1, r3
  4053e0:	e1a0000b 	mov	r0, fp
  4053e4:	eb000562 	bl	406974 <_realloc_r>
  4053e8:	e2503000 	subs	r3, r0, #0
  4053ec:	1affff42 	bne	4050fc <__sfvwrite_r+0x194>
  4053f0:	e1a0000b 	mov	r0, fp
  4053f4:	e5941010 	ldr	r1, [r4, #16]
  4053f8:	eb0006d0 	bl	406f40 <_free_r>
  4053fc:	e3a0200c 	mov	r2, #12
  405400:	e1d430fc 	ldrsh	r3, [r4, #12]
  405404:	e58b2000 	str	r2, [fp]
  405408:	e3c33080 	bic	r3, r3, #128	@ 0x80
  40540c:	eaffff69 	b	4051b8 <__sfvwrite_r+0x250>
  405410:	e2872001 	add	r2, r7, #1
  405414:	e1a09002 	mov	r9, r2
  405418:	eaffff76 	b	4051f8 <__sfvwrite_r+0x290>
  40541c:	e3a0200c 	mov	r2, #12
  405420:	e1d430fc 	ldrsh	r3, [r4, #12]
  405424:	e58b2000 	str	r2, [fp]
  405428:	eaffff62 	b	4051b8 <__sfvwrite_r+0x250>
  40542c:	7ffffc00 	svcvc	0x00fffc00

Disassembly of section .text._write_r:

00405430 <_write_r>:
  405430:	e92d4070 	push	{r4, r5, r6, lr}
  405434:	e1a0e001 	mov	lr, r1
  405438:	e1a01002 	mov	r1, r2
  40543c:	e3a02000 	mov	r2, #0
  405440:	e59f502c 	ldr	r5, [pc, #44]	@ 405474 <_write_r+0x44>
  405444:	e1a04000 	mov	r4, r0
  405448:	e5852000 	str	r2, [r5]
  40544c:	e1a0000e 	mov	r0, lr
  405450:	e1a02003 	mov	r2, r3
  405454:	eb0007f0 	bl	40741c <_write>
  405458:	e3700001 	cmn	r0, #1
  40545c:	1a000002 	bne	40546c <_write_r+0x3c>
  405460:	e5953000 	ldr	r3, [r5]
  405464:	e3530000 	cmp	r3, #0
  405468:	15843000 	strne	r3, [r4]
  40546c:	e8bd4070 	pop	{r4, r5, r6, lr}
  405470:	e12fff1e 	bx	lr
  405474:	004100ac 	subeq	r0, r1, ip, lsr #1

Disassembly of section .text._fwalk_sglue:

00405478 <_fwalk_sglue>:
  405478:	e92d47f0 	push	{r4, r5, r6, r7, r8, r9, sl, lr}
  40547c:	e3a09000 	mov	r9, #0
  405480:	e1a08000 	mov	r8, r0
  405484:	e1a07001 	mov	r7, r1
  405488:	e1a06002 	mov	r6, r2
  40548c:	e5965004 	ldr	r5, [r6, #4]
  405490:	e2555001 	subs	r5, r5, #1
  405494:	e5964008 	ldr	r4, [r6, #8]
  405498:	4a00000e 	bmi	4054d8 <_fwalk_sglue+0x60>
  40549c:	e1d430bc 	ldrh	r3, [r4, #12]
  4054a0:	e3530001 	cmp	r3, #1
  4054a4:	e2455001 	sub	r5, r5, #1
  4054a8:	9a000007 	bls	4054cc <_fwalk_sglue+0x54>
  4054ac:	e1d430fe 	ldrsh	r3, [r4, #14]
  4054b0:	e3730001 	cmn	r3, #1
  4054b4:	0a000004 	beq	4054cc <_fwalk_sglue+0x54>
  4054b8:	e1a01004 	mov	r1, r4
  4054bc:	e1a00008 	mov	r0, r8
  4054c0:	e1a0e00f 	mov	lr, pc
  4054c4:	e12fff17 	bx	r7
  4054c8:	e1899000 	orr	r9, r9, r0
  4054cc:	e3750001 	cmn	r5, #1
  4054d0:	e2844068 	add	r4, r4, #104	@ 0x68
  4054d4:	1afffff0 	bne	40549c <_fwalk_sglue+0x24>
  4054d8:	e5966000 	ldr	r6, [r6]
  4054dc:	e3560000 	cmp	r6, #0
  4054e0:	1affffe9 	bne	40548c <_fwalk_sglue+0x14>
  4054e4:	e1a00009 	mov	r0, r9
  4054e8:	e8bd47f0 	pop	{r4, r5, r6, r7, r8, r9, sl, lr}
  4054ec:	e12fff1e 	bx	lr

Disassembly of section .text._malloc_r:

004054f0 <_malloc_r>:
  4054f0:	e92d4ff0 	push	{r4, r5, r6, r7, r8, r9, sl, fp, lr}
  4054f4:	e281300b 	add	r3, r1, #11
  4054f8:	e3530016 	cmp	r3, #22
  4054fc:	e1a07000 	mov	r7, r0
  405500:	e24dd00c 	sub	sp, sp, #12
  405504:	8a00001c 	bhi	40557c <_malloc_r+0x8c>
  405508:	e3510010 	cmp	r1, #16
  40550c:	8a000081 	bhi	405718 <_malloc_r+0x228>
  405510:	eb00036f 	bl	4062d4 <__malloc_lock>
  405514:	e3a05010 	mov	r5, #16
  405518:	e3a03018 	mov	r3, #24
  40551c:	e3a00002 	mov	r0, #2
  405520:	e59f676c 	ldr	r6, [pc, #1900]	@ 405c94 <_malloc_r+0x7a4>
  405524:	e0863003 	add	r3, r6, r3
  405528:	e5934004 	ldr	r4, [r3, #4]
  40552c:	e2432008 	sub	r2, r3, #8
  405530:	e1540002 	cmp	r4, r2
  405534:	0a0000d3 	beq	405888 <_malloc_r+0x398>
  405538:	e5943004 	ldr	r3, [r4, #4]
  40553c:	e594200c 	ldr	r2, [r4, #12]
  405540:	e3c33003 	bic	r3, r3, #3
  405544:	e5941008 	ldr	r1, [r4, #8]
  405548:	e0843003 	add	r3, r4, r3
  40554c:	e581200c 	str	r2, [r1, #12]
  405550:	e5821008 	str	r1, [r2, #8]
  405554:	e5932004 	ldr	r2, [r3, #4]
  405558:	e3822001 	orr	r2, r2, #1
  40555c:	e1a00007 	mov	r0, r7
  405560:	e5832004 	str	r2, [r3, #4]
  405564:	e2844008 	add	r4, r4, #8
  405568:	eb00035f 	bl	4062ec <__malloc_unlock>
  40556c:	e1a00004 	mov	r0, r4
  405570:	e28dd00c 	add	sp, sp, #12
  405574:	e8bd4ff0 	pop	{r4, r5, r6, r7, r8, r9, sl, fp, lr}
  405578:	e12fff1e 	bx	lr
  40557c:	e3c35007 	bic	r5, r3, #7
  405580:	e1510005 	cmp	r1, r5
  405584:	93a01000 	movls	r1, #0
  405588:	83a01001 	movhi	r1, #1
  40558c:	e1911fa3 	orrs	r1, r1, r3, lsr #31
  405590:	1a000060 	bne	405718 <_malloc_r+0x228>
  405594:	eb00034e 	bl	4062d4 <__malloc_lock>
  405598:	e3550f7e 	cmp	r5, #504	@ 0x1f8
  40559c:	3a0000fd 	bcc	405998 <_malloc_r+0x4a8>
  4055a0:	e1b034a5 	lsrs	r3, r5, #9
  4055a4:	0a00005f 	beq	405728 <_malloc_r+0x238>
  4055a8:	e3530004 	cmp	r3, #4
  4055ac:	8a0000d5 	bhi	405908 <_malloc_r+0x418>
  4055b0:	e1a03325 	lsr	r3, r5, #6
  4055b4:	e2830039 	add	r0, r3, #57	@ 0x39
  4055b8:	e283c038 	add	ip, r3, #56	@ 0x38
  4055bc:	e1a01180 	lsl	r1, r0, #3
  4055c0:	e59f66cc 	ldr	r6, [pc, #1740]	@ 405c94 <_malloc_r+0x7a4>
  4055c4:	e0861001 	add	r1, r6, r1
  4055c8:	e5914004 	ldr	r4, [r1, #4]
  4055cc:	e2411008 	sub	r1, r1, #8
  4055d0:	e1510004 	cmp	r1, r4
  4055d4:	1a000006 	bne	4055f4 <_malloc_r+0x104>
  4055d8:	ea00000b 	b	40560c <_malloc_r+0x11c>
  4055dc:	e3520000 	cmp	r2, #0
  4055e0:	e594200c 	ldr	r2, [r4, #12]
  4055e4:	aaffffd6 	bge	405544 <_malloc_r+0x54>
  4055e8:	e1510002 	cmp	r1, r2
  4055ec:	0a000006 	beq	40560c <_malloc_r+0x11c>
  4055f0:	e1a04002 	mov	r4, r2
  4055f4:	e5943004 	ldr	r3, [r4, #4]
  4055f8:	e3c33003 	bic	r3, r3, #3
  4055fc:	e0432005 	sub	r2, r3, r5
  405600:	e352000f 	cmp	r2, #15
  405604:	dafffff4 	ble	4055dc <_malloc_r+0xec>
  405608:	e1a0000c 	mov	r0, ip
  40560c:	e5964010 	ldr	r4, [r6, #16]
  405610:	e59f8680 	ldr	r8, [pc, #1664]	@ 405c98 <_malloc_r+0x7a8>
  405614:	e1540008 	cmp	r4, r8
  405618:	0596c004 	ldreq	ip, [r6, #4]
  40561c:	0a000018 	beq	405684 <_malloc_r+0x194>
  405620:	e5941004 	ldr	r1, [r4, #4]
  405624:	e3c11003 	bic	r1, r1, #3
  405628:	e0413005 	sub	r3, r1, r5
  40562c:	e353000f 	cmp	r3, #15
  405630:	ca0000e3 	bgt	4059c4 <_malloc_r+0x4d4>
  405634:	e3530000 	cmp	r3, #0
  405638:	e5868010 	str	r8, [r6, #16]
  40563c:	e5868014 	str	r8, [r6, #20]
  405640:	aa0000d7 	bge	4059a4 <_malloc_r+0x4b4>
  405644:	e3510c02 	cmp	r1, #512	@ 0x200
  405648:	e596c004 	ldr	ip, [r6, #4]
  40564c:	2a000092 	bcs	40589c <_malloc_r+0x3ac>
  405650:	e3a02001 	mov	r2, #1
  405654:	e1a031a1 	lsr	r3, r1, #3
  405658:	e0833002 	add	r3, r3, r2
  40565c:	e1a012a1 	lsr	r1, r1, #5
  405660:	e18cc112 	orr	ip, ip, r2, lsl r1
  405664:	e7961183 	ldr	r1, [r6, r3, lsl #3]
  405668:	e0862183 	add	r2, r6, r3, lsl #3
  40566c:	e2422008 	sub	r2, r2, #8
  405670:	e5841008 	str	r1, [r4, #8]
  405674:	e584200c 	str	r2, [r4, #12]
  405678:	e586c004 	str	ip, [r6, #4]
  40567c:	e7864183 	str	r4, [r6, r3, lsl #3]
  405680:	e581400c 	str	r4, [r1, #12]
  405684:	e3a01001 	mov	r1, #1
  405688:	e1a03140 	asr	r3, r0, #2
  40568c:	e1a01311 	lsl	r1, r1, r3
  405690:	e151000c 	cmp	r1, ip
  405694:	8a000027 	bhi	405738 <_malloc_r+0x248>
  405698:	e111000c 	tst	r1, ip
  40569c:	1a000008 	bne	4056c4 <_malloc_r+0x1d4>
  4056a0:	e1a01081 	lsl	r1, r1, #1
  4056a4:	e3c00003 	bic	r0, r0, #3
  4056a8:	e111000c 	tst	r1, ip
  4056ac:	e2800004 	add	r0, r0, #4
  4056b0:	1a000003 	bne	4056c4 <_malloc_r+0x1d4>
  4056b4:	e1a01081 	lsl	r1, r1, #1
  4056b8:	e111000c 	tst	r1, ip
  4056bc:	e2800004 	add	r0, r0, #4
  4056c0:	0afffffb 	beq	4056b4 <_malloc_r+0x1c4>
  4056c4:	e086a180 	add	sl, r6, r0, lsl #3
  4056c8:	e1a0e00a 	mov	lr, sl
  4056cc:	e1a09000 	mov	r9, r0
  4056d0:	e59ec00c 	ldr	ip, [lr, #12]
  4056d4:	ea000008 	b	4056fc <_malloc_r+0x20c>
  4056d8:	e59c3004 	ldr	r3, [ip, #4]
  4056dc:	e3c33003 	bic	r3, r3, #3
  4056e0:	e0432005 	sub	r2, r3, r5
  4056e4:	e352000f 	cmp	r2, #15
  4056e8:	e1a0400c 	mov	r4, ip
  4056ec:	e59cc00c 	ldr	ip, [ip, #12]
  4056f0:	ca00008d 	bgt	40592c <_malloc_r+0x43c>
  4056f4:	e3520000 	cmp	r2, #0
  4056f8:	aa00009c 	bge	405970 <_malloc_r+0x480>
  4056fc:	e15e000c 	cmp	lr, ip
  405700:	1afffff4 	bne	4056d8 <_malloc_r+0x1e8>
  405704:	e2899001 	add	r9, r9, #1
  405708:	e3190003 	tst	r9, #3
  40570c:	e28ee008 	add	lr, lr, #8
  405710:	1affffee 	bne	4056d0 <_malloc_r+0x1e0>
  405714:	ea0000ca 	b	405a44 <_malloc_r+0x554>
  405718:	e3a0300c 	mov	r3, #12
  40571c:	e5873000 	str	r3, [r7]
  405720:	e3a04000 	mov	r4, #0
  405724:	eaffff90 	b	40556c <_malloc_r+0x7c>
  405728:	e3a01c02 	mov	r1, #512	@ 0x200
  40572c:	e3a00040 	mov	r0, #64	@ 0x40
  405730:	e3a0c03f 	mov	ip, #63	@ 0x3f
  405734:	eaffffa1 	b	4055c0 <_malloc_r+0xd0>
  405738:	e5964008 	ldr	r4, [r6, #8]
  40573c:	e5949004 	ldr	r9, [r4, #4]
  405740:	e3c99003 	bic	r9, r9, #3
  405744:	e1590005 	cmp	r9, r5
  405748:	23a02000 	movcs	r2, #0
  40574c:	33a02001 	movcc	r2, #1
  405750:	e0493005 	sub	r3, r9, r5
  405754:	e353000f 	cmp	r3, #15
  405758:	d3822001 	orrle	r2, r2, #1
  40575c:	e3520000 	cmp	r2, #0
  405760:	0a00003b 	beq	405854 <_malloc_r+0x364>
  405764:	e59f3530 	ldr	r3, [pc, #1328]	@ 405c9c <_malloc_r+0x7ac>
  405768:	e3a00008 	mov	r0, #8
  40576c:	e5938000 	ldr	r8, [r3]
  405770:	eb00020a 	bl	405fa0 <sysconf>
  405774:	e59f2524 	ldr	r2, [pc, #1316]	@ 405ca0 <_malloc_r+0x7b0>
  405778:	e0843009 	add	r3, r4, r9
  40577c:	e58d3000 	str	r3, [sp]
  405780:	e5923000 	ldr	r3, [r2]
  405784:	e2888010 	add	r8, r8, #16
  405788:	e3730001 	cmn	r3, #1
  40578c:	e0888005 	add	r8, r8, r5
  405790:	12488001 	subne	r8, r8, #1
  405794:	10888000 	addne	r8, r8, r0
  405798:	12603000 	rsbne	r3, r0, #0
  40579c:	10088003 	andne	r8, r8, r3
  4057a0:	e1a0b000 	mov	fp, r0
  4057a4:	e1a01008 	mov	r1, r8
  4057a8:	e1a00007 	mov	r0, r7
  4057ac:	eb0006e0 	bl	407334 <_sbrk_r>
  4057b0:	e3700001 	cmn	r0, #1
  4057b4:	e1a0a000 	mov	sl, r0
  4057b8:	e59f24e0 	ldr	r2, [pc, #1248]	@ 405ca0 <_malloc_r+0x7b0>
  4057bc:	0a000095 	beq	405a18 <_malloc_r+0x528>
  4057c0:	e0843009 	add	r3, r4, r9
  4057c4:	e1530000 	cmp	r3, r0
  4057c8:	8a000090 	bhi	405a10 <_malloc_r+0x520>
  4057cc:	e59f34d0 	ldr	r3, [pc, #1232]	@ 405ca4 <_malloc_r+0x7b4>
  4057d0:	e5931000 	ldr	r1, [r3]
  4057d4:	e0881001 	add	r1, r8, r1
  4057d8:	e1a0c001 	mov	ip, r1
  4057dc:	e5831000 	str	r1, [r3]
  4057e0:	e24b0001 	sub	r0, fp, #1
  4057e4:	1a0000ac 	bne	405a9c <_malloc_r+0x5ac>
  4057e8:	e11a0000 	tst	sl, r0
  4057ec:	1a0000aa 	bne	405a9c <_malloc_r+0x5ac>
  4057f0:	e596a008 	ldr	sl, [r6, #8]
  4057f4:	e0898008 	add	r8, r9, r8
  4057f8:	e3888001 	orr	r8, r8, #1
  4057fc:	e58a8004 	str	r8, [sl, #4]
  405800:	e1a0400a 	mov	r4, sl
  405804:	e59f349c 	ldr	r3, [pc, #1180]	@ 405ca8 <_malloc_r+0x7b8>
  405808:	e5932000 	ldr	r2, [r3]
  40580c:	e1520001 	cmp	r2, r1
  405810:	35831000 	strcc	r1, [r3]
  405814:	e59f3490 	ldr	r3, [pc, #1168]	@ 405cac <_malloc_r+0x7bc>
  405818:	e5932000 	ldr	r2, [r3]
  40581c:	e1520001 	cmp	r2, r1
  405820:	35831000 	strcc	r1, [r3]
  405824:	e3c83003 	bic	r3, r8, #3
  405828:	e1530005 	cmp	r3, r5
  40582c:	23a02000 	movcs	r2, #0
  405830:	33a02001 	movcc	r2, #1
  405834:	e0433005 	sub	r3, r3, r5
  405838:	e353000f 	cmp	r3, #15
  40583c:	d3822001 	orrle	r2, r2, #1
  405840:	e3520000 	cmp	r2, #0
  405844:	0a000002 	beq	405854 <_malloc_r+0x364>
  405848:	e1a00007 	mov	r0, r7
  40584c:	eb0002a6 	bl	4062ec <__malloc_unlock>
  405850:	eaffffb2 	b	405720 <_malloc_r+0x230>
  405854:	e0842005 	add	r2, r4, r5
  405858:	e3833001 	orr	r3, r3, #1
  40585c:	e3855001 	orr	r5, r5, #1
  405860:	e5845004 	str	r5, [r4, #4]
  405864:	e1a00007 	mov	r0, r7
  405868:	e5862008 	str	r2, [r6, #8]
  40586c:	e2844008 	add	r4, r4, #8
  405870:	e5823004 	str	r3, [r2, #4]
  405874:	eb00029c 	bl	4062ec <__malloc_unlock>
  405878:	e1a00004 	mov	r0, r4
  40587c:	e28dd00c 	add	sp, sp, #12
  405880:	e8bd4ff0 	pop	{r4, r5, r6, r7, r8, r9, sl, fp, lr}
  405884:	e12fff1e 	bx	lr
  405888:	e593400c 	ldr	r4, [r3, #12]
  40588c:	e1530004 	cmp	r3, r4
  405890:	02800002 	addeq	r0, r0, #2
  405894:	0affff5c 	beq	40560c <_malloc_r+0x11c>
  405898:	eaffff26 	b	405538 <_malloc_r+0x48>
  40589c:	e3510c0a 	cmp	r1, #2560	@ 0xa00
  4058a0:	e1a034a1 	lsr	r3, r1, #9
  4058a4:	3a000054 	bcc	4059fc <_malloc_r+0x50c>
  4058a8:	e3530014 	cmp	r3, #20
  4058ac:	8a0000be 	bhi	405bac <_malloc_r+0x6bc>
  4058b0:	e283205c 	add	r2, r3, #92	@ 0x5c
  4058b4:	e1a02182 	lsl	r2, r2, #3
  4058b8:	e283305b 	add	r3, r3, #91	@ 0x5b
  4058bc:	e796e002 	ldr	lr, [r6, r2]
  4058c0:	e0862002 	add	r2, r6, r2
  4058c4:	e2422008 	sub	r2, r2, #8
  4058c8:	e152000e 	cmp	r2, lr
  4058cc:	1a000003 	bne	4058e0 <_malloc_r+0x3f0>
  4058d0:	ea0000a4 	b	405b68 <_malloc_r+0x678>
  4058d4:	e59ee008 	ldr	lr, [lr, #8]
  4058d8:	e152000e 	cmp	r2, lr
  4058dc:	0a000003 	beq	4058f0 <_malloc_r+0x400>
  4058e0:	e59e3004 	ldr	r3, [lr, #4]
  4058e4:	e3c33003 	bic	r3, r3, #3
  4058e8:	e1530001 	cmp	r3, r1
  4058ec:	8afffff8 	bhi	4058d4 <_malloc_r+0x3e4>
  4058f0:	e59e200c 	ldr	r2, [lr, #12]
  4058f4:	e584200c 	str	r2, [r4, #12]
  4058f8:	e584e008 	str	lr, [r4, #8]
  4058fc:	e5824008 	str	r4, [r2, #8]
  405900:	e58e400c 	str	r4, [lr, #12]
  405904:	eaffff5e 	b	405684 <_malloc_r+0x194>
  405908:	e3530014 	cmp	r3, #20
  40590c:	9a000044 	bls	405a24 <_malloc_r+0x534>
  405910:	e3530054 	cmp	r3, #84	@ 0x54
  405914:	8a0000ab 	bhi	405bc8 <_malloc_r+0x6d8>
  405918:	e1a03625 	lsr	r3, r5, #12
  40591c:	e283006f 	add	r0, r3, #111	@ 0x6f
  405920:	e283c06e 	add	ip, r3, #110	@ 0x6e
  405924:	e1a01180 	lsl	r1, r0, #3
  405928:	eaffff24 	b	4055c0 <_malloc_r+0xd0>
  40592c:	e594e008 	ldr	lr, [r4, #8]
  405930:	e0841005 	add	r1, r4, r5
  405934:	e3855001 	orr	r5, r5, #1
  405938:	e5845004 	str	r5, [r4, #4]
  40593c:	e58ec00c 	str	ip, [lr, #12]
  405940:	e58ce008 	str	lr, [ip, #8]
  405944:	e382c001 	orr	ip, r2, #1
  405948:	e5861010 	str	r1, [r6, #16]
  40594c:	e5861014 	str	r1, [r6, #20]
  405950:	e1a00007 	mov	r0, r7
  405954:	e581800c 	str	r8, [r1, #12]
  405958:	e5818008 	str	r8, [r1, #8]
  40595c:	e581c004 	str	ip, [r1, #4]
  405960:	e7842003 	str	r2, [r4, r3]
  405964:	eb000260 	bl	4062ec <__malloc_unlock>
  405968:	e2844008 	add	r4, r4, #8
  40596c:	eafffefe 	b	40556c <_malloc_r+0x7c>
  405970:	e0843003 	add	r3, r4, r3
  405974:	e5932004 	ldr	r2, [r3, #4]
  405978:	e3822001 	orr	r2, r2, #1
  40597c:	e5832004 	str	r2, [r3, #4]
  405980:	e5b43008 	ldr	r3, [r4, #8]!
  405984:	e1a00007 	mov	r0, r7
  405988:	e583c00c 	str	ip, [r3, #12]
  40598c:	e58c3008 	str	r3, [ip, #8]
  405990:	eb000255 	bl	4062ec <__malloc_unlock>
  405994:	eafffef4 	b	40556c <_malloc_r+0x7c>
  405998:	e1a001a5 	lsr	r0, r5, #3
  40599c:	e2853008 	add	r3, r5, #8
  4059a0:	eafffede 	b	405520 <_malloc_r+0x30>
  4059a4:	e0841001 	add	r1, r4, r1
  4059a8:	e5913004 	ldr	r3, [r1, #4]
  4059ac:	e3833001 	orr	r3, r3, #1
  4059b0:	e1a00007 	mov	r0, r7
  4059b4:	e5813004 	str	r3, [r1, #4]
  4059b8:	eb00024b 	bl	4062ec <__malloc_unlock>
  4059bc:	e2844008 	add	r4, r4, #8
  4059c0:	eafffee9 	b	40556c <_malloc_r+0x7c>
  4059c4:	e0842005 	add	r2, r4, r5
  4059c8:	e383c001 	orr	ip, r3, #1
  4059cc:	e3855001 	orr	r5, r5, #1
  4059d0:	e5845004 	str	r5, [r4, #4]
  4059d4:	e1a00007 	mov	r0, r7
  4059d8:	e5862010 	str	r2, [r6, #16]
  4059dc:	e5862014 	str	r2, [r6, #20]
  4059e0:	e582800c 	str	r8, [r2, #12]
  4059e4:	e5828008 	str	r8, [r2, #8]
  4059e8:	e582c004 	str	ip, [r2, #4]
  4059ec:	e7843001 	str	r3, [r4, r1]
  4059f0:	eb00023d 	bl	4062ec <__malloc_unlock>
  4059f4:	e2844008 	add	r4, r4, #8
  4059f8:	eafffedb 	b	40556c <_malloc_r+0x7c>
  4059fc:	e1a03321 	lsr	r3, r1, #6
  405a00:	e2832039 	add	r2, r3, #57	@ 0x39
  405a04:	e1a02182 	lsl	r2, r2, #3
  405a08:	e2833038 	add	r3, r3, #56	@ 0x38
  405a0c:	eaffffaa 	b	4058bc <_malloc_r+0x3cc>
  405a10:	e1540006 	cmp	r4, r6
  405a14:	0a00001b 	beq	405a88 <_malloc_r+0x598>
  405a18:	e5964008 	ldr	r4, [r6, #8]
  405a1c:	e5948004 	ldr	r8, [r4, #4]
  405a20:	eaffff7f 	b	405824 <_malloc_r+0x334>
  405a24:	e283005c 	add	r0, r3, #92	@ 0x5c
  405a28:	e283c05b 	add	ip, r3, #91	@ 0x5b
  405a2c:	e1a01180 	lsl	r1, r0, #3
  405a30:	eafffee2 	b	4055c0 <_malloc_r+0xd0>
  405a34:	e41a3008 	ldr	r3, [sl], #-8
  405a38:	e153000a 	cmp	r3, sl
  405a3c:	e2400001 	sub	r0, r0, #1
  405a40:	1a000091 	bne	405c8c <_malloc_r+0x79c>
  405a44:	e3100003 	tst	r0, #3
  405a48:	1afffff9 	bne	405a34 <_malloc_r+0x544>
  405a4c:	e5963004 	ldr	r3, [r6, #4]
  405a50:	e1c33001 	bic	r3, r3, r1
  405a54:	e5863004 	str	r3, [r6, #4]
  405a58:	e1a01081 	lsl	r1, r1, #1
  405a5c:	e2412001 	sub	r2, r1, #1
  405a60:	e1520003 	cmp	r2, r3
  405a64:	2affff33 	bcs	405738 <_malloc_r+0x248>
  405a68:	e1110003 	tst	r1, r3
  405a6c:	1a000003 	bne	405a80 <_malloc_r+0x590>
  405a70:	e1a01081 	lsl	r1, r1, #1
  405a74:	e1110003 	tst	r1, r3
  405a78:	e2899004 	add	r9, r9, #4
  405a7c:	0afffffb 	beq	405a70 <_malloc_r+0x580>
  405a80:	e1a00009 	mov	r0, r9
  405a84:	eaffff0e 	b	4056c4 <_malloc_r+0x1d4>
  405a88:	e59f3214 	ldr	r3, [pc, #532]	@ 405ca4 <_malloc_r+0x7b4>
  405a8c:	e593c000 	ldr	ip, [r3]
  405a90:	e088c00c 	add	ip, r8, ip
  405a94:	e583c000 	str	ip, [r3]
  405a98:	e24b0001 	sub	r0, fp, #1
  405a9c:	e5921000 	ldr	r1, [r2]
  405aa0:	e3710001 	cmn	r1, #1
  405aa4:	10842009 	addne	r2, r4, r9
  405aa8:	104a2002 	subne	r2, sl, r2
  405aac:	1082200c 	addne	r2, r2, ip
  405ab0:	0582a000 	streq	sl, [r2]
  405ab4:	15832000 	strne	r2, [r3]
  405ab8:	e21a2007 	ands	r2, sl, #7
  405abc:	e88d000c 	stm	sp, {r2, r3}
  405ac0:	0a00002d 	beq	405b7c <_malloc_r+0x68c>
  405ac4:	e2622008 	rsb	r2, r2, #8
  405ac8:	e08aa002 	add	sl, sl, r2
  405acc:	e08a8008 	add	r8, sl, r8
  405ad0:	e0081000 	and	r1, r8, r0
  405ad4:	e08b2002 	add	r2, fp, r2
  405ad8:	e0422001 	sub	r2, r2, r1
  405adc:	e002b000 	and	fp, r2, r0
  405ae0:	e1a0100b 	mov	r1, fp
  405ae4:	e1a00007 	mov	r0, r7
  405ae8:	eb000611 	bl	407334 <_sbrk_r>
  405aec:	e3700001 	cmn	r0, #1
  405af0:	e59d3004 	ldr	r3, [sp, #4]
  405af4:	0a000051 	beq	405c40 <_malloc_r+0x750>
  405af8:	e040000a 	sub	r0, r0, sl
  405afc:	e080800b 	add	r8, r0, fp
  405b00:	e5931000 	ldr	r1, [r3]
  405b04:	e3888001 	orr	r8, r8, #1
  405b08:	e08b1001 	add	r1, fp, r1
  405b0c:	e1540006 	cmp	r4, r6
  405b10:	e586a008 	str	sl, [r6, #8]
  405b14:	e5831000 	str	r1, [r3]
  405b18:	e58a8004 	str	r8, [sl, #4]
  405b1c:	0affff37 	beq	405800 <_malloc_r+0x310>
  405b20:	e359000f 	cmp	r9, #15
  405b24:	93a03001 	movls	r3, #1
  405b28:	958a3004 	strls	r3, [sl, #4]
  405b2c:	9affff45 	bls	405848 <_malloc_r+0x358>
  405b30:	e3a0c005 	mov	ip, #5
  405b34:	e5940004 	ldr	r0, [r4, #4]
  405b38:	e249200c 	sub	r2, r9, #12
  405b3c:	e3c22007 	bic	r2, r2, #7
  405b40:	e2000001 	and	r0, r0, #1
  405b44:	e1800002 	orr	r0, r0, r2
  405b48:	e352000f 	cmp	r2, #15
  405b4c:	e0842002 	add	r2, r4, r2
  405b50:	e5840004 	str	r0, [r4, #4]
  405b54:	e582c004 	str	ip, [r2, #4]
  405b58:	e582c008 	str	ip, [r2, #8]
  405b5c:	8a00002f 	bhi	405c20 <_malloc_r+0x730>
  405b60:	e59a8004 	ldr	r8, [sl, #4]
  405b64:	eaffff25 	b	405800 <_malloc_r+0x310>
  405b68:	e3a01001 	mov	r1, #1
  405b6c:	e1a03143 	asr	r3, r3, #2
  405b70:	e18cc311 	orr	ip, ip, r1, lsl r3
  405b74:	e586c004 	str	ip, [r6, #4]
  405b78:	eaffff5d 	b	4058f4 <_malloc_r+0x404>
  405b7c:	e08a2008 	add	r2, sl, r8
  405b80:	e0022000 	and	r2, r2, r0
  405b84:	e04bb002 	sub	fp, fp, r2
  405b88:	e00bb000 	and	fp, fp, r0
  405b8c:	e1a0100b 	mov	r1, fp
  405b90:	e1a00007 	mov	r0, r7
  405b94:	eb0005e6 	bl	407334 <_sbrk_r>
