
../../bin/Demo.elf:     file format elf32-littlearm


Disassembly of section .image:

00400000 <_vector_table>:
  400000:	e59ff018 	ldr	pc, [pc, #24]	@ 400020 <_excep_handlers>
  400004:	e59ff018 	ldr	pc, [pc, #24]	@ 400024 <_excep_handlers+0x4>
  400008:	e59ff018 	ldr	pc, [pc, #24]	@ 400028 <_excep_handlers+0x8>
  40000c:	e59ff018 	ldr	pc, [pc, #24]	@ 40002c <_excep_handlers+0xc>
  400010:	e59ff018 	ldr	pc, [pc, #24]	@ 400030 <_excep_handlers+0x10>
  400014:	e1a00000 	nop			@ (mov r0, r0)
  400018:	e59ff018 	ldr	pc, [pc, #24]	@ 400038 <_excep_handlers+0x18>
  40001c:	e59ff018 	ldr	pc, [pc, #24]	@ 40003c <_excep_handlers+0x1c>

00400020 <_excep_handlers>:
  400020:	00400080 	subeq	r0, r0, r0, lsl #1
  400024:	00400084 	subeq	r0, r0, r4, lsl #1
  400028:	00400088 	subeq	r0, r0, r8, lsl #1
  40002c:	0040008c 	subeq	r0, r0, ip, lsl #1
  400030:	00400090 	umaaleq	r0, r0, r0, r0
  400034:	e1a00000 	nop			@ (mov r0, r0)
  400038:	00400094 	umaaleq	r0, r0, r4, r0
  40003c:	00400098 	umaaleq	r0, r0, r8, r0
  400040:	79706f43 	ldmdbvc	r0!, {r0, r1, r6, r8, r9, sl, fp, sp, lr}^
  400044:	68676972 	stmdavs	r7!, {r1, r4, r5, r6, r8, fp, sp, lr}^
  400048:	43282074 			@ <UNDEFINED> instruction: 0x43282074
  40004c:	6e552029 	cdpvs	0, 5, cr2, cr5, cr9, {1}
  400050:	72657669 	rsbvc	r7, r5, #110100480	@ 0x6900000
  400054:	61646973 	smcvs	18067	@ 0x4693
  400058:	65642064 	strbvs	r2, [r4, #-100]!	@ 0xffffff9c
  40005c:	61724720 	cmnvs	r2, r0, lsr #14
  400060:	6164616e 	cmnvs	r4, lr, ror #2
  400064:	6c41202e 	mcrrvs	0, 2, r2, r1, cr14
  400068:	6952206c 	ldmdbvs	r2, {r2, r3, r5, r6, sp}^
  40006c:	73746867 	cmnvc	r4, #6750208	@ 0x670000
  400070:	73655220 	cmnvc	r5, #32, 4
  400074:	65767265 	ldrbvs	r7, [r6, #-613]!	@ 0xfffffd9b
  400078:	00002e64 	andeq	r2, r0, r4, ror #28
  40007c:	e1a00000 	nop			@ (mov r0, r0)

00400080 <_soft_reset_handler>:
  400080:	ea000006 	b	4000a0 <_start>

00400084 <_undef_handler>:
  400084:	eafffffe 	b	400084 <_undef_handler>

00400088 <_swi_handler>:
  400088:	e59ff060 	ldr	pc, [pc, #96]	@ 4000f0 <_start+0x50>

0040008c <_pabt_handler>:
  40008c:	eafffffe 	b	40008c <_pabt_handler>

00400090 <_dabt_handler>:
  400090:	eafffffe 	b	400090 <_dabt_handler>

00400094 <_irq_handler>:
  400094:	eafffffe 	b	400094 <_irq_handler>

00400098 <_fiq_handler>:
  400098:	eafffffe 	b	400098 <_fiq_handler>
  40009c:	e1a00000 	nop			@ (mov r0, r0)

004000a0 <_start>:
  4000a0:	e321f0db 	msr	CPSR_c, #219	@ 0xdb
  4000a4:	e59fd048 	ldr	sp, [pc, #72]	@ 4000f4 <_start+0x54>
  4000a8:	e321f0d7 	msr	CPSR_c, #215	@ 0xd7
  4000ac:	e59fd044 	ldr	sp, [pc, #68]	@ 4000f8 <_start+0x58>
  4000b0:	e321f0df 	msr	CPSR_c, #223	@ 0xdf
  4000b4:	e59fd040 	ldr	sp, [pc, #64]	@ 4000fc <_start+0x5c>
  4000b8:	e321f0d1 	msr	CPSR_c, #209	@ 0xd1
  4000bc:	e59fd03c 	ldr	sp, [pc, #60]	@ 400100 <_start+0x60>
  4000c0:	e321f0d2 	msr	CPSR_c, #210	@ 0xd2
  4000c4:	e59fd038 	ldr	sp, [pc, #56]	@ 400104 <_start+0x64>
  4000c8:	e321f0d3 	msr	CPSR_c, #211	@ 0xd3
  4000cc:	e59fd034 	ldr	sp, [pc, #52]	@ 400108 <_start+0x68>
  4000d0:	e59fc034 	ldr	ip, [pc, #52]	@ 40010c <_start+0x6c>
  4000d4:	e1a0e00f 	mov	lr, pc
  4000d8:	e12fff1c 	bx	ip
  4000dc:	e321f013 	msr	CPSR_c, #19
  4000e0:	e59fc028 	ldr	ip, [pc, #40]	@ 400110 <_start+0x70>
  4000e4:	e1a0e00f 	mov	lr, pc
  4000e8:	e12fff1c 	bx	ip
  4000ec:	eafffffe 	b	4000ec <_start+0x4c>
  4000f0:	004023c4 	subeq	r2, r0, r4, asr #7
  4000f4:	00416f04 	subeq	r6, r1, r4, lsl #30
  4000f8:	00416ee4 	subeq	r6, r1, r4, ror #29
  4000fc:	00415ec8 	subeq	r5, r1, r8, asr #29
  400100:	00418000 	subeq	r8, r1, r0
  400104:	00417f00 	subeq	r7, r1, r0, lsl #30
  400108:	00416ec4 	subeq	r6, r1, r4, asr #29
  40010c:	00403248 	subeq	r3, r0, r8, asr #4
  400110:	00400274 	subeq	r0, r0, r4, ror r2

00400114 <toggle_led>:
  400114:	e92d4800 	push	{fp, lr}
  400118:	e28db004 	add	fp, sp, #4
  40011c:	e24dd010 	sub	sp, sp, #16
  400120:	e1a03000 	mov	r3, r0
  400124:	e54b300d 	strb	r3, [fp, #-13]
  400128:	e55b300d 	ldrb	r3, [fp, #-13]
  40012c:	e353002c 	cmp	r3, #44	@ 0x2c
  400130:	1a000001 	bne	40013c <toggle_led+0x28>
  400134:	e59f305c 	ldr	r3, [pc, #92]	@ 400198 <toggle_led+0x84>
  400138:	ea000000 	b	400140 <toggle_led+0x2c>
  40013c:	e59f3058 	ldr	r3, [pc, #88]	@ 40019c <toggle_led+0x88>
  400140:	e50b3008 	str	r3, [fp, #-8]
  400144:	e51b3008 	ldr	r3, [fp, #-8]
  400148:	e5d33000 	ldrb	r3, [r3]
  40014c:	e3530000 	cmp	r3, #0
  400150:	0a000003 	beq	400164 <toggle_led+0x50>
  400154:	e55b300d 	ldrb	r3, [fp, #-13]
  400158:	e1a00003 	mov	r0, r3
  40015c:	eb000986 	bl	40277c <gpio_clear_pin>
  400160:	ea000002 	b	400170 <toggle_led+0x5c>
  400164:	e55b300d 	ldrb	r3, [fp, #-13]
  400168:	e1a00003 	mov	r0, r3
  40016c:	eb000976 	bl	40274c <gpio_set_pin>
  400170:	e51b3008 	ldr	r3, [fp, #-8]
  400174:	e5d33000 	ldrb	r3, [r3]
  400178:	e1e03003 	mvn	r3, r3
  40017c:	e20320ff 	and	r2, r3, #255	@ 0xff
  400180:	e51b3008 	ldr	r3, [fp, #-8]
  400184:	e5c32000 	strb	r2, [r3]
  400188:	e1a00000 	nop			@ (mov r0, r0)
  40018c:	e24bd004 	sub	sp, fp, #4
  400190:	e8bd4800 	pop	{fp, lr}
  400194:	e12fff1e 	bx	lr
  400198:	00405cd0 	ldrdeq	r5, [r0], #-192	@ 0xffffff40
  40019c:	00405cd1 	ldrdeq	r5, [r0], #-193	@ 0xffffff3f

004001a0 <print_str>:
  4001a0:	e92d4800 	push	{fp, lr}
  4001a4:	e28db004 	add	fp, sp, #4
  4001a8:	e24dd008 	sub	sp, sp, #8
  4001ac:	e50b0008 	str	r0, [fp, #-8]
  4001b0:	e51b0008 	ldr	r0, [fp, #-8]
  4001b4:	eb001015 	bl	404210 <strlen>
  4001b8:	e1a03000 	mov	r3, r0
  4001bc:	e1a02003 	mov	r2, r3
  4001c0:	e51b1008 	ldr	r1, [fp, #-8]
  4001c4:	e3a00000 	mov	r0, #0
  4001c8:	eb000a13 	bl	402a1c <uart_send>
  4001cc:	e1a00000 	nop			@ (mov r0, r0)
  4001d0:	e24bd004 	sub	sp, fp, #4
  4001d4:	e8bd4800 	pop	{fp, lr}
  4001d8:	e12fff1e 	bx	lr

004001dc <vBlinkRed>:
  4001dc:	e92d4800 	push	{fp, lr}
  4001e0:	e28db004 	add	fp, sp, #4
  4001e4:	e24dd008 	sub	sp, sp, #8
  4001e8:	e50b0008 	str	r0, [fp, #-8]
  4001ec:	eb0008ca 	bl	40251c <vPortEnterCritical>
  4001f0:	eb0008c9 	bl	40251c <vPortEnterCritical>
  4001f4:	e3a0002c 	mov	r0, #44	@ 0x2c
  4001f8:	ebffffc5 	bl	400114 <toggle_led>
  4001fc:	e59f0010 	ldr	r0, [pc, #16]	@ 400214 <vBlinkRed+0x38>
  400200:	ebffffe6 	bl	4001a0 <print_str>
  400204:	e3a00000 	mov	r0, #0
  400208:	eb0004c6 	bl	401528 <vTaskDelay>
  40020c:	eb0008cd 	bl	402548 <vPortExitCritical>
  400210:	eafffff6 	b	4001f0 <vBlinkRed+0x14>
  400214:	00403898 	umaaleq	r3, r0, r8, r8

00400218 <vBlinkGreen>:
  400218:	e92d4800 	push	{fp, lr}
  40021c:	e28db004 	add	fp, sp, #4
  400220:	e24dd008 	sub	sp, sp, #8
  400224:	e50b0008 	str	r0, [fp, #-8]
  400228:	eb0008bb 	bl	40251c <vPortEnterCritical>
  40022c:	eb0008ba 	bl	40251c <vPortEnterCritical>
  400230:	e3a0002d 	mov	r0, #45	@ 0x2d
  400234:	ebffffb6 	bl	400114 <toggle_led>
  400238:	e59f0010 	ldr	r0, [pc, #16]	@ 400250 <vBlinkGreen+0x38>
  40023c:	ebffffd7 	bl	4001a0 <print_str>
  400240:	e3a00000 	mov	r0, #0
  400244:	eb0004b7 	bl	401528 <vTaskDelay>
  400248:	eb0008be 	bl	402548 <vPortExitCritical>
  40024c:	eafffff6 	b	40022c <vBlinkGreen+0x14>
  400250:	004038a0 	subeq	r3, r0, r0, lsr #17

00400254 <launchTasks>:
  400254:	e92d4800 	push	{fp, lr}
  400258:	e28db004 	add	fp, sp, #4
  40025c:	e3a00005 	mov	r0, #5
  400260:	eb000127 	bl	400704 <vStartLEDFlashTasks>
  400264:	e1a00000 	nop			@ (mov r0, r0)
  400268:	e24bd004 	sub	sp, fp, #4
  40026c:	e8bd4800 	pop	{fp, lr}
  400270:	e12fff1e 	bx	lr

00400274 <main>:
  400274:	e92d4800 	push	{fp, lr}
  400278:	e28db004 	add	fp, sp, #4
  40027c:	e59f0024 	ldr	r0, [pc, #36]	@ 4002a8 <main+0x34>
  400280:	ebffffc6 	bl	4001a0 <print_str>
  400284:	eb000017 	bl	4002e8 <vParTestInitialise>
  400288:	e3a01000 	mov	r1, #0
  40028c:	e3a0002d 	mov	r0, #45	@ 0x2d
  400290:	eb000025 	bl	40032c <vParTestSetLED>
  400294:	ebffffee 	bl	400254 <launchTasks>
  400298:	eb000363 	bl	40102c <vTaskStartScheduler>
  40029c:	e3a0002d 	mov	r0, #45	@ 0x2d
  4002a0:	eb000935 	bl	40277c <gpio_clear_pin>
  4002a4:	eafffffe 	b	4002a4 <main+0x30>
  4002a8:	004038a8 	subeq	r3, r0, r8, lsr #17

004002ac <print_str>:
  4002ac:	e92d4800 	push	{fp, lr}
  4002b0:	e28db004 	add	fp, sp, #4
  4002b4:	e24dd008 	sub	sp, sp, #8
  4002b8:	e50b0008 	str	r0, [fp, #-8]
  4002bc:	e51b0008 	ldr	r0, [fp, #-8]
  4002c0:	eb000fd2 	bl	404210 <strlen>
  4002c4:	e1a03000 	mov	r3, r0
  4002c8:	e1a02003 	mov	r2, r3
  4002cc:	e51b1008 	ldr	r1, [fp, #-8]
  4002d0:	e3a00000 	mov	r0, #0
  4002d4:	eb0009d0 	bl	402a1c <uart_send>
  4002d8:	e1a00000 	nop			@ (mov r0, r0)
  4002dc:	e24bd004 	sub	sp, fp, #4
  4002e0:	e8bd4800 	pop	{fp, lr}
  4002e4:	e12fff1e 	bx	lr

004002e8 <vParTestInitialise>:
  4002e8:	e92d4800 	push	{fp, lr}
  4002ec:	e28db004 	add	fp, sp, #4
  4002f0:	e59f0030 	ldr	r0, [pc, #48]	@ 400328 <vParTestInitialise+0x40>
  4002f4:	ebffffec 	bl	4002ac <print_str>
  4002f8:	e3a0002c 	mov	r0, #44	@ 0x2c
  4002fc:	eb0008f8 	bl	4026e4 <gpio_set_pin_dir_output>
  400300:	e3a0002c 	mov	r0, #44	@ 0x2c
  400304:	eb00091c 	bl	40277c <gpio_clear_pin>
  400308:	e3a0002d 	mov	r0, #45	@ 0x2d
  40030c:	eb0008f4 	bl	4026e4 <gpio_set_pin_dir_output>
  400310:	e3a0002d 	mov	r0, #45	@ 0x2d
  400314:	eb000918 	bl	40277c <gpio_clear_pin>
  400318:	e1a00000 	nop			@ (mov r0, r0)
  40031c:	e24bd004 	sub	sp, fp, #4
  400320:	e8bd4800 	pop	{fp, lr}
  400324:	e12fff1e 	bx	lr
  400328:	004038c8 	subeq	r3, r0, r8, asr #17

0040032c <vParTestSetLED>:
  40032c:	e92d4800 	push	{fp, lr}
  400330:	e28db004 	add	fp, sp, #4
  400334:	e24dd008 	sub	sp, sp, #8
  400338:	e50b0008 	str	r0, [fp, #-8]
  40033c:	e50b100c 	str	r1, [fp, #-12]
  400340:	e59f0058 	ldr	r0, [pc, #88]	@ 4003a0 <vParTestSetLED+0x74>
  400344:	ebffffd8 	bl	4002ac <print_str>
  400348:	e51b3008 	ldr	r3, [fp, #-8]
  40034c:	e353002d 	cmp	r3, #45	@ 0x2d
  400350:	8a00000c 	bhi	400388 <vParTestSetLED+0x5c>
  400354:	e51b300c 	ldr	r3, [fp, #-12]
  400358:	e3530000 	cmp	r3, #0
  40035c:	0a000004 	beq	400374 <vParTestSetLED+0x48>
  400360:	e51b3008 	ldr	r3, [fp, #-8]
  400364:	e20330ff 	and	r3, r3, #255	@ 0xff
  400368:	e1a00003 	mov	r0, r3
  40036c:	eb000902 	bl	40277c <gpio_clear_pin>
  400370:	ea000006 	b	400390 <vParTestSetLED+0x64>
  400374:	e51b3008 	ldr	r3, [fp, #-8]
  400378:	e20330ff 	and	r3, r3, #255	@ 0xff
  40037c:	e1a00003 	mov	r0, r3
  400380:	eb0008f1 	bl	40274c <gpio_set_pin>
  400384:	ea000001 	b	400390 <vParTestSetLED+0x64>
  400388:	e59f0014 	ldr	r0, [pc, #20]	@ 4003a4 <vParTestSetLED+0x78>
  40038c:	ebffffc6 	bl	4002ac <print_str>
  400390:	e1a00000 	nop			@ (mov r0, r0)
  400394:	e24bd004 	sub	sp, fp, #4
  400398:	e8bd4800 	pop	{fp, lr}
  40039c:	e12fff1e 	bx	lr
  4003a0:	004038e0 	subeq	r3, r0, r0, ror #17
  4003a4:	004038f4 	strdeq	r3, [r0], #-132	@ 0xffffff7c

004003a8 <vParTestToggleLED>:
  4003a8:	e92d4800 	push	{fp, lr}
  4003ac:	e28db004 	add	fp, sp, #4
  4003b0:	e24dd010 	sub	sp, sp, #16
  4003b4:	e50b0010 	str	r0, [fp, #-16]
  4003b8:	e51b3010 	ldr	r3, [fp, #-16]
  4003bc:	e353002c 	cmp	r3, #44	@ 0x2c
  4003c0:	0a000003 	beq	4003d4 <vParTestToggleLED+0x2c>
  4003c4:	e51b3010 	ldr	r3, [fp, #-16]
  4003c8:	e353002d 	cmp	r3, #45	@ 0x2d
  4003cc:	0a000003 	beq	4003e0 <vParTestToggleLED+0x38>
  4003d0:	ea000005 	b	4003ec <vParTestToggleLED+0x44>
  4003d4:	e59f009c 	ldr	r0, [pc, #156]	@ 400478 <vParTestToggleLED+0xd0>
  4003d8:	ebffffb3 	bl	4002ac <print_str>
  4003dc:	ea000004 	b	4003f4 <vParTestToggleLED+0x4c>
  4003e0:	e59f0094 	ldr	r0, [pc, #148]	@ 40047c <vParTestToggleLED+0xd4>
  4003e4:	ebffffb0 	bl	4002ac <print_str>
  4003e8:	ea000001 	b	4003f4 <vParTestToggleLED+0x4c>
  4003ec:	e59f008c 	ldr	r0, [pc, #140]	@ 400480 <vParTestToggleLED+0xd8>
  4003f0:	ebffffad 	bl	4002ac <print_str>
  4003f4:	e51b3010 	ldr	r3, [fp, #-16]
  4003f8:	e353002c 	cmp	r3, #44	@ 0x2c
  4003fc:	1a000001 	bne	400408 <vParTestToggleLED+0x60>
  400400:	e59f307c 	ldr	r3, [pc, #124]	@ 400484 <vParTestToggleLED+0xdc>
  400404:	ea000000 	b	40040c <vParTestToggleLED+0x64>
  400408:	e59f3078 	ldr	r3, [pc, #120]	@ 400488 <vParTestToggleLED+0xe0>
  40040c:	e50b3008 	str	r3, [fp, #-8]
  400410:	e51b3008 	ldr	r3, [fp, #-8]
  400414:	e5933000 	ldr	r3, [r3]
  400418:	e3530000 	cmp	r3, #0
  40041c:	0a000004 	beq	400434 <vParTestToggleLED+0x8c>
  400420:	e51b3010 	ldr	r3, [fp, #-16]
  400424:	e20330ff 	and	r3, r3, #255	@ 0xff
  400428:	e1a00003 	mov	r0, r3
  40042c:	eb0008d2 	bl	40277c <gpio_clear_pin>
  400430:	ea000003 	b	400444 <vParTestToggleLED+0x9c>
  400434:	e51b3010 	ldr	r3, [fp, #-16]
  400438:	e20330ff 	and	r3, r3, #255	@ 0xff
  40043c:	e1a00003 	mov	r0, r3
  400440:	eb0008c1 	bl	40274c <gpio_set_pin>
  400444:	e51b3008 	ldr	r3, [fp, #-8]
  400448:	e5933000 	ldr	r3, [r3]
  40044c:	e3530000 	cmp	r3, #0
  400450:	03a03001 	moveq	r3, #1
  400454:	13a03000 	movne	r3, #0
  400458:	e20330ff 	and	r3, r3, #255	@ 0xff
  40045c:	e1a02003 	mov	r2, r3
  400460:	e51b3008 	ldr	r3, [fp, #-8]
  400464:	e5832000 	str	r2, [r3]
  400468:	e1a00000 	nop			@ (mov r0, r0)
  40046c:	e24bd004 	sub	sp, fp, #4
  400470:	e8bd4800 	pop	{fp, lr}
  400474:	e12fff1e 	bx	lr
  400478:	00403918 	subeq	r3, r0, r8, lsl r9
  40047c:	00403934 	subeq	r3, r0, r4, lsr r9
  400480:	00403950 	subeq	r3, r0, r0, asr r9
  400484:	00405cd4 	ldrdeq	r5, [r0], #-196	@ 0xffffff3c
  400488:	00405cd8 	ldrdeq	r5, [r0], #-200	@ 0xffffff38

0040048c <print_str>:
  40048c:	e92d4800 	push	{fp, lr}
  400490:	e28db004 	add	fp, sp, #4
  400494:	e24dd008 	sub	sp, sp, #8
  400498:	e50b0008 	str	r0, [fp, #-8]
  40049c:	e51b0008 	ldr	r0, [fp, #-8]
  4004a0:	eb000f5a 	bl	404210 <strlen>
  4004a4:	e1a03000 	mov	r3, r0
  4004a8:	e1a02003 	mov	r2, r3
  4004ac:	e51b1008 	ldr	r1, [fp, #-8]
  4004b0:	e3a00000 	mov	r0, #0
  4004b4:	eb000958 	bl	402a1c <uart_send>
  4004b8:	e1a00000 	nop			@ (mov r0, r0)
  4004bc:	e24bd004 	sub	sp, fp, #4
  4004c0:	e8bd4800 	pop	{fp, lr}
  4004c4:	e12fff1e 	bx	lr

004004c8 <vStartIntegerMathTasks>:
  4004c8:	e92d4800 	push	{fp, lr}
  4004cc:	e28db004 	add	fp, sp, #4
  4004d0:	e24dd018 	sub	sp, sp, #24
  4004d4:	e50b0010 	str	r0, [fp, #-16]
  4004d8:	e3a03000 	mov	r3, #0
  4004dc:	e14b30b6 	strh	r3, [fp, #-6]
  4004e0:	ea000015 	b	40053c <vStartIntegerMathTasks+0x74>
  4004e4:	e15b30f6 	ldrsh	r3, [fp, #-6]
  4004e8:	e1a03103 	lsl	r3, r3, #2
  4004ec:	e59f2068 	ldr	r2, [pc, #104]	@ 40055c <vStartIntegerMathTasks+0x94>
  4004f0:	e0832002 	add	r2, r3, r2
  4004f4:	e3a03000 	mov	r3, #0
  4004f8:	e58d3004 	str	r3, [sp, #4]
  4004fc:	e51b3010 	ldr	r3, [fp, #-16]
  400500:	e58d3000 	str	r3, [sp]
  400504:	e1a03002 	mov	r3, r2
  400508:	e3a02c02 	mov	r2, #512	@ 0x200
  40050c:	e59f104c 	ldr	r1, [pc, #76]	@ 400560 <vStartIntegerMathTasks+0x98>
  400510:	e59f004c 	ldr	r0, [pc, #76]	@ 400564 <vStartIntegerMathTasks+0x9c>
  400514:	eb000152 	bl	400a64 <xTaskCreate>
  400518:	e59f0048 	ldr	r0, [pc, #72]	@ 400568 <vStartIntegerMathTasks+0xa0>
  40051c:	ebffffda 	bl	40048c <print_str>
  400520:	e15b30f6 	ldrsh	r3, [fp, #-6]
  400524:	e1a03803 	lsl	r3, r3, #16
  400528:	e1a03823 	lsr	r3, r3, #16
  40052c:	e2833001 	add	r3, r3, #1
  400530:	e1a03803 	lsl	r3, r3, #16
  400534:	e1a03823 	lsr	r3, r3, #16
  400538:	e14b30b6 	strh	r3, [fp, #-6]
  40053c:	e15b30f6 	ldrsh	r3, [fp, #-6]
  400540:	e3530000 	cmp	r3, #0
  400544:	daffffe6 	ble	4004e4 <vStartIntegerMathTasks+0x1c>
  400548:	e1a00000 	nop			@ (mov r0, r0)
  40054c:	e1a00000 	nop			@ (mov r0, r0)
  400550:	e24bd004 	sub	sp, fp, #4
  400554:	e8bd4800 	pop	{fp, lr}
  400558:	e12fff1e 	bx	lr
  40055c:	00405cdc 	ldrdeq	r5, [r0], #-204	@ 0xffffff34
  400560:	0040396c 	subeq	r3, r0, ip, ror #18
  400564:	0040056c 	subeq	r0, r0, ip, ror #10
  400568:	00403974 	subeq	r3, r0, r4, ror r9

0040056c <vCompeteingIntMathTask>:
  40056c:	e92d4800 	push	{fp, lr}
  400570:	e28db004 	add	fp, sp, #4
  400574:	e24dd018 	sub	sp, sp, #24
  400578:	e50b0018 	str	r0, [fp, #-24]	@ 0xffffffe8
  40057c:	e3a03000 	mov	r3, #0
  400580:	e14b30b6 	strh	r3, [fp, #-6]
  400584:	e51b3018 	ldr	r3, [fp, #-24]	@ 0xffffffe8
  400588:	e50b300c 	str	r3, [fp, #-12]
  40058c:	eb0007e2 	bl	40251c <vPortEnterCritical>
  400590:	e3a0307b 	mov	r3, #123	@ 0x7b
  400594:	e50b3010 	str	r3, [fp, #-16]
  400598:	e51b3010 	ldr	r3, [fp, #-16]
  40059c:	e2833be5 	add	r3, r3, #234496	@ 0x39400
  4005a0:	e2833047 	add	r3, r3, #71	@ 0x47
  4005a4:	e50b3010 	str	r3, [fp, #-16]
  4005a8:	e51b3010 	ldr	r3, [fp, #-16]
  4005ac:	e1a02003 	mov	r2, r3
  4005b0:	e1a03103 	lsl	r3, r3, #2
  4005b4:	e0423003 	sub	r3, r2, r3
  4005b8:	e50b3010 	str	r3, [fp, #-16]
  4005bc:	e51b3010 	ldr	r3, [fp, #-16]
  4005c0:	e59f2064 	ldr	r2, [pc, #100]	@ 40062c <vCompeteingIntMathTask+0xc0>
  4005c4:	e0c21293 	smull	r1, r2, r3, r2
  4005c8:	e0822003 	add	r2, r2, r3
  4005cc:	e1a02142 	asr	r2, r2, #2
  4005d0:	e1a03fc3 	asr	r3, r3, #31
  4005d4:	e0423003 	sub	r3, r2, r3
  4005d8:	e50b3010 	str	r3, [fp, #-16]
  4005dc:	e51b3010 	ldr	r3, [fp, #-16]
  4005e0:	e59f2048 	ldr	r2, [pc, #72]	@ 400630 <vCompeteingIntMathTask+0xc4>
  4005e4:	e1530002 	cmp	r3, r2
  4005e8:	0a000004 	beq	400600 <vCompeteingIntMathTask+0x94>
  4005ec:	e3a03001 	mov	r3, #1
  4005f0:	e14b30b6 	strh	r3, [fp, #-6]
  4005f4:	e59f0038 	ldr	r0, [pc, #56]	@ 400634 <vCompeteingIntMathTask+0xc8>
  4005f8:	ebffffa3 	bl	40048c <print_str>
  4005fc:	ea000001 	b	400608 <vCompeteingIntMathTask+0x9c>
  400600:	e59f0030 	ldr	r0, [pc, #48]	@ 400638 <vCompeteingIntMathTask+0xcc>
  400604:	ebffffa0 	bl	40048c <print_str>
  400608:	e15b30f6 	ldrsh	r3, [fp, #-6]
  40060c:	e3530000 	cmp	r3, #0
  400610:	1affffde 	bne	400590 <vCompeteingIntMathTask+0x24>
  400614:	eb0007c0 	bl	40251c <vPortEnterCritical>
  400618:	e51b300c 	ldr	r3, [fp, #-12]
  40061c:	e3a02001 	mov	r2, #1
  400620:	e5832000 	str	r2, [r3]
  400624:	eb0007c7 	bl	402548 <vPortExitCritical>
  400628:	eaffffd8 	b	400590 <vCompeteingIntMathTask+0x24>
  40062c:	92492493 	subls	r2, r9, #-1828716544	@ 0x93000000
  400630:	fffe771b 			@ <UNDEFINED> instruction: 0xfffe771b
  400634:	00403988 	subeq	r3, r0, r8, lsl #19
  400638:	004039a8 	subeq	r3, r0, r8, lsr #19

0040063c <xAreIntegerMathsTaskStillRunning>:
  40063c:	e52db004 	push	{fp}		@ (str fp, [sp, #-4]!)
  400640:	e28db000 	add	fp, sp, #0
  400644:	e24dd00c 	sub	sp, sp, #12
  400648:	e3a03001 	mov	r3, #1
  40064c:	e50b3008 	str	r3, [fp, #-8]
  400650:	e3a03000 	mov	r3, #0
  400654:	e14b30ba 	strh	r3, [fp, #-10]
  400658:	ea000011 	b	4006a4 <xAreIntegerMathsTaskStillRunning+0x68>
  40065c:	e15b30fa 	ldrsh	r3, [fp, #-10]
  400660:	e59f205c 	ldr	r2, [pc, #92]	@ 4006c4 <xAreIntegerMathsTaskStillRunning+0x88>
  400664:	e7923103 	ldr	r3, [r2, r3, lsl #2]
  400668:	e3530000 	cmp	r3, #0
  40066c:	1a000001 	bne	400678 <xAreIntegerMathsTaskStillRunning+0x3c>
  400670:	e3a03000 	mov	r3, #0
  400674:	e50b3008 	str	r3, [fp, #-8]
  400678:	e15b30fa 	ldrsh	r3, [fp, #-10]
  40067c:	e59f2040 	ldr	r2, [pc, #64]	@ 4006c4 <xAreIntegerMathsTaskStillRunning+0x88>
  400680:	e3a01000 	mov	r1, #0
  400684:	e7821103 	str	r1, [r2, r3, lsl #2]
  400688:	e15b30fa 	ldrsh	r3, [fp, #-10]
  40068c:	e1a03803 	lsl	r3, r3, #16
  400690:	e1a03823 	lsr	r3, r3, #16
  400694:	e2833001 	add	r3, r3, #1
  400698:	e1a03803 	lsl	r3, r3, #16
  40069c:	e1a03823 	lsr	r3, r3, #16
  4006a0:	e14b30ba 	strh	r3, [fp, #-10]
  4006a4:	e15b30fa 	ldrsh	r3, [fp, #-10]
  4006a8:	e3530000 	cmp	r3, #0
  4006ac:	daffffea 	ble	40065c <xAreIntegerMathsTaskStillRunning+0x20>
  4006b0:	e51b3008 	ldr	r3, [fp, #-8]
  4006b4:	e1a00003 	mov	r0, r3
  4006b8:	e28bd000 	add	sp, fp, #0
  4006bc:	e49db004 	pop	{fp}		@ (ldr fp, [sp], #4)
  4006c0:	e12fff1e 	bx	lr
  4006c4:	00405cdc 	ldrdeq	r5, [r0], #-204	@ 0xffffff34

004006c8 <print_str>:
  4006c8:	e92d4800 	push	{fp, lr}
  4006cc:	e28db004 	add	fp, sp, #4
  4006d0:	e24dd008 	sub	sp, sp, #8
  4006d4:	e50b0008 	str	r0, [fp, #-8]
  4006d8:	e51b0008 	ldr	r0, [fp, #-8]
  4006dc:	eb000ecb 	bl	404210 <strlen>
  4006e0:	e1a03000 	mov	r3, r0
  4006e4:	e1a02003 	mov	r2, r3
  4006e8:	e51b1008 	ldr	r1, [fp, #-8]
  4006ec:	e3a00000 	mov	r0, #0
  4006f0:	eb0008c9 	bl	402a1c <uart_send>
  4006f4:	e1a00000 	nop			@ (mov r0, r0)
  4006f8:	e24bd004 	sub	sp, fp, #4
  4006fc:	e8bd4800 	pop	{fp, lr}
  400700:	e12fff1e 	bx	lr

00400704 <vStartLEDFlashTasks>:
  400704:	e92d4800 	push	{fp, lr}
  400708:	e28db004 	add	fp, sp, #4
  40070c:	e24dd018 	sub	sp, sp, #24
  400710:	e50b0010 	str	r0, [fp, #-16]
  400714:	e3a03000 	mov	r3, #0
  400718:	e50b3008 	str	r3, [fp, #-8]
  40071c:	ea00000e 	b	40075c <vStartLEDFlashTasks+0x58>
  400720:	e3a03000 	mov	r3, #0
  400724:	e58d3004 	str	r3, [sp, #4]
  400728:	e51b3010 	ldr	r3, [fp, #-16]
  40072c:	e58d3000 	str	r3, [sp]
  400730:	e3a03000 	mov	r3, #0
  400734:	e3a02080 	mov	r2, #128	@ 0x80
  400738:	e59f103c 	ldr	r1, [pc, #60]	@ 40077c <vStartLEDFlashTasks+0x78>
  40073c:	e59f003c 	ldr	r0, [pc, #60]	@ 400780 <vStartLEDFlashTasks+0x7c>
  400740:	eb0000c7 	bl	400a64 <xTaskCreate>
  400744:	e50b000c 	str	r0, [fp, #-12]
  400748:	e59f0034 	ldr	r0, [pc, #52]	@ 400784 <vStartLEDFlashTasks+0x80>
  40074c:	ebffffdd 	bl	4006c8 <print_str>
  400750:	e51b3008 	ldr	r3, [fp, #-8]
  400754:	e2833001 	add	r3, r3, #1
  400758:	e50b3008 	str	r3, [fp, #-8]
  40075c:	e51b3008 	ldr	r3, [fp, #-8]
  400760:	e3530001 	cmp	r3, #1
  400764:	daffffed 	ble	400720 <vStartLEDFlashTasks+0x1c>
  400768:	e1a00000 	nop			@ (mov r0, r0)
  40076c:	e1a00000 	nop			@ (mov r0, r0)
  400770:	e24bd004 	sub	sp, fp, #4
  400774:	e8bd4800 	pop	{fp, lr}
  400778:	e12fff1e 	bx	lr
  40077c:	004039cc 	subeq	r3, r0, ip, asr #19
  400780:	00400788 	subeq	r0, r0, r8, lsl #15
  400784:	004039d4 	ldrdeq	r3, [r0], #-148	@ 0xffffff6c

00400788 <vLEDFlashTask>:
  400788:	e92d4800 	push	{fp, lr}
  40078c:	e28db004 	add	fp, sp, #4
  400790:	e24dd018 	sub	sp, sp, #24
  400794:	e50b0018 	str	r0, [fp, #-24]	@ 0xffffffe8
  400798:	eb00075f 	bl	40251c <vPortEnterCritical>
  40079c:	eb00075e 	bl	40251c <vPortEnterCritical>
  4007a0:	e59f30d8 	ldr	r3, [pc, #216]	@ 400880 <vLEDFlashTask+0xf8>
  4007a4:	e5933000 	ldr	r3, [r3]
  4007a8:	e50b3008 	str	r3, [fp, #-8]
  4007ac:	e59f30cc 	ldr	r3, [pc, #204]	@ 400880 <vLEDFlashTask+0xf8>
  4007b0:	e5933000 	ldr	r3, [r3]
  4007b4:	e2833001 	add	r3, r3, #1
  4007b8:	e59f20c0 	ldr	r2, [pc, #192]	@ 400880 <vLEDFlashTask+0xf8>
  4007bc:	e5823000 	str	r3, [r2]
  4007c0:	eb000760 	bl	402548 <vPortExitCritical>
  4007c4:	e51b3008 	ldr	r3, [fp, #-8]
  4007c8:	e2832001 	add	r2, r3, #1
  4007cc:	e1a03002 	mov	r3, r2
  4007d0:	e1a03103 	lsl	r3, r3, #2
  4007d4:	e0833002 	add	r3, r3, r2
  4007d8:	e1a03083 	lsl	r3, r3, #1
  4007dc:	e50b300c 	str	r3, [fp, #-12]
  4007e0:	e51b300c 	ldr	r3, [fp, #-12]
  4007e4:	e59f2098 	ldr	r2, [pc, #152]	@ 400884 <vLEDFlashTask+0xfc>
  4007e8:	e0831392 	umull	r1, r3, r2, r3
  4007ec:	e1a03323 	lsr	r3, r3, #6
  4007f0:	e50b300c 	str	r3, [fp, #-12]
  4007f4:	e51b300c 	ldr	r3, [fp, #-12]
  4007f8:	e1a030a3 	lsr	r3, r3, #1
  4007fc:	e50b300c 	str	r3, [fp, #-12]
  400800:	eb000247 	bl	401124 <xTaskGetTickCount>
  400804:	e1a03000 	mov	r3, r0
  400808:	e50b3010 	str	r3, [fp, #-16]
  40080c:	e51b3008 	ldr	r3, [fp, #-8]
  400810:	e353002c 	cmp	r3, #44	@ 0x2c
  400814:	0a000003 	beq	400828 <vLEDFlashTask+0xa0>
  400818:	e51b3008 	ldr	r3, [fp, #-8]
  40081c:	e353002d 	cmp	r3, #45	@ 0x2d
  400820:	0a000003 	beq	400834 <vLEDFlashTask+0xac>
  400824:	ea000005 	b	400840 <vLEDFlashTask+0xb8>
  400828:	e59f0058 	ldr	r0, [pc, #88]	@ 400888 <vLEDFlashTask+0x100>
  40082c:	ebffffa5 	bl	4006c8 <print_str>
  400830:	ea000004 	b	400848 <vLEDFlashTask+0xc0>
  400834:	e59f0050 	ldr	r0, [pc, #80]	@ 40088c <vLEDFlashTask+0x104>
  400838:	ebffffa2 	bl	4006c8 <print_str>
  40083c:	ea000001 	b	400848 <vLEDFlashTask+0xc0>
  400840:	e59f0048 	ldr	r0, [pc, #72]	@ 400890 <vLEDFlashTask+0x108>
  400844:	ebffff9f 	bl	4006c8 <print_str>
  400848:	eb000733 	bl	40251c <vPortEnterCritical>
  40084c:	e24b3010 	sub	r3, fp, #16
  400850:	e51b100c 	ldr	r1, [fp, #-12]
  400854:	e1a00003 	mov	r0, r3
  400858:	eb000310 	bl	4014a0 <xTaskDelayUntil>
  40085c:	e51b0008 	ldr	r0, [fp, #-8]
  400860:	ebfffed0 	bl	4003a8 <vParTestToggleLED>
  400864:	e24b3010 	sub	r3, fp, #16
  400868:	e51b100c 	ldr	r1, [fp, #-12]
  40086c:	e1a00003 	mov	r0, r3
  400870:	eb00030a 	bl	4014a0 <xTaskDelayUntil>
  400874:	e51b0008 	ldr	r0, [fp, #-8]
  400878:	ebfffeca 	bl	4003a8 <vParTestToggleLED>
  40087c:	eafffff2 	b	40084c <vLEDFlashTask+0xc4>
  400880:	00403a78 	subeq	r3, r0, r8, ror sl
  400884:	10624dd3 	ldrdne	r4, [r2], #-211	@ 0xffffff2d	@ <UNPREDICTABLE>
  400888:	004039f0 	strdeq	r3, [r0], #-144	@ 0xffffff70
  40088c:	00403a08 	subeq	r3, r0, r8, lsl #20
  400890:	00403a24 	subeq	r3, r0, r4, lsr #20

00400894 <prvAddCurrentTaskToDelayedList>:
  400894:	e92d47f0 	push	{r4, r5, r6, r7, r8, r9, sl, lr}
  400898:	e1a06000 	mov	r6, r0
  40089c:	e59f40b8 	ldr	r4, [pc, #184]	@ 40095c <prvAddCurrentTaskToDelayedList+0xc8>
  4008a0:	e5945000 	ldr	r5, [r4]
  4008a4:	e5948004 	ldr	r8, [r4, #4]
  4008a8:	e5949008 	ldr	r9, [r4, #8]
  4008ac:	e594000c 	ldr	r0, [r4, #12]
  4008b0:	e2800004 	add	r0, r0, #4
  4008b4:	e1a07001 	mov	r7, r1
  4008b8:	eb000762 	bl	402648 <uxListRemove>
  4008bc:	e3760001 	cmn	r6, #1
  4008c0:	13a03000 	movne	r3, #0
  4008c4:	03a03001 	moveq	r3, #1
  4008c8:	e1170003 	tst	r7, r3
  4008cc:	0a000013 	beq	400920 <prvAddCurrentTaskToDelayedList+0x8c>
  4008d0:	e5943014 	ldr	r3, [r4, #20]
  4008d4:	e594200c 	ldr	r2, [r4, #12]
  4008d8:	e5931008 	ldr	r1, [r3, #8]
  4008dc:	e5823008 	str	r3, [r2, #8]
  4008e0:	e594200c 	ldr	r2, [r4, #12]
  4008e4:	e582100c 	str	r1, [r2, #12]
  4008e8:	e594200c 	ldr	r2, [r4, #12]
  4008ec:	e2822004 	add	r2, r2, #4
  4008f0:	e5812004 	str	r2, [r1, #4]
  4008f4:	e594200c 	ldr	r2, [r4, #12]
  4008f8:	e2822004 	add	r2, r2, #4
  4008fc:	e5832008 	str	r2, [r3, #8]
  400900:	e594300c 	ldr	r3, [r4, #12]
  400904:	e2842010 	add	r2, r4, #16
  400908:	e5832014 	str	r2, [r3, #20]
  40090c:	e5943010 	ldr	r3, [r4, #16]
  400910:	e2833001 	add	r3, r3, #1
  400914:	e5843010 	str	r3, [r4, #16]
  400918:	e8bd47f0 	pop	{r4, r5, r6, r7, r8, r9, sl, lr}
  40091c:	e12fff1e 	bx	lr
  400920:	e594300c 	ldr	r3, [r4, #12]
  400924:	e594100c 	ldr	r1, [r4, #12]
  400928:	e0955006 	adds	r5, r5, r6
  40092c:	e5835004 	str	r5, [r3, #4]
  400930:	e2811004 	add	r1, r1, #4
  400934:	3a000002 	bcc	400944 <prvAddCurrentTaskToDelayedList+0xb0>
  400938:	e1a00009 	mov	r0, r9
  40093c:	eb00072b 	bl	4025f0 <vListInsert>
  400940:	eafffff4 	b	400918 <prvAddCurrentTaskToDelayedList+0x84>
  400944:	e1a00008 	mov	r0, r8
  400948:	eb000728 	bl	4025f0 <vListInsert>
  40094c:	e5943024 	ldr	r3, [r4, #36]	@ 0x24
  400950:	e1530005 	cmp	r3, r5
  400954:	85845024 	strhi	r5, [r4, #36]	@ 0x24
  400958:	eaffffee 	b	400918 <prvAddCurrentTaskToDelayedList+0x84>
  40095c:	00405ce0 	subeq	r5, r0, r0, ror #25

00400960 <prvTaskIsTaskSuspended>:
  400960:	e5902014 	ldr	r2, [r0, #20]
  400964:	e59f1040 	ldr	r1, [pc, #64]	@ 4009ac <prvTaskIsTaskSuspended+0x4c>
  400968:	e1520001 	cmp	r2, r1
  40096c:	e1a03000 	mov	r3, r0
  400970:	1a00000b 	bne	4009a4 <prvTaskIsTaskSuspended+0x44>
  400974:	e5901028 	ldr	r1, [r0, #40]	@ 0x28
  400978:	e2822018 	add	r2, r2, #24
  40097c:	e2710001 	rsbs	r0, r1, #1
  400980:	33a00000 	movcc	r0, #0
  400984:	e1510002 	cmp	r1, r2
  400988:	03a00000 	moveq	r0, #0
  40098c:	e3500000 	cmp	r0, #0
  400990:	012fff1e 	bxeq	lr
  400994:	e5d30048 	ldrb	r0, [r3, #72]	@ 0x48
  400998:	e2500001 	subs	r0, r0, #1
  40099c:	13a00001 	movne	r0, #1
  4009a0:	e12fff1e 	bx	lr
  4009a4:	e3a00000 	mov	r0, #0
  4009a8:	e12fff1e 	bx	lr
  4009ac:	00405cf0 	strdeq	r5, [r0], #-192	@ 0xffffff40

004009b0 <prvResetNextTaskUnblockTime>:
  4009b0:	e59f3020 	ldr	r3, [pc, #32]	@ 4009d8 <prvResetNextTaskUnblockTime+0x28>
  4009b4:	e5932004 	ldr	r2, [r3, #4]
  4009b8:	e5922000 	ldr	r2, [r2]
  4009bc:	e3520000 	cmp	r2, #0
  4009c0:	03e02000 	mvneq	r2, #0
  4009c4:	15932004 	ldrne	r2, [r3, #4]
  4009c8:	1592200c 	ldrne	r2, [r2, #12]
  4009cc:	15922000 	ldrne	r2, [r2]
  4009d0:	e5832024 	str	r2, [r3, #36]	@ 0x24
  4009d4:	e12fff1e 	bx	lr
  4009d8:	00405ce0 	subeq	r5, r0, r0, ror #25

004009dc <prvCheckTasksWaitingTermination>:
  4009dc:	e92d4070 	push	{r4, r5, r6, lr}
  4009e0:	e59f4054 	ldr	r4, [pc, #84]	@ 400a3c <prvCheckTasksWaitingTermination+0x60>
  4009e4:	e5943054 	ldr	r3, [r4, #84]	@ 0x54
  4009e8:	e3530000 	cmp	r3, #0
  4009ec:	1a000001 	bne	4009f8 <prvCheckTasksWaitingTermination+0x1c>
  4009f0:	e8bd4070 	pop	{r4, r5, r6, lr}
  4009f4:	e12fff1e 	bx	lr
  4009f8:	eb0006c7 	bl	40251c <vPortEnterCritical>
  4009fc:	e5943048 	ldr	r3, [r4, #72]	@ 0x48
  400a00:	e593500c 	ldr	r5, [r3, #12]
  400a04:	e2850004 	add	r0, r5, #4
  400a08:	eb00070e 	bl	402648 <uxListRemove>
  400a0c:	e5943050 	ldr	r3, [r4, #80]	@ 0x50
  400a10:	e2433001 	sub	r3, r3, #1
  400a14:	e5843050 	str	r3, [r4, #80]	@ 0x50
  400a18:	e5943054 	ldr	r3, [r4, #84]	@ 0x54
  400a1c:	e2433001 	sub	r3, r3, #1
  400a20:	e5843054 	str	r3, [r4, #84]	@ 0x54
  400a24:	eb0006c7 	bl	402548 <vPortExitCritical>
  400a28:	e5950030 	ldr	r0, [r5, #48]	@ 0x30
  400a2c:	eb000601 	bl	402238 <vPortFree>
  400a30:	e1a00005 	mov	r0, r5
  400a34:	eb0005ff 	bl	402238 <vPortFree>
  400a38:	eaffffe9 	b	4009e4 <prvCheckTasksWaitingTermination+0x8>
  400a3c:	00405ce0 	subeq	r5, r0, r0, ror #25

00400a40 <prvIdleTask>:
  400a40:	e92d4010 	push	{r4, lr}
  400a44:	e59f4014 	ldr	r4, [pc, #20]	@ 400a60 <prvIdleTask+0x20>
  400a48:	ebffffe3 	bl	4009dc <prvCheckTasksWaitingTermination>
  400a4c:	e5943058 	ldr	r3, [r4, #88]	@ 0x58
  400a50:	e3530001 	cmp	r3, #1
  400a54:	9afffffb 	bls	400a48 <prvIdleTask+0x8>
  400a58:	ef000000 	svc	0x00000000
  400a5c:	eafffff9 	b	400a48 <prvIdleTask+0x8>
  400a60:	00405ce0 	subeq	r5, r0, r0, ror #25

00400a64 <xTaskCreate>:
  400a64:	e92d4ff8 	push	{r3, r4, r5, r6, r7, r8, r9, sl, fp, lr}
  400a68:	e1a05102 	lsl	r5, r2, #2
  400a6c:	e1a07000 	mov	r7, r0
  400a70:	e28d6028 	add	r6, sp, #40	@ 0x28
  400a74:	e1a00005 	mov	r0, r5
  400a78:	e1a0a001 	mov	sl, r1
  400a7c:	e1a08003 	mov	r8, r3
  400a80:	e8960240 	ldm	r6, {r6, r9}
  400a84:	eb0005b6 	bl	402164 <pvPortMalloc>
  400a88:	e250b000 	subs	fp, r0, #0
  400a8c:	1a000002 	bne	400a9c <xTaskCreate+0x38>
  400a90:	e3e00000 	mvn	r0, #0
  400a94:	e8bd4ff8 	pop	{r3, r4, r5, r6, r7, r8, r9, sl, fp, lr}
  400a98:	e12fff1e 	bx	lr
  400a9c:	e3a0004c 	mov	r0, #76	@ 0x4c
  400aa0:	eb0005af 	bl	402164 <pvPortMalloc>
  400aa4:	e2504000 	subs	r4, r0, #0
  400aa8:	0a000068 	beq	400c50 <xTaskCreate+0x1ec>
  400aac:	e3a0204c 	mov	r2, #76	@ 0x4c
  400ab0:	e3a01000 	mov	r1, #0
  400ab4:	e2455004 	sub	r5, r5, #4
  400ab8:	eb000c7d 	bl	403cb4 <memset>
  400abc:	e08b5005 	add	r5, fp, r5
  400ac0:	e35a0000 	cmp	sl, #0
  400ac4:	e584b030 	str	fp, [r4, #48]	@ 0x30
  400ac8:	e3c55007 	bic	r5, r5, #7
  400acc:	0a00000a 	beq	400afc <xTaskCreate+0x98>
  400ad0:	e24a3001 	sub	r3, sl, #1
  400ad4:	e2842033 	add	r2, r4, #51	@ 0x33
  400ad8:	e28aa00f 	add	sl, sl, #15
  400adc:	e5f31001 	ldrb	r1, [r3, #1]!
  400ae0:	e3510000 	cmp	r1, #0
  400ae4:	e5e21001 	strb	r1, [r2, #1]!
  400ae8:	0a000001 	beq	400af4 <xTaskCreate+0x90>
  400aec:	e153000a 	cmp	r3, sl
  400af0:	1afffff9 	bne	400adc <xTaskCreate+0x78>
  400af4:	e3a03000 	mov	r3, #0
  400af8:	e5c43043 	strb	r3, [r4, #67]	@ 0x43
  400afc:	e3560006 	cmp	r6, #6
  400b00:	23a06006 	movcs	r6, #6
  400b04:	e284a004 	add	sl, r4, #4
  400b08:	e1a0000a 	mov	r0, sl
  400b0c:	e584602c 	str	r6, [r4, #44]	@ 0x2c
  400b10:	eb0006a8 	bl	4025b8 <vListInitialiseItem>
  400b14:	e2666007 	rsb	r6, r6, #7
  400b18:	e2840018 	add	r0, r4, #24
  400b1c:	eb0006a5 	bl	4025b8 <vListInitialiseItem>
  400b20:	e1a01007 	mov	r1, r7
  400b24:	e1a02008 	mov	r2, r8
  400b28:	e1a00005 	mov	r0, r5
  400b2c:	e5846018 	str	r6, [r4, #24]
  400b30:	e5844010 	str	r4, [r4, #16]
  400b34:	e5844024 	str	r4, [r4, #36]	@ 0x24
  400b38:	eb0005cf 	bl	40227c <pxPortInitialiseStack>
  400b3c:	e59f5144 	ldr	r5, [pc, #324]	@ 400c88 <xTaskCreate+0x224>
  400b40:	e3590000 	cmp	r9, #0
  400b44:	e5840000 	str	r0, [r4]
  400b48:	15894000 	strne	r4, [r9]
  400b4c:	eb000672 	bl	40251c <vPortEnterCritical>
  400b50:	e5953050 	ldr	r3, [r5, #80]	@ 0x50
  400b54:	e2833001 	add	r3, r3, #1
  400b58:	e5853050 	str	r3, [r5, #80]	@ 0x50
  400b5c:	e595600c 	ldr	r6, [r5, #12]
  400b60:	e3560000 	cmp	r6, #0
  400b64:	e2857058 	add	r7, r5, #88	@ 0x58
  400b68:	1a00003b 	bne	400c5c <xTaskCreate+0x1f8>
  400b6c:	e585400c 	str	r4, [r5, #12]
  400b70:	e5953050 	ldr	r3, [r5, #80]	@ 0x50
  400b74:	e3530001 	cmp	r3, #1
  400b78:	1a000014 	bne	400bd0 <xTaskCreate+0x16c>
  400b7c:	e1a08007 	mov	r8, r7
  400b80:	e1a00008 	mov	r0, r8
  400b84:	e2866001 	add	r6, r6, #1
  400b88:	eb000681 	bl	402594 <vListInitialise>
  400b8c:	e3560007 	cmp	r6, #7
  400b90:	e2888014 	add	r8, r8, #20
  400b94:	1afffff9 	bne	400b80 <xTaskCreate+0x11c>
  400b98:	e59f60ec 	ldr	r6, [pc, #236]	@ 400c8c <xTaskCreate+0x228>
  400b9c:	e1a00006 	mov	r0, r6
  400ba0:	e2868014 	add	r8, r6, #20
  400ba4:	eb00067a 	bl	402594 <vListInitialise>
  400ba8:	e1a00008 	mov	r0, r8
  400bac:	eb000678 	bl	402594 <vListInitialise>
  400bb0:	e24600bc 	sub	r0, r6, #188	@ 0xbc
  400bb4:	eb000676 	bl	402594 <vListInitialise>
  400bb8:	e24600a8 	sub	r0, r6, #168	@ 0xa8
  400bbc:	eb000674 	bl	402594 <vListInitialise>
  400bc0:	e24600d4 	sub	r0, r6, #212	@ 0xd4
  400bc4:	eb000672 	bl	402594 <vListInitialise>
  400bc8:	e5856004 	str	r6, [r5, #4]
  400bcc:	e5858008 	str	r8, [r5, #8]
  400bd0:	e5953110 	ldr	r3, [r5, #272]	@ 0x110
  400bd4:	e2833001 	add	r3, r3, #1
  400bd8:	e5952114 	ldr	r2, [r5, #276]	@ 0x114
  400bdc:	e5853110 	str	r3, [r5, #272]	@ 0x110
  400be0:	e594302c 	ldr	r3, [r4, #44]	@ 0x2c
  400be4:	e1530002 	cmp	r3, r2
  400be8:	e3a02014 	mov	r2, #20
  400bec:	85853114 	strhi	r3, [r5, #276]	@ 0x114
  400bf0:	e0030392 	mul	r3, r2, r3
  400bf4:	e0852003 	add	r2, r5, r3
  400bf8:	e592105c 	ldr	r1, [r2, #92]	@ 0x5c
  400bfc:	e0877003 	add	r7, r7, r3
  400c00:	e5910008 	ldr	r0, [r1, #8]
  400c04:	e5923058 	ldr	r3, [r2, #88]	@ 0x58
  400c08:	e5841008 	str	r1, [r4, #8]
  400c0c:	e584000c 	str	r0, [r4, #12]
  400c10:	e2833001 	add	r3, r3, #1
  400c14:	e580a004 	str	sl, [r0, #4]
  400c18:	e581a008 	str	sl, [r1, #8]
  400c1c:	e5847014 	str	r7, [r4, #20]
  400c20:	e5823058 	str	r3, [r2, #88]	@ 0x58
  400c24:	eb000647 	bl	402548 <vPortExitCritical>
  400c28:	e595310c 	ldr	r3, [r5, #268]	@ 0x10c
  400c2c:	e3530000 	cmp	r3, #0
  400c30:	0a000004 	beq	400c48 <xTaskCreate+0x1e4>
  400c34:	e595300c 	ldr	r3, [r5, #12]
  400c38:	e593202c 	ldr	r2, [r3, #44]	@ 0x2c
  400c3c:	e594302c 	ldr	r3, [r4, #44]	@ 0x2c
  400c40:	e1520003 	cmp	r2, r3
  400c44:	3a00000d 	bcc	400c80 <xTaskCreate+0x21c>
  400c48:	e3a00001 	mov	r0, #1
  400c4c:	eaffff90 	b	400a94 <xTaskCreate+0x30>
  400c50:	e1a0000b 	mov	r0, fp
  400c54:	eb000577 	bl	402238 <vPortFree>
  400c58:	eaffff8c 	b	400a90 <xTaskCreate+0x2c>
  400c5c:	e595210c 	ldr	r2, [r5, #268]	@ 0x10c
  400c60:	e3520000 	cmp	r2, #0
  400c64:	e594302c 	ldr	r3, [r4, #44]	@ 0x2c
  400c68:	1affffd8 	bne	400bd0 <xTaskCreate+0x16c>
  400c6c:	e595200c 	ldr	r2, [r5, #12]
  400c70:	e592202c 	ldr	r2, [r2, #44]	@ 0x2c
  400c74:	e1520003 	cmp	r2, r3
  400c78:	9585400c 	strls	r4, [r5, #12]
  400c7c:	eaffffd3 	b	400bd0 <xTaskCreate+0x16c>
  400c80:	ef000000 	svc	0x00000000
  400c84:	eaffffef 	b	400c48 <xTaskCreate+0x1e4>
  400c88:	00405ce0 	subeq	r5, r0, r0, ror #25
  400c8c:	00405dc4 	subeq	r5, r0, r4, asr #27

00400c90 <vTaskDelete>:
  400c90:	e92d4070 	push	{r4, r5, r6, lr}
  400c94:	e1a05000 	mov	r5, r0
  400c98:	e59f40b0 	ldr	r4, [pc, #176]	@ 400d50 <vTaskDelete+0xc0>
  400c9c:	eb00061e 	bl	40251c <vPortEnterCritical>
  400ca0:	e3550000 	cmp	r5, #0
  400ca4:	0594500c 	ldreq	r5, [r4, #12]
  400ca8:	e2856004 	add	r6, r5, #4
  400cac:	e1a00006 	mov	r0, r6
  400cb0:	eb000664 	bl	402648 <uxListRemove>
  400cb4:	e5953028 	ldr	r3, [r5, #40]	@ 0x28
  400cb8:	e3530000 	cmp	r3, #0
  400cbc:	12850018 	addne	r0, r5, #24
  400cc0:	1b000660 	blne	402648 <uxListRemove>
  400cc4:	e5943110 	ldr	r3, [r4, #272]	@ 0x110
  400cc8:	e2833001 	add	r3, r3, #1
  400ccc:	e5843110 	str	r3, [r4, #272]	@ 0x110
  400cd0:	e594300c 	ldr	r3, [r4, #12]
  400cd4:	e1530005 	cmp	r3, r5
  400cd8:	e594310c 	ldr	r3, [r4, #268]	@ 0x10c
  400cdc:	1a000001 	bne	400ce8 <vTaskDelete+0x58>
  400ce0:	e3530000 	cmp	r3, #0
  400ce4:	1a000009 	bne	400d10 <vTaskDelete+0x80>
  400ce8:	e5943050 	ldr	r3, [r4, #80]	@ 0x50
  400cec:	e2433001 	sub	r3, r3, #1
  400cf0:	e5843050 	str	r3, [r4, #80]	@ 0x50
  400cf4:	ebffff2d 	bl	4009b0 <prvResetNextTaskUnblockTime>
  400cf8:	eb000612 	bl	402548 <vPortExitCritical>
  400cfc:	e5950030 	ldr	r0, [r5, #48]	@ 0x30
  400d00:	eb00054c 	bl	402238 <vPortFree>
  400d04:	e1a00005 	mov	r0, r5
  400d08:	eb00054a 	bl	402238 <vPortFree>
  400d0c:	ea000006 	b	400d2c <vTaskDelete+0x9c>
  400d10:	e1a01006 	mov	r1, r6
  400d14:	e59f0038 	ldr	r0, [pc, #56]	@ 400d54 <vTaskDelete+0xc4>
  400d18:	eb000629 	bl	4025c4 <vListInsertEnd>
  400d1c:	e5943054 	ldr	r3, [r4, #84]	@ 0x54
  400d20:	e2833001 	add	r3, r3, #1
  400d24:	e5843054 	str	r3, [r4, #84]	@ 0x54
  400d28:	eb000606 	bl	402548 <vPortExitCritical>
  400d2c:	e594310c 	ldr	r3, [r4, #268]	@ 0x10c
  400d30:	e3530000 	cmp	r3, #0
  400d34:	0a000003 	beq	400d48 <vTaskDelete+0xb8>
  400d38:	e594300c 	ldr	r3, [r4, #12]
  400d3c:	e1530005 	cmp	r3, r5
  400d40:	1a000000 	bne	400d48 <vTaskDelete+0xb8>
  400d44:	ef000000 	svc	0x00000000
  400d48:	e8bd4070 	pop	{r4, r5, r6, lr}
  400d4c:	e12fff1e 	bx	lr
  400d50:	00405ce0 	subeq	r5, r0, r0, ror #25
  400d54:	00405d1c 	subeq	r5, r0, ip, lsl sp

00400d58 <uxTaskPriorityGet>:
  400d58:	e92d4010 	push	{r4, lr}
  400d5c:	e1a04000 	mov	r4, r0
  400d60:	eb0005ed 	bl	40251c <vPortEnterCritical>
  400d64:	e3540000 	cmp	r4, #0
  400d68:	059f3014 	ldreq	r3, [pc, #20]	@ 400d84 <uxTaskPriorityGet+0x2c>
  400d6c:	0593400c 	ldreq	r4, [r3, #12]
  400d70:	e594402c 	ldr	r4, [r4, #44]	@ 0x2c
  400d74:	eb0005f3 	bl	402548 <vPortExitCritical>
  400d78:	e1a00004 	mov	r0, r4
  400d7c:	e8bd4010 	pop	{r4, lr}
  400d80:	e12fff1e 	bx	lr
  400d84:	00405ce0 	subeq	r5, r0, r0, ror #25

00400d88 <uxTaskPriorityGetFromISR>:
  400d88:	e3500000 	cmp	r0, #0
  400d8c:	059f3008 	ldreq	r3, [pc, #8]	@ 400d9c <uxTaskPriorityGetFromISR+0x14>
  400d90:	0593000c 	ldreq	r0, [r3, #12]
  400d94:	e590002c 	ldr	r0, [r0, #44]	@ 0x2c
  400d98:	e12fff1e 	bx	lr
  400d9c:	00405ce0 	subeq	r5, r0, r0, ror #25

00400da0 <vTaskPrioritySet>:
  400da0:	e92d41f0 	push	{r4, r5, r6, r7, r8, lr}
  400da4:	e1a04000 	mov	r4, r0
  400da8:	e3510006 	cmp	r1, #6
  400dac:	31a05001 	movcc	r5, r1
  400db0:	23a05006 	movcs	r5, #6
  400db4:	eb0005d8 	bl	40251c <vPortEnterCritical>
  400db8:	e3540000 	cmp	r4, #0
  400dbc:	059f30f8 	ldreq	r3, [pc, #248]	@ 400ebc <vTaskPrioritySet+0x11c>
  400dc0:	0593400c 	ldreq	r4, [r3, #12]
  400dc4:	e594002c 	ldr	r0, [r4, #44]	@ 0x2c
  400dc8:	e1550000 	cmp	r5, r0
  400dcc:	0a000037 	beq	400eb0 <vTaskPrioritySet+0x110>
  400dd0:	e3a02014 	mov	r2, #20
  400dd4:	e59f70e0 	ldr	r7, [pc, #224]	@ 400ebc <vTaskPrioritySet+0x11c>
  400dd8:	e2876058 	add	r6, r7, #88	@ 0x58
  400ddc:	e0206092 	mla	r0, r2, r0, r6
  400de0:	e5941018 	ldr	r1, [r4, #24]
  400de4:	e5943014 	ldr	r3, [r4, #20]
  400de8:	e597200c 	ldr	r2, [r7, #12]
  400dec:	9a000026 	bls	400e8c <vTaskPrioritySet+0xec>
  400df0:	e1520004 	cmp	r2, r4
  400df4:	0a000003 	beq	400e08 <vTaskPrioritySet+0x68>
  400df8:	e597200c 	ldr	r2, [r7, #12]
  400dfc:	e592202c 	ldr	r2, [r2, #44]	@ 0x2c
  400e00:	e1520005 	cmp	r2, r5
  400e04:	3a000022 	bcc	400e94 <vTaskPrioritySet+0xf4>
  400e08:	e3510000 	cmp	r1, #0
  400e0c:	e584502c 	str	r5, [r4, #44]	@ 0x2c
  400e10:	a2655007 	rsbge	r5, r5, #7
  400e14:	a5845018 	strge	r5, [r4, #24]
  400e18:	e1530000 	cmp	r3, r0
  400e1c:	03a05000 	moveq	r5, #0
  400e20:	1a000022 	bne	400eb0 <vTaskPrioritySet+0x110>
  400e24:	ea000000 	b	400e2c <vTaskPrioritySet+0x8c>
  400e28:	e3a05001 	mov	r5, #1
  400e2c:	e2848004 	add	r8, r4, #4
  400e30:	e1a00008 	mov	r0, r8
  400e34:	eb000603 	bl	402648 <uxListRemove>
  400e38:	e594202c 	ldr	r2, [r4, #44]	@ 0x2c
  400e3c:	e5973114 	ldr	r3, [r7, #276]	@ 0x114
  400e40:	e1520003 	cmp	r2, r3
  400e44:	e3a03014 	mov	r3, #20
  400e48:	85872114 	strhi	r2, [r7, #276]	@ 0x114
  400e4c:	e0020293 	mul	r2, r3, r2
  400e50:	e0873002 	add	r3, r7, r2
  400e54:	e593105c 	ldr	r1, [r3, #92]	@ 0x5c
  400e58:	e5910008 	ldr	r0, [r1, #8]
  400e5c:	e0862002 	add	r2, r6, r2
  400e60:	e5841008 	str	r1, [r4, #8]
  400e64:	e584000c 	str	r0, [r4, #12]
  400e68:	e5808004 	str	r8, [r0, #4]
  400e6c:	e5818008 	str	r8, [r1, #8]
  400e70:	e5842014 	str	r2, [r4, #20]
  400e74:	e5932058 	ldr	r2, [r3, #88]	@ 0x58
  400e78:	e3550000 	cmp	r5, #0
  400e7c:	e2822001 	add	r2, r2, #1
  400e80:	e5832058 	str	r2, [r3, #88]	@ 0x58
  400e84:	1a000008 	bne	400eac <vTaskPrioritySet+0x10c>
  400e88:	ea000008 	b	400eb0 <vTaskPrioritySet+0x110>
  400e8c:	e1520004 	cmp	r2, r4
  400e90:	1affffdc 	bne	400e08 <vTaskPrioritySet+0x68>
  400e94:	e3510000 	cmp	r1, #0
  400e98:	e584502c 	str	r5, [r4, #44]	@ 0x2c
  400e9c:	a2655007 	rsbge	r5, r5, #7
  400ea0:	a5845018 	strge	r5, [r4, #24]
  400ea4:	e1530000 	cmp	r3, r0
  400ea8:	0affffde 	beq	400e28 <vTaskPrioritySet+0x88>
  400eac:	ef000000 	svc	0x00000000
  400eb0:	eb0005a4 	bl	402548 <vPortExitCritical>
  400eb4:	e8bd41f0 	pop	{r4, r5, r6, r7, r8, lr}
  400eb8:	e12fff1e 	bx	lr
  400ebc:	00405ce0 	subeq	r5, r0, r0, ror #25

00400ec0 <vTaskResume>:
  400ec0:	e92d4070 	push	{r4, r5, r6, lr}
  400ec4:	e59f509c 	ldr	r5, [pc, #156]	@ 400f68 <vTaskResume+0xa8>
  400ec8:	e595300c 	ldr	r3, [r5, #12]
  400ecc:	e1530000 	cmp	r3, r0
  400ed0:	13500000 	cmpne	r0, #0
  400ed4:	0a000021 	beq	400f60 <vTaskResume+0xa0>
  400ed8:	e1a04000 	mov	r4, r0
  400edc:	eb00058e 	bl	40251c <vPortEnterCritical>
  400ee0:	e1a00004 	mov	r0, r4
  400ee4:	ebfffe9d 	bl	400960 <prvTaskIsTaskSuspended>
  400ee8:	e3500000 	cmp	r0, #0
  400eec:	0a00001a 	beq	400f5c <vTaskResume+0x9c>
  400ef0:	e2846004 	add	r6, r4, #4
  400ef4:	e1a00006 	mov	r0, r6
  400ef8:	eb0005d2 	bl	402648 <uxListRemove>
  400efc:	e594302c 	ldr	r3, [r4, #44]	@ 0x2c
  400f00:	e5952114 	ldr	r2, [r5, #276]	@ 0x114
  400f04:	e1530002 	cmp	r3, r2
  400f08:	e3a02014 	mov	r2, #20
  400f0c:	e0020293 	mul	r2, r3, r2
  400f10:	e0851002 	add	r1, r5, r2
  400f14:	e591005c 	ldr	r0, [r1, #92]	@ 0x5c
  400f18:	e590c008 	ldr	ip, [r0, #8]
  400f1c:	e5840008 	str	r0, [r4, #8]
  400f20:	e584c00c 	str	ip, [r4, #12]
  400f24:	e58c6004 	str	r6, [ip, #4]
  400f28:	e5806008 	str	r6, [r0, #8]
  400f2c:	e59f0038 	ldr	r0, [pc, #56]	@ 400f6c <vTaskResume+0xac>
  400f30:	e0802002 	add	r2, r0, r2
  400f34:	e5842014 	str	r2, [r4, #20]
  400f38:	e5912058 	ldr	r2, [r1, #88]	@ 0x58
  400f3c:	85853114 	strhi	r3, [r5, #276]	@ 0x114
  400f40:	e2822001 	add	r2, r2, #1
  400f44:	e5812058 	str	r2, [r1, #88]	@ 0x58
  400f48:	e595200c 	ldr	r2, [r5, #12]
  400f4c:	e592202c 	ldr	r2, [r2, #44]	@ 0x2c
  400f50:	e1530002 	cmp	r3, r2
  400f54:	9a000000 	bls	400f5c <vTaskResume+0x9c>
  400f58:	ef000000 	svc	0x00000000
  400f5c:	eb000579 	bl	402548 <vPortExitCritical>
  400f60:	e8bd4070 	pop	{r4, r5, r6, lr}
  400f64:	e12fff1e 	bx	lr
  400f68:	00405ce0 	subeq	r5, r0, r0, ror #25
  400f6c:	00405d38 	subeq	r5, r0, r8, lsr sp

00400f70 <xTaskResumeFromISR>:
  400f70:	e92d41f0 	push	{r4, r5, r6, r7, r8, lr}
  400f74:	e1a06000 	mov	r6, r0
  400f78:	ebfffe78 	bl	400960 <prvTaskIsTaskSuspended>
  400f7c:	e3500000 	cmp	r0, #0
  400f80:	0a000025 	beq	40101c <xTaskResumeFromISR+0xac>
  400f84:	e59f4098 	ldr	r4, [pc, #152]	@ 401024 <xTaskResumeFromISR+0xb4>
  400f88:	e5945118 	ldr	r5, [r4, #280]	@ 0x118
  400f8c:	e3550000 	cmp	r5, #0
  400f90:	1a00001e 	bne	401010 <xTaskResumeFromISR+0xa0>
  400f94:	e594300c 	ldr	r3, [r4, #12]
  400f98:	e596202c 	ldr	r2, [r6, #44]	@ 0x2c
  400f9c:	e593302c 	ldr	r3, [r3, #44]	@ 0x2c
  400fa0:	e1520003 	cmp	r2, r3
  400fa4:	83a05001 	movhi	r5, #1
  400fa8:	e2867004 	add	r7, r6, #4
  400fac:	e1a00007 	mov	r0, r7
  400fb0:	8584511c 	strhi	r5, [r4, #284]	@ 0x11c
  400fb4:	eb0005a3 	bl	402648 <uxListRemove>
  400fb8:	e596302c 	ldr	r3, [r6, #44]	@ 0x2c
  400fbc:	e5942114 	ldr	r2, [r4, #276]	@ 0x114
  400fc0:	e1530002 	cmp	r3, r2
  400fc4:	e3a02014 	mov	r2, #20
  400fc8:	85843114 	strhi	r3, [r4, #276]	@ 0x114
  400fcc:	e0030392 	mul	r3, r2, r3
  400fd0:	e0844003 	add	r4, r4, r3
  400fd4:	e594205c 	ldr	r2, [r4, #92]	@ 0x5c
  400fd8:	e5921008 	ldr	r1, [r2, #8]
  400fdc:	e5862008 	str	r2, [r6, #8]
  400fe0:	e586100c 	str	r1, [r6, #12]
  400fe4:	e5817004 	str	r7, [r1, #4]
  400fe8:	e5827008 	str	r7, [r2, #8]
  400fec:	e59f2034 	ldr	r2, [pc, #52]	@ 401028 <xTaskResumeFromISR+0xb8>
  400ff0:	e0823003 	add	r3, r2, r3
  400ff4:	e5863014 	str	r3, [r6, #20]
  400ff8:	e5943058 	ldr	r3, [r4, #88]	@ 0x58
  400ffc:	e2833001 	add	r3, r3, #1
  401000:	e5843058 	str	r3, [r4, #88]	@ 0x58
  401004:	e1a00005 	mov	r0, r5
  401008:	e8bd41f0 	pop	{r4, r5, r6, r7, r8, lr}
  40100c:	e12fff1e 	bx	lr
  401010:	e2861018 	add	r1, r6, #24
  401014:	e2840028 	add	r0, r4, #40	@ 0x28
  401018:	eb000569 	bl	4025c4 <vListInsertEnd>
  40101c:	e3a05000 	mov	r5, #0
  401020:	eafffff7 	b	401004 <xTaskResumeFromISR+0x94>
  401024:	00405ce0 	subeq	r5, r0, r0, ror #25
  401028:	00405d38 	subeq	r5, r0, r8, lsr sp

0040102c <vTaskStartScheduler>:
  40102c:	e92d4030 	push	{r4, r5, lr}
  401030:	e24dd01c 	sub	sp, sp, #28
  401034:	e28d3008 	add	r3, sp, #8
  401038:	e1a01003 	mov	r1, r3
  40103c:	e59f2078 	ldr	r2, [pc, #120]	@ 4010bc <vTaskStartScheduler+0x90>
  401040:	e4d24001 	ldrb	r4, [r2], #1
  401044:	e3540000 	cmp	r4, #0
  401048:	e4c34001 	strb	r4, [r3], #1
  40104c:	1afffffb 	bne	401040 <vTaskStartScheduler+0x14>
  401050:	e59f5068 	ldr	r5, [pc, #104]	@ 4010c0 <vTaskStartScheduler+0x94>
  401054:	e2853e12 	add	r3, r5, #288	@ 0x120
  401058:	e58d3004 	str	r3, [sp, #4]
  40105c:	e3a02080 	mov	r2, #128	@ 0x80
  401060:	e1a03004 	mov	r3, r4
  401064:	e58d4000 	str	r4, [sp]
  401068:	e59f0054 	ldr	r0, [pc, #84]	@ 4010c4 <vTaskStartScheduler+0x98>
  40106c:	ebfffe7c 	bl	400a64 <xTaskCreate>
  401070:	e3500000 	cmp	r0, #0
  401074:	0a00000b 	beq	4010a8 <vTaskStartScheduler+0x7c>
  401078:	e3500001 	cmp	r0, #1
  40107c:	1a000009 	bne	4010a8 <vTaskStartScheduler+0x7c>
  401080:	e92d0001 	stmfd	sp!, {r0}
  401084:	e10f0000 	mrs	r0, CPSR
  401088:	e38000c0 	orr	r0, r0, #192	@ 0xc0
  40108c:	e129f000 	msr	CPSR_fc, r0
  401090:	e8bd0001 	ldmfd	sp!, {r0}
  401094:	e3e03000 	mvn	r3, #0
  401098:	e5853024 	str	r3, [r5, #36]	@ 0x24
  40109c:	e585010c 	str	r0, [r5, #268]	@ 0x10c
  4010a0:	e5854000 	str	r4, [r5]
  4010a4:	eb0004a6 	bl	402344 <xPortStartScheduler>
  4010a8:	e59f3018 	ldr	r3, [pc, #24]	@ 4010c8 <vTaskStartScheduler+0x9c>
  4010ac:	e5933000 	ldr	r3, [r3]
  4010b0:	e28dd01c 	add	sp, sp, #28
  4010b4:	e8bd4030 	pop	{r4, r5, lr}
  4010b8:	e12fff1e 	bx	lr
  4010bc:	00403a3a 	subeq	r3, r0, sl, lsr sl
  4010c0:	00405ce0 	subeq	r5, r0, r0, ror #25
  4010c4:	00400a40 	subeq	r0, r0, r0, asr #20
  4010c8:	00403a7c 	subeq	r3, r0, ip, ror sl

004010cc <vTaskEndScheduler>:
  4010cc:	e92d4010 	push	{r4, lr}
  4010d0:	e59f4030 	ldr	r4, [pc, #48]	@ 401108 <vTaskEndScheduler+0x3c>
  4010d4:	e5940120 	ldr	r0, [r4, #288]	@ 0x120
  4010d8:	ebfffeec 	bl	400c90 <vTaskDelete>
  4010dc:	ebfffe3e 	bl	4009dc <prvCheckTasksWaitingTermination>
  4010e0:	e92d0001 	stmfd	sp!, {r0}
  4010e4:	e10f0000 	mrs	r0, CPSR
  4010e8:	e38000c0 	orr	r0, r0, #192	@ 0xc0
  4010ec:	e129f000 	msr	CPSR_fc, r0
  4010f0:	e8bd0001 	ldmfd	sp!, {r0}
  4010f4:	e3a03000 	mov	r3, #0
  4010f8:	e584310c 	str	r3, [r4, #268]	@ 0x10c
  4010fc:	eb00049c 	bl	402374 <vPortEndScheduler>
  401100:	e8bd4010 	pop	{r4, lr}
  401104:	e12fff1e 	bx	lr
  401108:	00405ce0 	subeq	r5, r0, r0, ror #25

0040110c <vTaskSuspendAll>:
  40110c:	e59f200c 	ldr	r2, [pc, #12]	@ 401120 <vTaskSuspendAll+0x14>
  401110:	e5923118 	ldr	r3, [r2, #280]	@ 0x118
  401114:	e2833001 	add	r3, r3, #1
  401118:	e5823118 	str	r3, [r2, #280]	@ 0x118
  40111c:	e12fff1e 	bx	lr
  401120:	00405ce0 	subeq	r5, r0, r0, ror #25

00401124 <xTaskGetTickCount>:
  401124:	e92d4010 	push	{r4, lr}
  401128:	eb0004fb 	bl	40251c <vPortEnterCritical>
  40112c:	e59f3010 	ldr	r3, [pc, #16]	@ 401144 <xTaskGetTickCount+0x20>
  401130:	e5934000 	ldr	r4, [r3]
  401134:	eb000503 	bl	402548 <vPortExitCritical>
  401138:	e1a00004 	mov	r0, r4
  40113c:	e8bd4010 	pop	{r4, lr}
  401140:	e12fff1e 	bx	lr
  401144:	00405ce0 	subeq	r5, r0, r0, ror #25

00401148 <xTaskGetTickCountFromISR>:
  401148:	e59f3004 	ldr	r3, [pc, #4]	@ 401154 <xTaskGetTickCountFromISR+0xc>
  40114c:	e5930000 	ldr	r0, [r3]
  401150:	e12fff1e 	bx	lr
  401154:	00405ce0 	subeq	r5, r0, r0, ror #25

00401158 <uxTaskGetNumberOfTasks>:
  401158:	e59f3004 	ldr	r3, [pc, #4]	@ 401164 <uxTaskGetNumberOfTasks+0xc>
  40115c:	e5930050 	ldr	r0, [r3, #80]	@ 0x50
  401160:	e12fff1e 	bx	lr
  401164:	00405ce0 	subeq	r5, r0, r0, ror #25

00401168 <pcTaskGetName>:
  401168:	e3500000 	cmp	r0, #0
  40116c:	059f3008 	ldreq	r3, [pc, #8]	@ 40117c <pcTaskGetName+0x14>
  401170:	0593000c 	ldreq	r0, [r3, #12]
  401174:	e2800034 	add	r0, r0, #52	@ 0x34
  401178:	e12fff1e 	bx	lr
  40117c:	00405ce0 	subeq	r5, r0, r0, ror #25

00401180 <xTaskIncrementTick>:
  401180:	e59f119c 	ldr	r1, [pc, #412]	@ 401324 <xTaskIncrementTick+0x1a4>
  401184:	e5913118 	ldr	r3, [r1, #280]	@ 0x118
  401188:	e3530000 	cmp	r3, #0
  40118c:	1a00005f 	bne	401310 <xTaskIncrementTick+0x190>
  401190:	e92d47f0 	push	{r4, r5, r6, r7, r8, r9, sl, lr}
  401194:	e5914000 	ldr	r4, [r1]
  401198:	e2844001 	add	r4, r4, #1
  40119c:	e3540000 	cmp	r4, #0
  4011a0:	e5814000 	str	r4, [r1]
  4011a4:	1a000007 	bne	4011c8 <xTaskIncrementTick+0x48>
  4011a8:	e5913004 	ldr	r3, [r1, #4]
  4011ac:	e5912008 	ldr	r2, [r1, #8]
  4011b0:	e5812004 	str	r2, [r1, #4]
  4011b4:	e5813008 	str	r3, [r1, #8]
  4011b8:	e5913124 	ldr	r3, [r1, #292]	@ 0x124
  4011bc:	e2833001 	add	r3, r3, #1
  4011c0:	e5813124 	str	r3, [r1, #292]	@ 0x124
  4011c4:	ebfffdf9 	bl	4009b0 <prvResetNextTaskUnblockTime>
  4011c8:	e5913024 	ldr	r3, [r1, #36]	@ 0x24
  4011cc:	e1540003 	cmp	r4, r3
  4011d0:	e3a00000 	mov	r0, #0
  4011d4:	2a00000b 	bcs	401208 <xTaskIncrementTick+0x88>
  4011d8:	e3a02014 	mov	r2, #20
  4011dc:	e591300c 	ldr	r3, [r1, #12]
  4011e0:	e593302c 	ldr	r3, [r3, #44]	@ 0x2c
  4011e4:	e0231392 	mla	r3, r2, r3, r1
  4011e8:	e5933058 	ldr	r3, [r3, #88]	@ 0x58
  4011ec:	e3530002 	cmp	r3, #2
  4011f0:	e591311c 	ldr	r3, [r1, #284]	@ 0x11c
  4011f4:	23a00001 	movcs	r0, #1
  4011f8:	e3530000 	cmp	r3, #0
  4011fc:	13a00001 	movne	r0, #1
  401200:	e8bd47f0 	pop	{r4, r5, r6, r7, r8, r9, sl, lr}
  401204:	e12fff1e 	bx	lr
  401208:	e1a05000 	mov	r5, r0
  40120c:	e3a07014 	mov	r7, #20
  401210:	e59f6110 	ldr	r6, [pc, #272]	@ 401328 <xTaskIncrementTick+0x1a8>
  401214:	e5913004 	ldr	r3, [r1, #4]
  401218:	e5933000 	ldr	r3, [r3]
  40121c:	e3530000 	cmp	r3, #0
  401220:	03e03000 	mvneq	r3, #0
  401224:	05813024 	streq	r3, [r1, #36]	@ 0x24
  401228:	0affffea 	beq	4011d8 <xTaskIncrementTick+0x58>
  40122c:	e5913004 	ldr	r3, [r1, #4]
  401230:	e593300c 	ldr	r3, [r3, #12]
  401234:	e593300c 	ldr	r3, [r3, #12]
  401238:	e5932004 	ldr	r2, [r3, #4]
  40123c:	e1540002 	cmp	r4, r2
  401240:	35812024 	strcc	r2, [r1, #36]	@ 0x24
  401244:	3affffe3 	bcc	4011d8 <xTaskIncrementTick+0x58>
  401248:	e5932014 	ldr	r2, [r3, #20]
  40124c:	e593e008 	ldr	lr, [r3, #8]
  401250:	e593c00c 	ldr	ip, [r3, #12]
  401254:	e58ec008 	str	ip, [lr, #8]
  401258:	e58ce004 	str	lr, [ip, #4]
  40125c:	e592e004 	ldr	lr, [r2, #4]
  401260:	e2839004 	add	r9, r3, #4
  401264:	e15e0009 	cmp	lr, r9
  401268:	0582c004 	streq	ip, [r2, #4]
  40126c:	e592c000 	ldr	ip, [r2]
  401270:	e24cc001 	sub	ip, ip, #1
  401274:	e5835014 	str	r5, [r3, #20]
  401278:	e582c000 	str	ip, [r2]
  40127c:	e5932028 	ldr	r2, [r3, #40]	@ 0x28
  401280:	e3520000 	cmp	r2, #0
  401284:	0a00000b 	beq	4012b8 <xTaskIncrementTick+0x138>
  401288:	e593e01c 	ldr	lr, [r3, #28]
  40128c:	e593c020 	ldr	ip, [r3, #32]
  401290:	e5928004 	ldr	r8, [r2, #4]
  401294:	e58ec008 	str	ip, [lr, #8]
  401298:	e58ce004 	str	lr, [ip, #4]
  40129c:	e283e018 	add	lr, r3, #24
  4012a0:	e158000e 	cmp	r8, lr
  4012a4:	0582c004 	streq	ip, [r2, #4]
  4012a8:	e592c000 	ldr	ip, [r2]
  4012ac:	e24cc001 	sub	ip, ip, #1
  4012b0:	e5835028 	str	r5, [r3, #40]	@ 0x28
  4012b4:	e582c000 	str	ip, [r2]
  4012b8:	e593202c 	ldr	r2, [r3, #44]	@ 0x2c
  4012bc:	e591c114 	ldr	ip, [r1, #276]	@ 0x114
  4012c0:	e152000c 	cmp	r2, ip
  4012c4:	e00c0297 	mul	ip, r7, r2
  4012c8:	e081e00c 	add	lr, r1, ip
  4012cc:	e59e805c 	ldr	r8, [lr, #92]	@ 0x5c
  4012d0:	e598a008 	ldr	sl, [r8, #8]
  4012d4:	e086c00c 	add	ip, r6, ip
  4012d8:	e5838008 	str	r8, [r3, #8]
  4012dc:	e583a00c 	str	sl, [r3, #12]
  4012e0:	e58a9004 	str	r9, [sl, #4]
  4012e4:	e5889008 	str	r9, [r8, #8]
  4012e8:	e583c014 	str	ip, [r3, #20]
  4012ec:	e59e3058 	ldr	r3, [lr, #88]	@ 0x58
  4012f0:	85812114 	strhi	r2, [r1, #276]	@ 0x114
  4012f4:	e2833001 	add	r3, r3, #1
  4012f8:	e58e3058 	str	r3, [lr, #88]	@ 0x58
  4012fc:	e591300c 	ldr	r3, [r1, #12]
  401300:	e593302c 	ldr	r3, [r3, #44]	@ 0x2c
  401304:	e1520003 	cmp	r2, r3
  401308:	83a00001 	movhi	r0, #1
  40130c:	eaffffc0 	b	401214 <xTaskIncrementTick+0x94>
  401310:	e5913128 	ldr	r3, [r1, #296]	@ 0x128
  401314:	e2833001 	add	r3, r3, #1
  401318:	e3a00000 	mov	r0, #0
  40131c:	e5813128 	str	r3, [r1, #296]	@ 0x128
  401320:	e12fff1e 	bx	lr
  401324:	00405ce0 	subeq	r5, r0, r0, ror #25
  401328:	00405d38 	subeq	r5, r0, r8, lsr sp

0040132c <xTaskResumeAll>:
  40132c:	e92d47f0 	push	{r4, r5, r6, r7, r8, r9, sl, lr}
  401330:	e59f4164 	ldr	r4, [pc, #356]	@ 40149c <xTaskResumeAll+0x170>
  401334:	eb000478 	bl	40251c <vPortEnterCritical>
  401338:	e5943118 	ldr	r3, [r4, #280]	@ 0x118
  40133c:	e2433001 	sub	r3, r3, #1
  401340:	e5843118 	str	r3, [r4, #280]	@ 0x118
  401344:	e5943118 	ldr	r3, [r4, #280]	@ 0x118
  401348:	e3530000 	cmp	r3, #0
  40134c:	0a000004 	beq	401364 <xTaskResumeAll+0x38>
  401350:	e3a04000 	mov	r4, #0
  401354:	eb00047b 	bl	402548 <vPortExitCritical>
  401358:	e1a00004 	mov	r0, r4
  40135c:	e8bd47f0 	pop	{r4, r5, r6, r7, r8, r9, sl, lr}
  401360:	e12fff1e 	bx	lr
  401364:	e5942050 	ldr	r2, [r4, #80]	@ 0x50
  401368:	e3520000 	cmp	r2, #0
  40136c:	0afffff7 	beq	401350 <xTaskResumeAll+0x24>
  401370:	e1a0e003 	mov	lr, r3
  401374:	e3a05014 	mov	r5, #20
  401378:	e3a07001 	mov	r7, #1
  40137c:	e594c034 	ldr	ip, [r4, #52]	@ 0x34
  401380:	e2846058 	add	r6, r4, #88	@ 0x58
  401384:	e5942028 	ldr	r2, [r4, #40]	@ 0x28
  401388:	e3520000 	cmp	r2, #0
  40138c:	1a000012 	bne	4013dc <xTaskResumeAll+0xb0>
  401390:	e3530000 	cmp	r3, #0
  401394:	1bfffd85 	blne	4009b0 <prvResetNextTaskUnblockTime>
  401398:	e5945128 	ldr	r5, [r4, #296]	@ 0x128
  40139c:	e3550000 	cmp	r5, #0
  4013a0:	0a000006 	beq	4013c0 <xTaskResumeAll+0x94>
  4013a4:	e3a06001 	mov	r6, #1
  4013a8:	ebffff74 	bl	401180 <xTaskIncrementTick>
  4013ac:	e3500000 	cmp	r0, #0
  4013b0:	1584611c 	strne	r6, [r4, #284]	@ 0x11c
  4013b4:	e2555001 	subs	r5, r5, #1
  4013b8:	1afffffa 	bne	4013a8 <xTaskResumeAll+0x7c>
  4013bc:	e5845128 	str	r5, [r4, #296]	@ 0x128
  4013c0:	e594311c 	ldr	r3, [r4, #284]	@ 0x11c
  4013c4:	e3530000 	cmp	r3, #0
  4013c8:	0affffe0 	beq	401350 <xTaskResumeAll+0x24>
  4013cc:	e594300c 	ldr	r3, [r4, #12]
  4013d0:	ef000000 	svc	0x00000000
  4013d4:	e3a04001 	mov	r4, #1
  4013d8:	eaffffdd 	b	401354 <xTaskResumeAll+0x28>
  4013dc:	e59c300c 	ldr	r3, [ip, #12]
  4013e0:	e5932028 	ldr	r2, [r3, #40]	@ 0x28
  4013e4:	e283001c 	add	r0, r3, #28
  4013e8:	e8900003 	ldm	r0, {r0, r1}
  4013ec:	e5928004 	ldr	r8, [r2, #4]
  4013f0:	e5801008 	str	r1, [r0, #8]
  4013f4:	e5810004 	str	r0, [r1, #4]
  4013f8:	e2830018 	add	r0, r3, #24
  4013fc:	e1580000 	cmp	r8, r0
  401400:	05821004 	streq	r1, [r2, #4]
  401404:	e5921000 	ldr	r1, [r2]
  401408:	e2830008 	add	r0, r3, #8
  40140c:	e2411001 	sub	r1, r1, #1
  401410:	e583e028 	str	lr, [r3, #40]	@ 0x28
  401414:	e5821000 	str	r1, [r2]
  401418:	e5932014 	ldr	r2, [r3, #20]
  40141c:	e8900003 	ldm	r0, {r0, r1}
  401420:	e5801008 	str	r1, [r0, #8]
  401424:	e5810004 	str	r0, [r1, #4]
  401428:	e5920004 	ldr	r0, [r2, #4]
  40142c:	e2839004 	add	r9, r3, #4
  401430:	e1500009 	cmp	r0, r9
  401434:	05821004 	streq	r1, [r2, #4]
  401438:	e5921000 	ldr	r1, [r2]
  40143c:	e2411001 	sub	r1, r1, #1
  401440:	e5821000 	str	r1, [r2]
  401444:	e593202c 	ldr	r2, [r3, #44]	@ 0x2c
  401448:	e5941114 	ldr	r1, [r4, #276]	@ 0x114
  40144c:	e1520001 	cmp	r2, r1
  401450:	e0010295 	mul	r1, r5, r2
  401454:	e0840001 	add	r0, r4, r1
  401458:	e590805c 	ldr	r8, [r0, #92]	@ 0x5c
  40145c:	e598a008 	ldr	sl, [r8, #8]
  401460:	e0861001 	add	r1, r6, r1
  401464:	e5838008 	str	r8, [r3, #8]
  401468:	e583a00c 	str	sl, [r3, #12]
  40146c:	e58a9004 	str	r9, [sl, #4]
  401470:	e5889008 	str	r9, [r8, #8]
  401474:	e5831014 	str	r1, [r3, #20]
  401478:	e5901058 	ldr	r1, [r0, #88]	@ 0x58
  40147c:	85842114 	strhi	r2, [r4, #276]	@ 0x114
  401480:	e2811001 	add	r1, r1, #1
  401484:	e5801058 	str	r1, [r0, #88]	@ 0x58
  401488:	e594100c 	ldr	r1, [r4, #12]
  40148c:	e591102c 	ldr	r1, [r1, #44]	@ 0x2c
  401490:	e1520001 	cmp	r2, r1
  401494:	8584711c 	strhi	r7, [r4, #284]	@ 0x11c
  401498:	eaffffb9 	b	401384 <xTaskResumeAll+0x58>
  40149c:	00405ce0 	subeq	r5, r0, r0, ror #25

004014a0 <xTaskDelayUntil>:
  4014a0:	e92d4010 	push	{r4, lr}
  4014a4:	ebffff18 	bl	40110c <vTaskSuspendAll>
  4014a8:	e59f3074 	ldr	r3, [pc, #116]	@ 401524 <xTaskDelayUntil+0x84>
  4014ac:	e590c000 	ldr	ip, [r0]
  4014b0:	e5932000 	ldr	r2, [r3]
  4014b4:	e09c3001 	adds	r3, ip, r1
  4014b8:	23a01001 	movcs	r1, #1
  4014bc:	33a01000 	movcc	r1, #0
  4014c0:	e15c0002 	cmp	ip, r2
  4014c4:	9a00000c 	bls	4014fc <xTaskDelayUntil+0x5c>
  4014c8:	e3510000 	cmp	r1, #0
  4014cc:	0a000001 	beq	4014d8 <xTaskDelayUntil+0x38>
  4014d0:	e1520003 	cmp	r2, r3
  4014d4:	3a00000c 	bcc	40150c <xTaskDelayUntil+0x6c>
  4014d8:	e3a04000 	mov	r4, #0
  4014dc:	e5803000 	str	r3, [r0]
  4014e0:	ebffff91 	bl	40132c <xTaskResumeAll>
  4014e4:	e3500000 	cmp	r0, #0
  4014e8:	1a000000 	bne	4014f0 <xTaskDelayUntil+0x50>
  4014ec:	ef000000 	svc	0x00000000
  4014f0:	e1a00004 	mov	r0, r4
  4014f4:	e8bd4010 	pop	{r4, lr}
  4014f8:	e12fff1e 	bx	lr
  4014fc:	e1520003 	cmp	r2, r3
  401500:	33811001 	orrcc	r1, r1, #1
  401504:	e3510000 	cmp	r1, #0
  401508:	0afffff2 	beq	4014d8 <xTaskDelayUntil+0x38>
  40150c:	e5803000 	str	r3, [r0]
  401510:	e3a01000 	mov	r1, #0
  401514:	e0430002 	sub	r0, r3, r2
  401518:	ebfffcdd 	bl	400894 <prvAddCurrentTaskToDelayedList>
  40151c:	e3a04001 	mov	r4, #1
  401520:	eaffffee 	b	4014e0 <xTaskDelayUntil+0x40>
  401524:	00405ce0 	subeq	r5, r0, r0, ror #25

00401528 <vTaskDelay>:
  401528:	e3500000 	cmp	r0, #0
  40152c:	1a000001 	bne	401538 <vTaskDelay+0x10>
  401530:	ef000000 	svc	0x00000000
  401534:	e12fff1e 	bx	lr
  401538:	e92d4010 	push	{r4, lr}
  40153c:	e3a01000 	mov	r1, #0
  401540:	ebfffef1 	bl	40110c <vTaskSuspendAll>
  401544:	ebfffcd2 	bl	400894 <prvAddCurrentTaskToDelayedList>
  401548:	ebffff77 	bl	40132c <xTaskResumeAll>
  40154c:	e3500000 	cmp	r0, #0
  401550:	1a000000 	bne	401558 <vTaskDelay+0x30>
  401554:	ef000000 	svc	0x00000000
  401558:	e8bd4010 	pop	{r4, lr}
  40155c:	e12fff1e 	bx	lr

00401560 <xTaskCatchUpTicks>:
  401560:	e92d4010 	push	{r4, lr}
  401564:	e1a04000 	mov	r4, r0
  401568:	ebfffee7 	bl	40110c <vTaskSuspendAll>
  40156c:	eb0003ea 	bl	40251c <vPortEnterCritical>
  401570:	e59f2014 	ldr	r2, [pc, #20]	@ 40158c <xTaskCatchUpTicks+0x2c>
  401574:	e5923128 	ldr	r3, [r2, #296]	@ 0x128
  401578:	e0830004 	add	r0, r3, r4
  40157c:	e5820128 	str	r0, [r2, #296]	@ 0x128
  401580:	eb0003f0 	bl	402548 <vPortExitCritical>
  401584:	e8bd4010 	pop	{r4, lr}
  401588:	eaffff67 	b	40132c <xTaskResumeAll>
  40158c:	00405ce0 	subeq	r5, r0, r0, ror #25

00401590 <vTaskSwitchContext>:
  401590:	e59f3088 	ldr	r3, [pc, #136]	@ 401620 <vTaskSwitchContext+0x90>
  401594:	e5932118 	ldr	r2, [r3, #280]	@ 0x118
  401598:	e3520000 	cmp	r2, #0
  40159c:	0a000002 	beq	4015ac <vTaskSwitchContext+0x1c>
  4015a0:	e3a02001 	mov	r2, #1
  4015a4:	e583211c 	str	r2, [r3, #284]	@ 0x11c
  4015a8:	e12fff1e 	bx	lr
  4015ac:	e52de004 	push	{lr}		@ (str lr, [sp, #-4]!)
  4015b0:	e3a0e014 	mov	lr, #20
  4015b4:	e583211c 	str	r2, [r3, #284]	@ 0x11c
  4015b8:	e5932114 	ldr	r2, [r3, #276]	@ 0x114
  4015bc:	e283c058 	add	ip, r3, #88	@ 0x58
  4015c0:	e001029e 	mul	r1, lr, r2
  4015c4:	e791000c 	ldr	r0, [r1, ip]
  4015c8:	e3500000 	cmp	r0, #0
  4015cc:	0a000011 	beq	401618 <vTaskSwitchContext+0x88>
  4015d0:	e0830001 	add	r0, r3, r1
  4015d4:	e590e05c 	ldr	lr, [r0, #92]	@ 0x5c
  4015d8:	e2811008 	add	r1, r1, #8
  4015dc:	e59ee004 	ldr	lr, [lr, #4]
  4015e0:	e08cc001 	add	ip, ip, r1
  4015e4:	e15e000c 	cmp	lr, ip
  4015e8:	05901064 	ldreq	r1, [r0, #100]	@ 0x64
  4015ec:	e580e05c 	str	lr, [r0, #92]	@ 0x5c
  4015f0:	0580105c 	streq	r1, [r0, #92]	@ 0x5c
  4015f4:	e3a01014 	mov	r1, #20
  4015f8:	e0213192 	mla	r1, r2, r1, r3
  4015fc:	e591105c 	ldr	r1, [r1, #92]	@ 0x5c
  401600:	e591100c 	ldr	r1, [r1, #12]
  401604:	e583100c 	str	r1, [r3, #12]
  401608:	e5832114 	str	r2, [r3, #276]	@ 0x114
  40160c:	e49de004 	pop	{lr}		@ (ldr lr, [sp], #4)
  401610:	e593300c 	ldr	r3, [r3, #12]
  401614:	e12fff1e 	bx	lr
  401618:	e2422001 	sub	r2, r2, #1
  40161c:	eaffffe7 	b	4015c0 <vTaskSwitchContext+0x30>
  401620:	00405ce0 	subeq	r5, r0, r0, ror #25

00401624 <vTaskSuspend>:
  401624:	e92d4070 	push	{r4, r5, r6, lr}
  401628:	e1a04000 	mov	r4, r0
  40162c:	e59f509c 	ldr	r5, [pc, #156]	@ 4016d0 <vTaskSuspend+0xac>
  401630:	eb0003b9 	bl	40251c <vPortEnterCritical>
  401634:	e3540000 	cmp	r4, #0
  401638:	0595400c 	ldreq	r4, [r5, #12]
  40163c:	e2846004 	add	r6, r4, #4
  401640:	e1a00006 	mov	r0, r6
  401644:	eb0003ff 	bl	402648 <uxListRemove>
  401648:	e5943028 	ldr	r3, [r4, #40]	@ 0x28
  40164c:	e3530000 	cmp	r3, #0
  401650:	12840018 	addne	r0, r4, #24
  401654:	1b0003fb 	blne	402648 <uxListRemove>
  401658:	e1a01006 	mov	r1, r6
  40165c:	e59f0070 	ldr	r0, [pc, #112]	@ 4016d4 <vTaskSuspend+0xb0>
  401660:	eb0003d7 	bl	4025c4 <vListInsertEnd>
  401664:	e5d43048 	ldrb	r3, [r4, #72]	@ 0x48
  401668:	e3530001 	cmp	r3, #1
  40166c:	03a03000 	moveq	r3, #0
  401670:	05c43048 	strbeq	r3, [r4, #72]	@ 0x48
  401674:	eb0003b3 	bl	402548 <vPortExitCritical>
  401678:	e595310c 	ldr	r3, [r5, #268]	@ 0x10c
  40167c:	e3530000 	cmp	r3, #0
  401680:	0a000002 	beq	401690 <vTaskSuspend+0x6c>
  401684:	eb0003a4 	bl	40251c <vPortEnterCritical>
  401688:	ebfffcc8 	bl	4009b0 <prvResetNextTaskUnblockTime>
  40168c:	eb0003ad 	bl	402548 <vPortExitCritical>
  401690:	e595300c 	ldr	r3, [r5, #12]
  401694:	e1530004 	cmp	r3, r4
  401698:	1a000003 	bne	4016ac <vTaskSuspend+0x88>
  40169c:	e595310c 	ldr	r3, [r5, #268]	@ 0x10c
  4016a0:	e3530000 	cmp	r3, #0
  4016a4:	0a000002 	beq	4016b4 <vTaskSuspend+0x90>
  4016a8:	ef000000 	svc	0x00000000
  4016ac:	e8bd4070 	pop	{r4, r5, r6, lr}
  4016b0:	e12fff1e 	bx	lr
  4016b4:	e5951050 	ldr	r1, [r5, #80]	@ 0x50
  4016b8:	e5952010 	ldr	r2, [r5, #16]
  4016bc:	e1510002 	cmp	r1, r2
  4016c0:	0585300c 	streq	r3, [r5, #12]
  4016c4:	0afffff8 	beq	4016ac <vTaskSuspend+0x88>
  4016c8:	e8bd4070 	pop	{r4, r5, r6, lr}
  4016cc:	eaffffaf 	b	401590 <vTaskSwitchContext>
  4016d0:	00405ce0 	subeq	r5, r0, r0, ror #25
  4016d4:	00405cf0 	strdeq	r5, [r0], #-192	@ 0xffffff40

004016d8 <vTaskPlaceOnEventList>:
  4016d8:	e92d4010 	push	{r4, lr}
  4016dc:	e1a04001 	mov	r4, r1
  4016e0:	e59f3018 	ldr	r3, [pc, #24]	@ 401700 <vTaskPlaceOnEventList+0x28>
  4016e4:	e593100c 	ldr	r1, [r3, #12]
  4016e8:	e2811018 	add	r1, r1, #24
  4016ec:	eb0003bf 	bl	4025f0 <vListInsert>
  4016f0:	e1a00004 	mov	r0, r4
  4016f4:	e3a01001 	mov	r1, #1
  4016f8:	e8bd4010 	pop	{r4, lr}
  4016fc:	eafffc64 	b	400894 <prvAddCurrentTaskToDelayedList>
  401700:	00405ce0 	subeq	r5, r0, r0, ror #25

00401704 <vTaskPlaceOnUnorderedEventList>:
  401704:	e1a03000 	mov	r3, r0
  401708:	e59fc060 	ldr	ip, [pc, #96]	@ 401770 <vTaskPlaceOnUnorderedEventList+0x6c>
  40170c:	e59c000c 	ldr	r0, [ip, #12]
  401710:	e3811102 	orr	r1, r1, #-2147483648	@ 0x80000000
  401714:	e92d4010 	push	{r4, lr}
  401718:	e5801018 	str	r1, [r0, #24]
  40171c:	e5931004 	ldr	r1, [r3, #4]
  401720:	e59c000c 	ldr	r0, [ip, #12]
  401724:	e580101c 	str	r1, [r0, #28]
  401728:	e59c000c 	ldr	r0, [ip, #12]
  40172c:	e59ce00c 	ldr	lr, [ip, #12]
  401730:	e5914008 	ldr	r4, [r1, #8]
  401734:	e28ee018 	add	lr, lr, #24
  401738:	e5804020 	str	r4, [r0, #32]
  40173c:	e584e004 	str	lr, [r4, #4]
  401740:	e59ce00c 	ldr	lr, [ip, #12]
  401744:	e28ee018 	add	lr, lr, #24
  401748:	e581e008 	str	lr, [r1, #8]
  40174c:	e59c100c 	ldr	r1, [ip, #12]
  401750:	e5813028 	str	r3, [r1, #40]	@ 0x28
  401754:	e5931000 	ldr	r1, [r3]
  401758:	e2811001 	add	r1, r1, #1
  40175c:	e5831000 	str	r1, [r3]
  401760:	e1a00002 	mov	r0, r2
  401764:	e3a01001 	mov	r1, #1
  401768:	e8bd4010 	pop	{r4, lr}
  40176c:	eafffc48 	b	400894 <prvAddCurrentTaskToDelayedList>
  401770:	00405ce0 	subeq	r5, r0, r0, ror #25

00401774 <xTaskRemoveFromEventList>:
  401774:	e590300c 	ldr	r3, [r0, #12]
  401778:	e593300c 	ldr	r3, [r3, #12]
  40177c:	e283001c 	add	r0, r3, #28
  401780:	e5932028 	ldr	r2, [r3, #40]	@ 0x28
  401784:	e8900003 	ldm	r0, {r0, r1}
  401788:	e92d4030 	push	{r4, r5, lr}
  40178c:	e5801008 	str	r1, [r0, #8]
  401790:	e5810004 	str	r0, [r1, #4]
  401794:	e5920004 	ldr	r0, [r2, #4]
  401798:	e283c018 	add	ip, r3, #24
  40179c:	e150000c 	cmp	r0, ip
  4017a0:	05821004 	streq	r1, [r2, #4]
  4017a4:	e3a01000 	mov	r1, #0
  4017a8:	e5831028 	str	r1, [r3, #40]	@ 0x28
  4017ac:	e5921000 	ldr	r1, [r2]
  4017b0:	e2411001 	sub	r1, r1, #1
  4017b4:	e5821000 	str	r1, [r2]
  4017b8:	e59f20d4 	ldr	r2, [pc, #212]	@ 401894 <xTaskRemoveFromEventList+0x120>
  4017bc:	e5921118 	ldr	r1, [r2, #280]	@ 0x118
  4017c0:	e3510000 	cmp	r1, #0
  4017c4:	e593102c 	ldr	r1, [r3, #44]	@ 0x2c
  4017c8:	1a000025 	bne	401864 <xTaskRemoveFromEventList+0xf0>
  4017cc:	e5930014 	ldr	r0, [r3, #20]
  4017d0:	e593e008 	ldr	lr, [r3, #8]
  4017d4:	e593c00c 	ldr	ip, [r3, #12]
  4017d8:	e58ec008 	str	ip, [lr, #8]
  4017dc:	e58ce004 	str	lr, [ip, #4]
  4017e0:	e590e004 	ldr	lr, [r0, #4]
  4017e4:	e2834004 	add	r4, r3, #4
  4017e8:	e15e0004 	cmp	lr, r4
  4017ec:	0580c004 	streq	ip, [r0, #4]
  4017f0:	e590c000 	ldr	ip, [r0]
  4017f4:	e24cc001 	sub	ip, ip, #1
  4017f8:	e580c000 	str	ip, [r0]
  4017fc:	e5920114 	ldr	r0, [r2, #276]	@ 0x114
  401800:	e1510000 	cmp	r1, r0
  401804:	e3a00014 	mov	r0, #20
  401808:	e0000091 	mul	r0, r1, r0
  40180c:	e082c000 	add	ip, r2, r0
  401810:	e59ce05c 	ldr	lr, [ip, #92]	@ 0x5c
  401814:	e59e5008 	ldr	r5, [lr, #8]
  401818:	e583e008 	str	lr, [r3, #8]
  40181c:	e583500c 	str	r5, [r3, #12]
  401820:	e5854004 	str	r4, [r5, #4]
  401824:	e58e4008 	str	r4, [lr, #8]
  401828:	e59fe068 	ldr	lr, [pc, #104]	@ 401898 <xTaskRemoveFromEventList+0x124>
  40182c:	e08e0000 	add	r0, lr, r0
  401830:	e5830014 	str	r0, [r3, #20]
  401834:	e59c3058 	ldr	r3, [ip, #88]	@ 0x58
  401838:	e2833001 	add	r3, r3, #1
  40183c:	85821114 	strhi	r1, [r2, #276]	@ 0x114
  401840:	e58c3058 	str	r3, [ip, #88]	@ 0x58
  401844:	e592300c 	ldr	r3, [r2, #12]
  401848:	e593302c 	ldr	r3, [r3, #44]	@ 0x2c
  40184c:	e1510003 	cmp	r1, r3
  401850:	83a00001 	movhi	r0, #1
  401854:	93a00000 	movls	r0, #0
  401858:	8582011c 	strhi	r0, [r2, #284]	@ 0x11c
  40185c:	e8bd4030 	pop	{r4, r5, lr}
  401860:	e12fff1e 	bx	lr
  401864:	e592002c 	ldr	r0, [r2, #44]	@ 0x2c
  401868:	e590e008 	ldr	lr, [r0, #8]
  40186c:	e583001c 	str	r0, [r3, #28]
  401870:	e583e020 	str	lr, [r3, #32]
  401874:	e58ec004 	str	ip, [lr, #4]
  401878:	e580c008 	str	ip, [r0, #8]
  40187c:	e2820028 	add	r0, r2, #40	@ 0x28
  401880:	e5830028 	str	r0, [r3, #40]	@ 0x28
  401884:	e5923028 	ldr	r3, [r2, #40]	@ 0x28
  401888:	e2833001 	add	r3, r3, #1
  40188c:	e5823028 	str	r3, [r2, #40]	@ 0x28
  401890:	eaffffeb 	b	401844 <xTaskRemoveFromEventList+0xd0>
  401894:	00405ce0 	subeq	r5, r0, r0, ror #25
  401898:	00405d38 	subeq	r5, r0, r8, lsr sp

0040189c <vTaskRemoveFromUnorderedEventList>:
  40189c:	e3811102 	orr	r1, r1, #-2147483648	@ 0x80000000
  4018a0:	e92d4030 	push	{r4, r5, lr}
  4018a4:	e5902010 	ldr	r2, [r0, #16]
  4018a8:	e5801000 	str	r1, [r0]
  4018ac:	e590c004 	ldr	ip, [r0, #4]
  4018b0:	e5901008 	ldr	r1, [r0, #8]
  4018b4:	e590300c 	ldr	r3, [r0, #12]
  4018b8:	e58c1008 	str	r1, [ip, #8]
  4018bc:	e581c004 	str	ip, [r1, #4]
  4018c0:	e592c004 	ldr	ip, [r2, #4]
  4018c4:	e15c0000 	cmp	ip, r0
  4018c8:	05821004 	streq	r1, [r2, #4]
  4018cc:	e3a01000 	mov	r1, #0
  4018d0:	e5801010 	str	r1, [r0, #16]
  4018d4:	e5921000 	ldr	r1, [r2]
  4018d8:	e2830008 	add	r0, r3, #8
  4018dc:	e2411001 	sub	r1, r1, #1
  4018e0:	e5821000 	str	r1, [r2]
  4018e4:	e8900003 	ldm	r0, {r0, r1}
  4018e8:	e5932014 	ldr	r2, [r3, #20]
  4018ec:	e5801008 	str	r1, [r0, #8]
  4018f0:	e5810004 	str	r0, [r1, #4]
  4018f4:	e5920004 	ldr	r0, [r2, #4]
  4018f8:	e2834004 	add	r4, r3, #4
  4018fc:	e1500004 	cmp	r0, r4
  401900:	05821004 	streq	r1, [r2, #4]
  401904:	e5921000 	ldr	r1, [r2]
  401908:	e2411001 	sub	r1, r1, #1
  40190c:	e5821000 	str	r1, [r2]
  401910:	e59f2064 	ldr	r2, [pc, #100]	@ 40197c <vTaskRemoveFromUnorderedEventList+0xe0>
  401914:	e593102c 	ldr	r1, [r3, #44]	@ 0x2c
  401918:	e5920114 	ldr	r0, [r2, #276]	@ 0x114
  40191c:	e1510000 	cmp	r1, r0
  401920:	e3a00014 	mov	r0, #20
  401924:	e0000091 	mul	r0, r1, r0
  401928:	e082c000 	add	ip, r2, r0
  40192c:	e59ce05c 	ldr	lr, [ip, #92]	@ 0x5c
  401930:	e59e5008 	ldr	r5, [lr, #8]
  401934:	e583e008 	str	lr, [r3, #8]
  401938:	e583500c 	str	r5, [r3, #12]
  40193c:	e5854004 	str	r4, [r5, #4]
  401940:	e58e4008 	str	r4, [lr, #8]
  401944:	e59fe034 	ldr	lr, [pc, #52]	@ 401980 <vTaskRemoveFromUnorderedEventList+0xe4>
  401948:	e08e0000 	add	r0, lr, r0
  40194c:	85821114 	strhi	r1, [r2, #276]	@ 0x114
  401950:	e5830014 	str	r0, [r3, #20]
  401954:	e59c3058 	ldr	r3, [ip, #88]	@ 0x58
  401958:	e2833001 	add	r3, r3, #1
  40195c:	e58c3058 	str	r3, [ip, #88]	@ 0x58
  401960:	e592300c 	ldr	r3, [r2, #12]
  401964:	e593302c 	ldr	r3, [r3, #44]	@ 0x2c
  401968:	e1510003 	cmp	r1, r3
  40196c:	83a03001 	movhi	r3, #1
  401970:	e8bd4030 	pop	{r4, r5, lr}
  401974:	8582311c 	strhi	r3, [r2, #284]	@ 0x11c
  401978:	e12fff1e 	bx	lr
  40197c:	00405ce0 	subeq	r5, r0, r0, ror #25
  401980:	00405d38 	subeq	r5, r0, r8, lsr sp

00401984 <vTaskSetTimeOutState>:
  401984:	e92d4010 	push	{r4, lr}
  401988:	e1a04000 	mov	r4, r0
  40198c:	eb0002e2 	bl	40251c <vPortEnterCritical>
  401990:	e59f3018 	ldr	r3, [pc, #24]	@ 4019b0 <vTaskSetTimeOutState+0x2c>
  401994:	e5932124 	ldr	r2, [r3, #292]	@ 0x124
  401998:	e5933000 	ldr	r3, [r3]
  40199c:	e5842000 	str	r2, [r4]
  4019a0:	e5843004 	str	r3, [r4, #4]
  4019a4:	eb0002e7 	bl	402548 <vPortExitCritical>
  4019a8:	e8bd4010 	pop	{r4, lr}
  4019ac:	e12fff1e 	bx	lr
  4019b0:	00405ce0 	subeq	r5, r0, r0, ror #25

004019b4 <vTaskInternalSetTimeOutState>:
  4019b4:	e59f3010 	ldr	r3, [pc, #16]	@ 4019cc <vTaskInternalSetTimeOutState+0x18>
  4019b8:	e5932124 	ldr	r2, [r3, #292]	@ 0x124
  4019bc:	e5933000 	ldr	r3, [r3]
  4019c0:	e5802000 	str	r2, [r0]
  4019c4:	e5803004 	str	r3, [r0, #4]
  4019c8:	e12fff1e 	bx	lr
  4019cc:	00405ce0 	subeq	r5, r0, r0, ror #25

004019d0 <xTaskCheckForTimeOut>:
  4019d0:	e92d4070 	push	{r4, r5, r6, lr}
  4019d4:	e1a05001 	mov	r5, r1
  4019d8:	e1a04000 	mov	r4, r0
  4019dc:	eb0002ce 	bl	40251c <vPortEnterCritical>
  4019e0:	e5953000 	ldr	r3, [r5]
  4019e4:	e59f0070 	ldr	r0, [pc, #112]	@ 401a5c <xTaskCheckForTimeOut+0x8c>
  4019e8:	e3730001 	cmn	r3, #1
  4019ec:	e5901000 	ldr	r1, [r0]
  4019f0:	0a000017 	beq	401a54 <xTaskCheckForTimeOut+0x84>
  4019f4:	e590c124 	ldr	ip, [r0, #292]	@ 0x124
  4019f8:	e5940000 	ldr	r0, [r4]
  4019fc:	e5942004 	ldr	r2, [r4, #4]
  401a00:	e050000c 	subs	r0, r0, ip
  401a04:	13a00001 	movne	r0, #1
  401a08:	e1520001 	cmp	r2, r1
  401a0c:	83a00000 	movhi	r0, #0
  401a10:	e3500000 	cmp	r0, #0
  401a14:	0a000006 	beq	401a34 <xTaskCheckForTimeOut+0x64>
  401a18:	e3a03000 	mov	r3, #0
  401a1c:	e3a04001 	mov	r4, #1
  401a20:	e5853000 	str	r3, [r5]
  401a24:	eb0002c7 	bl	402548 <vPortExitCritical>
  401a28:	e1a00004 	mov	r0, r4
  401a2c:	e8bd4070 	pop	{r4, r5, r6, lr}
  401a30:	e12fff1e 	bx	lr
  401a34:	e0410002 	sub	r0, r1, r2
  401a38:	e1530000 	cmp	r3, r0
  401a3c:	9afffff5 	bls	401a18 <xTaskCheckForTimeOut+0x48>
  401a40:	e0433001 	sub	r3, r3, r1
  401a44:	e0833002 	add	r3, r3, r2
  401a48:	e1a00004 	mov	r0, r4
  401a4c:	e5853000 	str	r3, [r5]
  401a50:	ebffffd7 	bl	4019b4 <vTaskInternalSetTimeOutState>
  401a54:	e3a04000 	mov	r4, #0
  401a58:	eafffff1 	b	401a24 <xTaskCheckForTimeOut+0x54>
  401a5c:	00405ce0 	subeq	r5, r0, r0, ror #25

00401a60 <vTaskMissedYield>:
  401a60:	e3a02001 	mov	r2, #1
  401a64:	e59f3004 	ldr	r3, [pc, #4]	@ 401a70 <vTaskMissedYield+0x10>
  401a68:	e583211c 	str	r2, [r3, #284]	@ 0x11c
  401a6c:	e12fff1e 	bx	lr
  401a70:	00405ce0 	subeq	r5, r0, r0, ror #25

00401a74 <xTaskGetCurrentTaskHandle>:
  401a74:	e59f3004 	ldr	r3, [pc, #4]	@ 401a80 <xTaskGetCurrentTaskHandle+0xc>
  401a78:	e593000c 	ldr	r0, [r3, #12]
  401a7c:	e12fff1e 	bx	lr
  401a80:	00405ce0 	subeq	r5, r0, r0, ror #25

00401a84 <xTaskGetCurrentTaskHandleForCore>:
  401a84:	e3500000 	cmp	r0, #0
  401a88:	059f3008 	ldreq	r3, [pc, #8]	@ 401a98 <xTaskGetCurrentTaskHandleForCore+0x14>
  401a8c:	0593000c 	ldreq	r0, [r3, #12]
  401a90:	13a00000 	movne	r0, #0
  401a94:	e12fff1e 	bx	lr
  401a98:	00405ce0 	subeq	r5, r0, r0, ror #25

00401a9c <uxTaskResetEventItemValue>:
  401a9c:	e59f301c 	ldr	r3, [pc, #28]	@ 401ac0 <uxTaskResetEventItemValue+0x24>
  401aa0:	e593200c 	ldr	r2, [r3, #12]
  401aa4:	e593100c 	ldr	r1, [r3, #12]
  401aa8:	e5920018 	ldr	r0, [r2, #24]
  401aac:	e593200c 	ldr	r2, [r3, #12]
  401ab0:	e591302c 	ldr	r3, [r1, #44]	@ 0x2c
  401ab4:	e2633007 	rsb	r3, r3, #7
  401ab8:	e5823018 	str	r3, [r2, #24]
  401abc:	e12fff1e 	bx	lr
  401ac0:	00405ce0 	subeq	r5, r0, r0, ror #25

00401ac4 <ulTaskGenericNotifyTake>:
  401ac4:	e92d47f0 	push	{r4, r5, r6, r7, r8, r9, sl, lr}
  401ac8:	e1a05000 	mov	r5, r0
  401acc:	e59f40c0 	ldr	r4, [pc, #192]	@ 401b94 <ulTaskGenericNotifyTake+0xd0>
  401ad0:	e1a06002 	mov	r6, r2
  401ad4:	e1a07001 	mov	r7, r1
  401ad8:	ebfffd8b 	bl	40110c <vTaskSuspendAll>
  401adc:	eb00028e 	bl	40251c <vPortEnterCritical>
  401ae0:	e594300c 	ldr	r3, [r4, #12]
  401ae4:	e2858010 	add	r8, r5, #16
  401ae8:	e0833108 	add	r3, r3, r8, lsl #2
  401aec:	e5933004 	ldr	r3, [r3, #4]
  401af0:	e3530000 	cmp	r3, #0
  401af4:	0a000017 	beq	401b58 <ulTaskGenericNotifyTake+0x94>
  401af8:	eb000292 	bl	402548 <vPortExitCritical>
  401afc:	ebfffe0a 	bl	40132c <xTaskResumeAll>
  401b00:	eb000285 	bl	40251c <vPortEnterCritical>
  401b04:	e594300c 	ldr	r3, [r4, #12]
  401b08:	e0833108 	add	r3, r3, r8, lsl #2
  401b0c:	e5936004 	ldr	r6, [r3, #4]
  401b10:	e3560000 	cmp	r6, #0
  401b14:	e1a01108 	lsl	r1, r8, #2
  401b18:	0a000006 	beq	401b38 <ulTaskGenericNotifyTake+0x74>
  401b1c:	e3570000 	cmp	r7, #0
  401b20:	13a02000 	movne	r2, #0
  401b24:	e594300c 	ldr	r3, [r4, #12]
  401b28:	02462001 	subeq	r2, r6, #1
  401b2c:	10833001 	addne	r3, r3, r1
  401b30:	00833001 	addeq	r3, r3, r1
  401b34:	e5832004 	str	r2, [r3, #4]
  401b38:	e3a02000 	mov	r2, #0
  401b3c:	e594300c 	ldr	r3, [r4, #12]
  401b40:	e0833005 	add	r3, r3, r5
  401b44:	e5c32048 	strb	r2, [r3, #72]	@ 0x48
  401b48:	eb00027e 	bl	402548 <vPortExitCritical>
  401b4c:	e1a00006 	mov	r0, r6
  401b50:	e8bd47f0 	pop	{r4, r5, r6, r7, r8, r9, sl, lr}
  401b54:	e12fff1e 	bx	lr
  401b58:	e3a09001 	mov	r9, #1
  401b5c:	e594300c 	ldr	r3, [r4, #12]
  401b60:	e3560000 	cmp	r6, #0
  401b64:	e0833005 	add	r3, r3, r5
  401b68:	e5c39048 	strb	r9, [r3, #72]	@ 0x48
  401b6c:	0affffe1 	beq	401af8 <ulTaskGenericNotifyTake+0x34>
  401b70:	eb000274 	bl	402548 <vPortExitCritical>
  401b74:	e1a01009 	mov	r1, r9
  401b78:	e1a00006 	mov	r0, r6
  401b7c:	ebfffb44 	bl	400894 <prvAddCurrentTaskToDelayedList>
  401b80:	ebfffde9 	bl	40132c <xTaskResumeAll>
  401b84:	e3500000 	cmp	r0, #0
  401b88:	1affffdc 	bne	401b00 <ulTaskGenericNotifyTake+0x3c>
  401b8c:	ef000000 	svc	0x00000000
  401b90:	eaffffda 	b	401b00 <ulTaskGenericNotifyTake+0x3c>
  401b94:	00405ce0 	subeq	r5, r0, r0, ror #25

00401b98 <xTaskGenericNotifyWait>:
  401b98:	e92d47f0 	push	{r4, r5, r6, r7, r8, r9, sl, lr}
  401b9c:	e1a04000 	mov	r4, r0
  401ba0:	e59f50ec 	ldr	r5, [pc, #236]	@ 401c94 <xTaskGenericNotifyWait+0xfc>
  401ba4:	e1a06003 	mov	r6, r3
  401ba8:	e1a07002 	mov	r7, r2
  401bac:	e1a09001 	mov	r9, r1
  401bb0:	e59d8020 	ldr	r8, [sp, #32]
  401bb4:	ebfffd54 	bl	40110c <vTaskSuspendAll>
  401bb8:	eb000257 	bl	40251c <vPortEnterCritical>
  401bbc:	e595300c 	ldr	r3, [r5, #12]
  401bc0:	e0833004 	add	r3, r3, r4
  401bc4:	e5d33048 	ldrb	r3, [r3, #72]	@ 0x48
  401bc8:	e3530002 	cmp	r3, #2
  401bcc:	1a00001c 	bne	401c44 <xTaskGenericNotifyWait+0xac>
  401bd0:	eb00025c 	bl	402548 <vPortExitCritical>
  401bd4:	ebfffdd4 	bl	40132c <xTaskResumeAll>
  401bd8:	eb00024f 	bl	40251c <vPortEnterCritical>
  401bdc:	e3560000 	cmp	r6, #0
  401be0:	0a000004 	beq	401bf8 <xTaskGenericNotifyWait+0x60>
  401be4:	e595300c 	ldr	r3, [r5, #12]
  401be8:	e2842010 	add	r2, r4, #16
  401bec:	e0833102 	add	r3, r3, r2, lsl #2
  401bf0:	e5933004 	ldr	r3, [r3, #4]
  401bf4:	e5863000 	str	r3, [r6]
  401bf8:	e595300c 	ldr	r3, [r5, #12]
  401bfc:	e0833004 	add	r3, r3, r4
  401c00:	e5d33048 	ldrb	r3, [r3, #72]	@ 0x48
  401c04:	e3530002 	cmp	r3, #2
  401c08:	0595300c 	ldreq	r3, [r5, #12]
  401c0c:	00833104 	addeq	r3, r3, r4, lsl #2
  401c10:	05932044 	ldreq	r2, [r3, #68]	@ 0x44
  401c14:	01c22007 	biceq	r2, r2, r7
  401c18:	05832044 	streq	r2, [r3, #68]	@ 0x44
  401c1c:	e3a02000 	mov	r2, #0
  401c20:	03a06001 	moveq	r6, #1
  401c24:	13a06000 	movne	r6, #0
  401c28:	e595300c 	ldr	r3, [r5, #12]
  401c2c:	e0833004 	add	r3, r3, r4
  401c30:	e5c32048 	strb	r2, [r3, #72]	@ 0x48
  401c34:	eb000243 	bl	402548 <vPortExitCritical>
  401c38:	e1a00006 	mov	r0, r6
  401c3c:	e8bd47f0 	pop	{r4, r5, r6, r7, r8, r9, sl, lr}
  401c40:	e12fff1e 	bx	lr
  401c44:	e595300c 	ldr	r3, [r5, #12]
  401c48:	e0833104 	add	r3, r3, r4, lsl #2
  401c4c:	e5932044 	ldr	r2, [r3, #68]	@ 0x44
  401c50:	e1c21009 	bic	r1, r2, r9
  401c54:	e3a09001 	mov	r9, #1
  401c58:	e5831044 	str	r1, [r3, #68]	@ 0x44
  401c5c:	e595300c 	ldr	r3, [r5, #12]
  401c60:	e3580000 	cmp	r8, #0
  401c64:	e0833004 	add	r3, r3, r4
  401c68:	e5c39048 	strb	r9, [r3, #72]	@ 0x48
  401c6c:	0affffd7 	beq	401bd0 <xTaskGenericNotifyWait+0x38>
  401c70:	eb000234 	bl	402548 <vPortExitCritical>
  401c74:	e1a01009 	mov	r1, r9
  401c78:	e1a00008 	mov	r0, r8
  401c7c:	ebfffb04 	bl	400894 <prvAddCurrentTaskToDelayedList>
  401c80:	ebfffda9 	bl	40132c <xTaskResumeAll>
  401c84:	e3500000 	cmp	r0, #0
  401c88:	1affffd2 	bne	401bd8 <xTaskGenericNotifyWait+0x40>
  401c8c:	ef000000 	svc	0x00000000
  401c90:	eaffffd0 	b	401bd8 <xTaskGenericNotifyWait+0x40>
  401c94:	00405ce0 	subeq	r5, r0, r0, ror #25

00401c98 <xTaskGenericNotify>:
  401c98:	e92d41f0 	push	{r4, r5, r6, r7, r8, lr}
  401c9c:	e1a04001 	mov	r4, r1
  401ca0:	e1a06003 	mov	r6, r3
  401ca4:	e1a05000 	mov	r5, r0
  401ca8:	e59d8018 	ldr	r8, [sp, #24]
  401cac:	e1a07002 	mov	r7, r2
  401cb0:	eb000219 	bl	40251c <vPortEnterCritical>
  401cb4:	e3a01002 	mov	r1, #2
  401cb8:	e3580000 	cmp	r8, #0
  401cbc:	12843010 	addne	r3, r4, #16
  401cc0:	10853103 	addne	r3, r5, r3, lsl #2
  401cc4:	15933004 	ldrne	r3, [r3, #4]
  401cc8:	15883000 	strne	r3, [r8]
  401ccc:	e0853004 	add	r3, r5, r4
  401cd0:	e5d32048 	ldrb	r2, [r3, #72]	@ 0x48
  401cd4:	e5c31048 	strb	r1, [r3, #72]	@ 0x48
  401cd8:	e2463001 	sub	r3, r6, #1
  401cdc:	e20220ff 	and	r2, r2, #255	@ 0xff
  401ce0:	e3530003 	cmp	r3, #3
  401ce4:	979ff103 	ldrls	pc, [pc, r3, lsl #2]
  401ce8:	ea000007 	b	401d0c <xTaskGenericNotify+0x74>
  401cec:	00401cfc 	strdeq	r1, [r0], #-204	@ 0xffffff34
  401cf0:	00401dbc 	strheq	r1, [r0], #-220	@ 0xffffff24
  401cf4:	00401dd8 	ldrdeq	r1, [r0], #-216	@ 0xffffff28
  401cf8:	00401dcc 	subeq	r1, r0, ip, asr #27
  401cfc:	e0854104 	add	r4, r5, r4, lsl #2
  401d00:	e5943044 	ldr	r3, [r4, #68]	@ 0x44
  401d04:	e1833007 	orr	r3, r3, r7
  401d08:	e5843044 	str	r3, [r4, #68]	@ 0x44
  401d0c:	e3520001 	cmp	r2, #1
  401d10:	1a000024 	bne	401da8 <xTaskGenericNotify+0x110>
  401d14:	e2851008 	add	r1, r5, #8
  401d18:	e8910006 	ldm	r1, {r1, r2}
  401d1c:	e5953014 	ldr	r3, [r5, #20]
  401d20:	e5812008 	str	r2, [r1, #8]
  401d24:	e5821004 	str	r1, [r2, #4]
  401d28:	e5931004 	ldr	r1, [r3, #4]
  401d2c:	e285e004 	add	lr, r5, #4
  401d30:	e151000e 	cmp	r1, lr
  401d34:	05832004 	streq	r2, [r3, #4]
  401d38:	e5932000 	ldr	r2, [r3]
  401d3c:	e2422001 	sub	r2, r2, #1
  401d40:	e5832000 	str	r2, [r3]
  401d44:	e59f209c 	ldr	r2, [pc, #156]	@ 401de8 <xTaskGenericNotify+0x150>
  401d48:	e595302c 	ldr	r3, [r5, #44]	@ 0x2c
  401d4c:	e5921114 	ldr	r1, [r2, #276]	@ 0x114
  401d50:	e1530001 	cmp	r3, r1
  401d54:	e3a01014 	mov	r1, #20
  401d58:	e0010193 	mul	r1, r3, r1
  401d5c:	e0820001 	add	r0, r2, r1
  401d60:	e590c05c 	ldr	ip, [r0, #92]	@ 0x5c
  401d64:	e59c4008 	ldr	r4, [ip, #8]
  401d68:	85823114 	strhi	r3, [r2, #276]	@ 0x114
  401d6c:	e585c008 	str	ip, [r5, #8]
  401d70:	e585400c 	str	r4, [r5, #12]
  401d74:	e584e004 	str	lr, [r4, #4]
  401d78:	e58ce008 	str	lr, [ip, #8]
  401d7c:	e59fc068 	ldr	ip, [pc, #104]	@ 401dec <xTaskGenericNotify+0x154>
  401d80:	e592200c 	ldr	r2, [r2, #12]
  401d84:	e08c1001 	add	r1, ip, r1
  401d88:	e5851014 	str	r1, [r5, #20]
  401d8c:	e592202c 	ldr	r2, [r2, #44]	@ 0x2c
  401d90:	e5901058 	ldr	r1, [r0, #88]	@ 0x58
  401d94:	e1530002 	cmp	r3, r2
  401d98:	e2811001 	add	r1, r1, #1
  401d9c:	e5801058 	str	r1, [r0, #88]	@ 0x58
  401da0:	9a000000 	bls	401da8 <xTaskGenericNotify+0x110>
  401da4:	ef000000 	svc	0x00000000
  401da8:	e3a04001 	mov	r4, #1
  401dac:	eb0001e5 	bl	402548 <vPortExitCritical>
  401db0:	e1a00004 	mov	r0, r4
  401db4:	e8bd41f0 	pop	{r4, r5, r6, r7, r8, lr}
  401db8:	e12fff1e 	bx	lr
  401dbc:	e0854104 	add	r4, r5, r4, lsl #2
  401dc0:	e5943044 	ldr	r3, [r4, #68]	@ 0x44
  401dc4:	e2833001 	add	r3, r3, #1
  401dc8:	eaffffce 	b	401d08 <xTaskGenericNotify+0x70>
  401dcc:	e3520002 	cmp	r2, #2
  401dd0:	03a04000 	moveq	r4, #0
  401dd4:	0afffff4 	beq	401dac <xTaskGenericNotify+0x114>
  401dd8:	e2844010 	add	r4, r4, #16
  401ddc:	e0854104 	add	r4, r5, r4, lsl #2
  401de0:	e5847004 	str	r7, [r4, #4]
  401de4:	eaffffc8 	b	401d0c <xTaskGenericNotify+0x74>
  401de8:	00405ce0 	subeq	r5, r0, r0, ror #25
  401dec:	00405d38 	subeq	r5, r0, r8, lsr sp

00401df0 <xTaskGenericNotifyFromISR>:
  401df0:	e92d4070 	push	{r4, r5, r6, lr}
  401df4:	e3a05002 	mov	r5, #2
  401df8:	e28d4010 	add	r4, sp, #16
  401dfc:	e8941010 	ldm	r4, {r4, ip}
  401e00:	e3540000 	cmp	r4, #0
  401e04:	1281e010 	addne	lr, r1, #16
  401e08:	1080e10e 	addne	lr, r0, lr, lsl #2
  401e0c:	159ee004 	ldrne	lr, [lr, #4]
  401e10:	1584e000 	strne	lr, [r4]
  401e14:	e0804001 	add	r4, r0, r1
  401e18:	e5d4e048 	ldrb	lr, [r4, #72]	@ 0x48
  401e1c:	e2433001 	sub	r3, r3, #1
  401e20:	e5c45048 	strb	r5, [r4, #72]	@ 0x48
  401e24:	e20ee0ff 	and	lr, lr, #255	@ 0xff
  401e28:	e3530003 	cmp	r3, #3
  401e2c:	979ff103 	ldrls	pc, [pc, r3, lsl #2]
  401e30:	ea000007 	b	401e54 <xTaskGenericNotifyFromISR+0x64>
  401e34:	00401e44 	subeq	r1, r0, r4, asr #28
  401e38:	00401f14 	subeq	r1, r0, r4, lsl pc
  401e3c:	00401f30 	subeq	r1, r0, r0, lsr pc
  401e40:	00401f24 	subeq	r1, r0, r4, lsr #30
  401e44:	e0801101 	add	r1, r0, r1, lsl #2
  401e48:	e5913044 	ldr	r3, [r1, #68]	@ 0x44
  401e4c:	e1833002 	orr	r3, r3, r2
  401e50:	e5813044 	str	r3, [r1, #68]	@ 0x44
  401e54:	e35e0001 	cmp	lr, #1
  401e58:	1a00002a 	bne	401f08 <xTaskGenericNotifyFromISR+0x118>
  401e5c:	e59f3110 	ldr	r3, [pc, #272]	@ 401f74 <xTaskGenericNotifyFromISR+0x184>
  401e60:	e5932118 	ldr	r2, [r3, #280]	@ 0x118
  401e64:	e3520000 	cmp	r2, #0
  401e68:	e590202c 	ldr	r2, [r0, #44]	@ 0x2c
  401e6c:	1a000033 	bne	401f40 <xTaskGenericNotifyFromISR+0x150>
  401e70:	e2804008 	add	r4, r0, #8
  401e74:	e5901014 	ldr	r1, [r0, #20]
  401e78:	e8944010 	ldm	r4, {r4, lr}
  401e7c:	e584e008 	str	lr, [r4, #8]
  401e80:	e58e4004 	str	r4, [lr, #4]
  401e84:	e5914004 	ldr	r4, [r1, #4]
  401e88:	e2806004 	add	r6, r0, #4
  401e8c:	e1540006 	cmp	r4, r6
  401e90:	0581e004 	streq	lr, [r1, #4]
  401e94:	e591e000 	ldr	lr, [r1]
  401e98:	e24ee001 	sub	lr, lr, #1
  401e9c:	e581e000 	str	lr, [r1]
  401ea0:	e5931114 	ldr	r1, [r3, #276]	@ 0x114
  401ea4:	e1520001 	cmp	r2, r1
  401ea8:	e3a01014 	mov	r1, #20
  401eac:	e0010192 	mul	r1, r2, r1
  401eb0:	e083e001 	add	lr, r3, r1
  401eb4:	e59e405c 	ldr	r4, [lr, #92]	@ 0x5c
  401eb8:	e5945008 	ldr	r5, [r4, #8]
  401ebc:	e5804008 	str	r4, [r0, #8]
  401ec0:	e580500c 	str	r5, [r0, #12]
  401ec4:	e5856004 	str	r6, [r5, #4]
  401ec8:	e5846008 	str	r6, [r4, #8]
  401ecc:	e59f40a4 	ldr	r4, [pc, #164]	@ 401f78 <xTaskGenericNotifyFromISR+0x188>
  401ed0:	e0841001 	add	r1, r4, r1
  401ed4:	e5801014 	str	r1, [r0, #20]
  401ed8:	e59e1058 	ldr	r1, [lr, #88]	@ 0x58
  401edc:	e2811001 	add	r1, r1, #1
  401ee0:	85832114 	strhi	r2, [r3, #276]	@ 0x114
  401ee4:	e58e1058 	str	r1, [lr, #88]	@ 0x58
  401ee8:	e593100c 	ldr	r1, [r3, #12]
  401eec:	e591102c 	ldr	r1, [r1, #44]	@ 0x2c
  401ef0:	e1520001 	cmp	r2, r1
  401ef4:	9a000003 	bls	401f08 <xTaskGenericNotifyFromISR+0x118>
  401ef8:	e3a02001 	mov	r2, #1
  401efc:	e35c0000 	cmp	ip, #0
  401f00:	158c2000 	strne	r2, [ip]
  401f04:	e583211c 	str	r2, [r3, #284]	@ 0x11c
  401f08:	e3a00001 	mov	r0, #1
  401f0c:	e8bd4070 	pop	{r4, r5, r6, lr}
  401f10:	e12fff1e 	bx	lr
  401f14:	e0801101 	add	r1, r0, r1, lsl #2
  401f18:	e5913044 	ldr	r3, [r1, #68]	@ 0x44
  401f1c:	e2833001 	add	r3, r3, #1
  401f20:	eaffffca 	b	401e50 <xTaskGenericNotifyFromISR+0x60>
  401f24:	e35e0002 	cmp	lr, #2
  401f28:	03a00000 	moveq	r0, #0
  401f2c:	0afffff6 	beq	401f0c <xTaskGenericNotifyFromISR+0x11c>
  401f30:	e2811010 	add	r1, r1, #16
  401f34:	e0801101 	add	r1, r0, r1, lsl #2
  401f38:	e5812004 	str	r2, [r1, #4]
  401f3c:	eaffffc4 	b	401e54 <xTaskGenericNotifyFromISR+0x64>
  401f40:	e593102c 	ldr	r1, [r3, #44]	@ 0x2c
  401f44:	e5914008 	ldr	r4, [r1, #8]
  401f48:	e280e018 	add	lr, r0, #24
  401f4c:	e580101c 	str	r1, [r0, #28]
  401f50:	e5804020 	str	r4, [r0, #32]
  401f54:	e584e004 	str	lr, [r4, #4]
  401f58:	e581e008 	str	lr, [r1, #8]
  401f5c:	e2831028 	add	r1, r3, #40	@ 0x28
  401f60:	e5801028 	str	r1, [r0, #40]	@ 0x28
  401f64:	e5931028 	ldr	r1, [r3, #40]	@ 0x28
  401f68:	e2811001 	add	r1, r1, #1
  401f6c:	e5831028 	str	r1, [r3, #40]	@ 0x28
  401f70:	eaffffdc 	b	401ee8 <xTaskGenericNotifyFromISR+0xf8>
  401f74:	00405ce0 	subeq	r5, r0, r0, ror #25
  401f78:	00405d38 	subeq	r5, r0, r8, lsr sp

00401f7c <vTaskGenericNotifyGiveFromISR>:
  401f7c:	e92d4070 	push	{r4, r5, r6, lr}
  401f80:	e3a0e002 	mov	lr, #2
  401f84:	e0803001 	add	r3, r0, r1
  401f88:	e5d3c048 	ldrb	ip, [r3, #72]	@ 0x48
  401f8c:	e5c3e048 	strb	lr, [r3, #72]	@ 0x48
  401f90:	e0801e11 	add	r1, r0, r1, lsl lr
  401f94:	e5913044 	ldr	r3, [r1, #68]	@ 0x44
  401f98:	e35c0001 	cmp	ip, #1
  401f9c:	e2833001 	add	r3, r3, #1
  401fa0:	e5813044 	str	r3, [r1, #68]	@ 0x44
  401fa4:	1a00002a 	bne	402054 <vTaskGenericNotifyGiveFromISR+0xd8>
  401fa8:	e59f30e0 	ldr	r3, [pc, #224]	@ 402090 <vTaskGenericNotifyGiveFromISR+0x114>
  401fac:	e5931118 	ldr	r1, [r3, #280]	@ 0x118
  401fb0:	e3510000 	cmp	r1, #0
  401fb4:	e590102c 	ldr	r1, [r0, #44]	@ 0x2c
  401fb8:	1a000027 	bne	40205c <vTaskGenericNotifyGiveFromISR+0xe0>
  401fbc:	e2804008 	add	r4, r0, #8
  401fc0:	e590c014 	ldr	ip, [r0, #20]
  401fc4:	e8944010 	ldm	r4, {r4, lr}
  401fc8:	e584e008 	str	lr, [r4, #8]
  401fcc:	e58e4004 	str	r4, [lr, #4]
  401fd0:	e59c4004 	ldr	r4, [ip, #4]
  401fd4:	e2805004 	add	r5, r0, #4
  401fd8:	e1540005 	cmp	r4, r5
  401fdc:	058ce004 	streq	lr, [ip, #4]
  401fe0:	e59ce000 	ldr	lr, [ip]
  401fe4:	e24ee001 	sub	lr, lr, #1
  401fe8:	e58ce000 	str	lr, [ip]
  401fec:	e593c114 	ldr	ip, [r3, #276]	@ 0x114
  401ff0:	e151000c 	cmp	r1, ip
  401ff4:	e3a0c014 	mov	ip, #20
  401ff8:	e00c0c91 	mul	ip, r1, ip
  401ffc:	e083e00c 	add	lr, r3, ip
  402000:	e59e405c 	ldr	r4, [lr, #92]	@ 0x5c
  402004:	e5946008 	ldr	r6, [r4, #8]
  402008:	e5804008 	str	r4, [r0, #8]
  40200c:	e580600c 	str	r6, [r0, #12]
  402010:	e5865004 	str	r5, [r6, #4]
  402014:	e5845008 	str	r5, [r4, #8]
  402018:	e59f4074 	ldr	r4, [pc, #116]	@ 402094 <vTaskGenericNotifyGiveFromISR+0x118>
  40201c:	e084c00c 	add	ip, r4, ip
  402020:	e580c014 	str	ip, [r0, #20]
  402024:	e59e0058 	ldr	r0, [lr, #88]	@ 0x58
  402028:	e2800001 	add	r0, r0, #1
  40202c:	85831114 	strhi	r1, [r3, #276]	@ 0x114
  402030:	e58e0058 	str	r0, [lr, #88]	@ 0x58
  402034:	e593000c 	ldr	r0, [r3, #12]
  402038:	e590002c 	ldr	r0, [r0, #44]	@ 0x2c
  40203c:	e1510000 	cmp	r1, r0
  402040:	9a000003 	bls	402054 <vTaskGenericNotifyGiveFromISR+0xd8>
  402044:	e3a01001 	mov	r1, #1
  402048:	e3520000 	cmp	r2, #0
  40204c:	15821000 	strne	r1, [r2]
  402050:	e583111c 	str	r1, [r3, #284]	@ 0x11c
  402054:	e8bd4070 	pop	{r4, r5, r6, lr}
  402058:	e12fff1e 	bx	lr
  40205c:	e593c02c 	ldr	ip, [r3, #44]	@ 0x2c
  402060:	e59c4008 	ldr	r4, [ip, #8]
  402064:	e280e018 	add	lr, r0, #24
  402068:	e580c01c 	str	ip, [r0, #28]
  40206c:	e5804020 	str	r4, [r0, #32]
  402070:	e584e004 	str	lr, [r4, #4]
  402074:	e58ce008 	str	lr, [ip, #8]
  402078:	e283c028 	add	ip, r3, #40	@ 0x28
  40207c:	e580c028 	str	ip, [r0, #40]	@ 0x28
  402080:	e5930028 	ldr	r0, [r3, #40]	@ 0x28
  402084:	e2800001 	add	r0, r0, #1
  402088:	e5830028 	str	r0, [r3, #40]	@ 0x28
  40208c:	eaffffe8 	b	402034 <vTaskGenericNotifyGiveFromISR+0xb8>
  402090:	00405ce0 	subeq	r5, r0, r0, ror #25
  402094:	00405d38 	subeq	r5, r0, r8, lsr sp

00402098 <xTaskGenericNotifyStateClear>:
  402098:	e92d4070 	push	{r4, r5, r6, lr}
  40209c:	e1a05001 	mov	r5, r1
  4020a0:	e2504000 	subs	r4, r0, #0
  4020a4:	059f3030 	ldreq	r3, [pc, #48]	@ 4020dc <xTaskGenericNotifyStateClear+0x44>
  4020a8:	0593400c 	ldreq	r4, [r3, #12]
  4020ac:	eb00011a 	bl	40251c <vPortEnterCritical>
  4020b0:	e3a00000 	mov	r0, #0
  4020b4:	e0844005 	add	r4, r4, r5
  4020b8:	e5d43048 	ldrb	r3, [r4, #72]	@ 0x48
  4020bc:	e3530002 	cmp	r3, #2
  4020c0:	05c40048 	strbeq	r0, [r4, #72]	@ 0x48
  4020c4:	11a04000 	movne	r4, r0
  4020c8:	03a04001 	moveq	r4, #1
  4020cc:	eb00011d 	bl	402548 <vPortExitCritical>
  4020d0:	e1a00004 	mov	r0, r4
  4020d4:	e8bd4070 	pop	{r4, r5, r6, lr}
  4020d8:	e12fff1e 	bx	lr
  4020dc:	00405ce0 	subeq	r5, r0, r0, ror #25

004020e0 <ulTaskGenericNotifyValueClear>:
  4020e0:	e92d4070 	push	{r4, r5, r6, lr}
  4020e4:	e1a06001 	mov	r6, r1
  4020e8:	e1a05002 	mov	r5, r2
  4020ec:	e2504000 	subs	r4, r0, #0
  4020f0:	059f3028 	ldreq	r3, [pc, #40]	@ 402120 <ulTaskGenericNotifyValueClear+0x40>
  4020f4:	0593400c 	ldreq	r4, [r3, #12]
  4020f8:	eb000107 	bl	40251c <vPortEnterCritical>
  4020fc:	e0841106 	add	r1, r4, r6, lsl #2
  402100:	e5914044 	ldr	r4, [r1, #68]	@ 0x44
  402104:	e5913044 	ldr	r3, [r1, #68]	@ 0x44
  402108:	e1c32005 	bic	r2, r3, r5
  40210c:	e5812044 	str	r2, [r1, #68]	@ 0x44
  402110:	eb00010c 	bl	402548 <vPortExitCritical>
  402114:	e1a00004 	mov	r0, r4
  402118:	e8bd4070 	pop	{r4, r5, r6, lr}
  40211c:	e12fff1e 	bx	lr
  402120:	00405ce0 	subeq	r5, r0, r0, ror #25

00402124 <vTaskResetState>:
  402124:	e3a02000 	mov	r2, #0
  402128:	e59f3030 	ldr	r3, [pc, #48]	@ 402160 <vTaskResetState+0x3c>
  40212c:	e583200c 	str	r2, [r3, #12]
  402130:	e5832110 	str	r2, [r3, #272]	@ 0x110
  402134:	e5832054 	str	r2, [r3, #84]	@ 0x54
  402138:	e5832050 	str	r2, [r3, #80]	@ 0x50
  40213c:	e5832000 	str	r2, [r3]
  402140:	e5832114 	str	r2, [r3, #276]	@ 0x114
  402144:	e583210c 	str	r2, [r3, #268]	@ 0x10c
  402148:	e5832128 	str	r2, [r3, #296]	@ 0x128
  40214c:	e583211c 	str	r2, [r3, #284]	@ 0x11c
  402150:	e5832124 	str	r2, [r3, #292]	@ 0x124
  402154:	e5832024 	str	r2, [r3, #36]	@ 0x24
  402158:	e5832118 	str	r2, [r3, #280]	@ 0x118
  40215c:	e12fff1e 	bx	lr
  402160:	00405ce0 	subeq	r5, r0, r0, ror #25

00402164 <pvPortMalloc>:
  402164:	e3100007 	tst	r0, #7
  402168:	e92d4070 	push	{r4, r5, r6, lr}
  40216c:	e1a04000 	mov	r4, r0
  402170:	e59f50b4 	ldr	r5, [pc, #180]	@ 40222c <pvPortMalloc+0xc8>
  402174:	0a000023 	beq	402208 <pvPortMalloc+0xa4>
  402178:	e3c06007 	bic	r6, r0, #7
  40217c:	e2866008 	add	r6, r6, #8
  402180:	e1560000 	cmp	r6, r0
  402184:	9a000012 	bls	4021d4 <pvPortMalloc+0x70>
  402188:	ebfffbdf 	bl	40110c <vTaskSuspendAll>
  40218c:	e5953000 	ldr	r3, [r5]
  402190:	e3530000 	cmp	r3, #0
  402194:	0a00000a 	beq	4021c4 <pvPortMalloc+0x60>
  402198:	e1a04006 	mov	r4, r6
  40219c:	e5953004 	ldr	r3, [r5, #4]
  4021a0:	e59f2088 	ldr	r2, [pc, #136]	@ 402230 <pvPortMalloc+0xcc>
  4021a4:	e0834004 	add	r4, r3, r4
  4021a8:	e1540002 	cmp	r4, r2
  4021ac:	91530004 	cmpls	r3, r4
  4021b0:	2a00000b 	bcs	4021e4 <pvPortMalloc+0x80>
  4021b4:	e5956000 	ldr	r6, [r5]
  4021b8:	e5854004 	str	r4, [r5, #4]
  4021bc:	e0866003 	add	r6, r6, r3
  4021c0:	ea000008 	b	4021e8 <pvPortMalloc+0x84>
  4021c4:	e59f3068 	ldr	r3, [pc, #104]	@ 402234 <pvPortMalloc+0xd0>
  4021c8:	e3c33007 	bic	r3, r3, #7
  4021cc:	e5853000 	str	r3, [r5]
  4021d0:	eafffff0 	b	402198 <pvPortMalloc+0x34>
  4021d4:	ebfffbcc 	bl	40110c <vTaskSuspendAll>
  4021d8:	e5953000 	ldr	r3, [r5]
  4021dc:	e3530000 	cmp	r3, #0
  4021e0:	0a000004 	beq	4021f8 <pvPortMalloc+0x94>
  4021e4:	e3a06000 	mov	r6, #0
  4021e8:	ebfffc4f 	bl	40132c <xTaskResumeAll>
  4021ec:	e1a00006 	mov	r0, r6
  4021f0:	e8bd4070 	pop	{r4, r5, r6, lr}
  4021f4:	e12fff1e 	bx	lr
  4021f8:	e59f3034 	ldr	r3, [pc, #52]	@ 402234 <pvPortMalloc+0xd0>
  4021fc:	e3c33007 	bic	r3, r3, #7
  402200:	e5853000 	str	r3, [r5]
  402204:	eafffff6 	b	4021e4 <pvPortMalloc+0x80>
  402208:	ebfffbbf 	bl	40110c <vTaskSuspendAll>
  40220c:	e5953000 	ldr	r3, [r5]
  402210:	e3530000 	cmp	r3, #0
  402214:	059f3018 	ldreq	r3, [pc, #24]	@ 402234 <pvPortMalloc+0xd0>
  402218:	03c33007 	biceq	r3, r3, #7
  40221c:	05853000 	streq	r3, [r5]
  402220:	e3540000 	cmp	r4, #0
  402224:	1affffdc 	bne	40219c <pvPortMalloc+0x38>
  402228:	eaffffed 	b	4021e4 <pvPortMalloc+0x80>
  40222c:	00405e0c 	subeq	r5, r0, ip, lsl #28
  402230:	00009ff7 	strdeq	r9, [r0], -r7
  402234:	00405e1b 	subeq	r5, r0, fp, lsl lr

00402238 <vPortFree>:
  402238:	e12fff1e 	bx	lr

0040223c <vPortInitialiseBlocks>:
  40223c:	e3a02000 	mov	r2, #0
  402240:	e59f3004 	ldr	r3, [pc, #4]	@ 40224c <vPortInitialiseBlocks+0x10>
  402244:	e5832004 	str	r2, [r3, #4]
  402248:	e12fff1e 	bx	lr
  40224c:	00405e0c 	subeq	r5, r0, ip, lsl #28

00402250 <xPortGetFreeHeapSize>:
  402250:	e59f300c 	ldr	r3, [pc, #12]	@ 402264 <xPortGetFreeHeapSize+0x14>
  402254:	e5930004 	ldr	r0, [r3, #4]
  402258:	e2600c9f 	rsb	r0, r0, #40704	@ 0x9f00
  40225c:	e28000f8 	add	r0, r0, #248	@ 0xf8
  402260:	e12fff1e 	bx	lr
  402264:	00405e0c 	subeq	r5, r0, ip, lsl #28

00402268 <vPortHeapResetState>:
  402268:	e3a02000 	mov	r2, #0
  40226c:	e59f3004 	ldr	r3, [pc, #4]	@ 402278 <vPortHeapResetState+0x10>
  402270:	e5832004 	str	r2, [r3, #4]
  402274:	e12fff1e 	bx	lr
  402278:	00405e0c 	subeq	r5, r0, ip, lsl #28

0040227c <pxPortInitialiseStack>:
  40227c:	e2813004 	add	r3, r1, #4
  402280:	e5003004 	str	r3, [r0, #-4]
  402284:	e59f3084 	ldr	r3, [pc, #132]	@ 402310 <pxPortInitialiseStack+0x94>
  402288:	e5003008 	str	r3, [r0, #-8]
  40228c:	e59f3080 	ldr	r3, [pc, #128]	@ 402314 <pxPortInitialiseStack+0x98>
  402290:	e5003010 	str	r3, [r0, #-16]
  402294:	e59f307c 	ldr	r3, [pc, #124]	@ 402318 <pxPortInitialiseStack+0x9c>
  402298:	e5003014 	str	r3, [r0, #-20]	@ 0xffffffec
  40229c:	e59f3078 	ldr	r3, [pc, #120]	@ 40231c <pxPortInitialiseStack+0xa0>
  4022a0:	e5003018 	str	r3, [r0, #-24]	@ 0xffffffe8
  4022a4:	e59f3074 	ldr	r3, [pc, #116]	@ 402320 <pxPortInitialiseStack+0xa4>
  4022a8:	e500301c 	str	r3, [r0, #-28]	@ 0xffffffe4
  4022ac:	e59f3070 	ldr	r3, [pc, #112]	@ 402324 <pxPortInitialiseStack+0xa8>
  4022b0:	e5003020 	str	r3, [r0, #-32]	@ 0xffffffe0
  4022b4:	e59f306c 	ldr	r3, [pc, #108]	@ 402328 <pxPortInitialiseStack+0xac>
  4022b8:	e5003024 	str	r3, [r0, #-36]	@ 0xffffffdc
  4022bc:	e59f3068 	ldr	r3, [pc, #104]	@ 40232c <pxPortInitialiseStack+0xb0>
  4022c0:	e5003028 	str	r3, [r0, #-40]	@ 0xffffffd8
  4022c4:	e59f3064 	ldr	r3, [pc, #100]	@ 402330 <pxPortInitialiseStack+0xb4>
  4022c8:	e500302c 	str	r3, [r0, #-44]	@ 0xffffffd4
  4022cc:	e59f3060 	ldr	r3, [pc, #96]	@ 402334 <pxPortInitialiseStack+0xb8>
  4022d0:	e5003030 	str	r3, [r0, #-48]	@ 0xffffffd0
  4022d4:	e59f305c 	ldr	r3, [pc, #92]	@ 402338 <pxPortInitialiseStack+0xbc>
  4022d8:	e5003034 	str	r3, [r0, #-52]	@ 0xffffffcc
  4022dc:	e59f3058 	ldr	r3, [pc, #88]	@ 40233c <pxPortInitialiseStack+0xc0>
  4022e0:	e5003038 	str	r3, [r0, #-56]	@ 0xffffffc8
  4022e4:	e59f3054 	ldr	r3, [pc, #84]	@ 402340 <pxPortInitialiseStack+0xc4>
  4022e8:	e3110001 	tst	r1, #1
  4022ec:	e500303c 	str	r3, [r0, #-60]	@ 0xffffffc4
  4022f0:	03a0301f 	moveq	r3, #31
  4022f4:	13a0303f 	movne	r3, #63	@ 0x3f
  4022f8:	e5003044 	str	r3, [r0, #-68]	@ 0xffffffbc
  4022fc:	e3a03000 	mov	r3, #0
  402300:	e500000c 	str	r0, [r0, #-12]
  402304:	e5002040 	str	r2, [r0, #-64]	@ 0xffffffc0
  402308:	e5203048 	str	r3, [r0, #-72]!	@ 0xffffffb8
  40230c:	e12fff1e 	bx	lr
  402310:	aaaaaaaa 	bge	feeacdc0 <_fiq_stack_top+0xfea94dc0>
  402314:	12121212 	andsne	r1, r2, #536870913	@ 0x20000001
  402318:	11111111 	tstne	r1, r1, lsl r1
  40231c:	10101010 	andsne	r1, r0, r0, lsl r0
  402320:	09090909 	stmdbeq	r9, {r0, r3, r8, fp}
  402324:	08080808 	stmdaeq	r8, {r3, fp}
  402328:	07070707 	streq	r0, [r7, -r7, lsl #14]
  40232c:	06060606 	streq	r0, [r6], -r6, lsl #12
  402330:	05050505 	streq	r0, [r5, #-1285]	@ 0xfffffafb
  402334:	04040404 	streq	r0, [r4], #-1028	@ 0xfffffbfc
  402338:	03030303 	movweq	r0, #13059	@ 0x3303
  40233c:	02020202 	andeq	r0, r2, #536870912	@ 0x20000000
  402340:	01010101 	tsteq	r1, r1, lsl #2

00402344 <xPortStartScheduler>:
  402344:	e92d4010 	push	{r4, lr}
  402348:	e59f1020 	ldr	r1, [pc, #32]	@ 402370 <xPortStartScheduler+0x2c>
  40234c:	e3a00005 	mov	r0, #5
  402350:	eb00017f 	bl	402954 <itc_set_handler>
  402354:	e3a00005 	mov	r0, #5
  402358:	eb00018b 	bl	40298c <itc_enable_interrupt>
  40235c:	e3a01001 	mov	r1, #1
  402360:	e3a00000 	mov	r0, #0
  402364:	eb000348 	bl	40308c <TimerInt_Init>
  402368:	eb000002 	bl	402378 <vPortISRStartFirstTask>
  40236c:	eafffffe 	b	40236c <xPortStartScheduler+0x28>
  402370:	00402468 	subeq	r2, r0, r8, ror #8

00402374 <vPortEndScheduler>:
  402374:	e12fff1e 	bx	lr

00402378 <vPortISRStartFirstTask>:
  402378:	e59f020c 	ldr	r0, [pc, #524]	@ 40258c <vPortExitCritical+0x44>
  40237c:	e5900000 	ldr	r0, [r0]
  402380:	e590e000 	ldr	lr, [r0]
  402384:	e59f0204 	ldr	r0, [pc, #516]	@ 402590 <vPortExitCritical+0x48>
  402388:	e8be0002 	ldm	lr!, {r1}
  40238c:	e5801000 	str	r1, [r0]
  402390:	e8be0001 	ldm	lr!, {r0}
  402394:	e169f000 	msr	SPSR_fc, r0
  402398:	e8de7fff 	ldm	lr, {r0, r1, r2, r3, r4, r5, r6, r7, r8, r9, sl, fp, ip, sp, lr}^
  40239c:	e1a00000 	nop			@ (mov r0, r0)
  4023a0:	e59ee03c 	ldr	lr, [lr, #60]	@ 0x3c
  4023a4:	e25ef004 	subs	pc, lr, #4
  4023a8:	e59f300c 	ldr	r3, [pc, #12]	@ 4023bc <vPortISRStartFirstTask+0x44>
  4023ac:	e5933000 	ldr	r3, [r3]
  4023b0:	e59f3008 	ldr	r3, [pc, #8]	@ 4023c0 <vPortISRStartFirstTask+0x48>
  4023b4:	e5933000 	ldr	r3, [r3]
  4023b8:	e12fff1e 	bx	lr
  4023bc:	00403a80 	subeq	r3, r0, r0, lsl #21
  4023c0:	00405cec 	subeq	r5, r0, ip, ror #25

004023c4 <vPortYieldProcessor>:
  4023c4:	e28ee004 	add	lr, lr, #4
  4023c8:	e92d0001 	stmfd	sp!, {r0}
  4023cc:	e94d2000 	stmdb	sp, {sp}^
  4023d0:	e1a00000 	nop			@ (mov r0, r0)
  4023d4:	e24dd004 	sub	sp, sp, #4
  4023d8:	e8bd0001 	ldmfd	sp!, {r0}
  4023dc:	e9204000 	stmdb	r0!, {lr}
  4023e0:	e1a0e000 	mov	lr, r0
  4023e4:	e8bd0001 	ldmfd	sp!, {r0}
  4023e8:	e94e7fff 	stmdb	lr, {r0, r1, r2, r3, r4, r5, r6, r7, r8, r9, sl, fp, ip, sp, lr}^
  4023ec:	e1a00000 	nop			@ (mov r0, r0)
  4023f0:	e24ee03c 	sub	lr, lr, #60	@ 0x3c
  4023f4:	e14f0000 	mrs	r0, SPSR
  4023f8:	e92e0001 	stmdb	lr!, {r0}
  4023fc:	e59f018c 	ldr	r0, [pc, #396]	@ 402590 <vPortExitCritical+0x48>
  402400:	e5900000 	ldr	r0, [r0]
  402404:	e92e0001 	stmdb	lr!, {r0}
  402408:	e59f017c 	ldr	r0, [pc, #380]	@ 40258c <vPortExitCritical+0x44>
  40240c:	e5900000 	ldr	r0, [r0]
  402410:	e580e000 	str	lr, [r0]
  402414:	e59f2044 	ldr	r2, [pc, #68]	@ 402460 <vPortYieldProcessor+0x9c>
  402418:	e5923000 	ldr	r3, [r2]
  40241c:	e59f3040 	ldr	r3, [pc, #64]	@ 402464 <vPortYieldProcessor+0xa0>
  402420:	e5931000 	ldr	r1, [r3]
  402424:	ebfffc59 	bl	401590 <vTaskSwitchContext>
  402428:	e59f015c 	ldr	r0, [pc, #348]	@ 40258c <vPortExitCritical+0x44>
  40242c:	e5900000 	ldr	r0, [r0]
  402430:	e590e000 	ldr	lr, [r0]
  402434:	e59f0154 	ldr	r0, [pc, #340]	@ 402590 <vPortExitCritical+0x48>
  402438:	e8be0002 	ldm	lr!, {r1}
  40243c:	e5801000 	str	r1, [r0]
  402440:	e8be0001 	ldm	lr!, {r0}
  402444:	e169f000 	msr	SPSR_fc, r0
  402448:	e8de7fff 	ldm	lr, {r0, r1, r2, r3, r4, r5, r6, r7, r8, r9, sl, fp, ip, sp, lr}^
  40244c:	e1a00000 	nop			@ (mov r0, r0)
  402450:	e59ee03c 	ldr	lr, [lr, #60]	@ 0x3c
  402454:	e25ef004 	subs	pc, lr, #4
  402458:	e5922000 	ldr	r2, [r2]
  40245c:	e5933000 	ldr	r3, [r3]
  402460:	00403a80 	subeq	r3, r0, r0, lsl #21
  402464:	00405cec 	subeq	r5, r0, ip, ror #25

00402468 <vTickISR>:
  402468:	e92d0001 	stmfd	sp!, {r0}
  40246c:	e94d2000 	stmdb	sp, {sp}^
  402470:	e1a00000 	nop			@ (mov r0, r0)
  402474:	e24dd004 	sub	sp, sp, #4
  402478:	e8bd0001 	ldmfd	sp!, {r0}
  40247c:	e9204000 	stmdb	r0!, {lr}
  402480:	e1a0e000 	mov	lr, r0
  402484:	e8bd0001 	ldmfd	sp!, {r0}
  402488:	e94e7fff 	stmdb	lr, {r0, r1, r2, r3, r4, r5, r6, r7, r8, r9, sl, fp, ip, sp, lr}^
  40248c:	e1a00000 	nop			@ (mov r0, r0)
  402490:	e24ee03c 	sub	lr, lr, #60	@ 0x3c
  402494:	e14f0000 	mrs	r0, SPSR
  402498:	e92e0001 	stmdb	lr!, {r0}
  40249c:	e59f00ec 	ldr	r0, [pc, #236]	@ 402590 <vPortExitCritical+0x48>
  4024a0:	e5900000 	ldr	r0, [r0]
  4024a4:	e92e0001 	stmdb	lr!, {r0}
  4024a8:	e59f00dc 	ldr	r0, [pc, #220]	@ 40258c <vPortExitCritical+0x44>
  4024ac:	e5900000 	ldr	r0, [r0]
  4024b0:	e580e000 	str	lr, [r0]
  4024b4:	e59f2058 	ldr	r2, [pc, #88]	@ 402514 <SkipContextSwitch+0x40>
  4024b8:	e5923000 	ldr	r3, [r2]
  4024bc:	e59f3054 	ldr	r3, [pc, #84]	@ 402518 <SkipContextSwitch+0x44>
  4024c0:	e5931000 	ldr	r1, [r3]
  4024c4:	ebfffb2d 	bl	401180 <xTaskIncrementTick>
  4024c8:	e3500000 	cmp	r0, #0
  4024cc:	0a000000 	beq	4024d4 <SkipContextSwitch>
  4024d0:	ebfffc2e 	bl	401590 <vTaskSwitchContext>

004024d4 <SkipContextSwitch>:
  4024d4:	eb00030e 	bl	403114 <getIntTmr>
  4024d8:	eb0002de 	bl	403058 <clearInt>
  4024dc:	e59f00a8 	ldr	r0, [pc, #168]	@ 40258c <vPortExitCritical+0x44>
  4024e0:	e5900000 	ldr	r0, [r0]
  4024e4:	e590e000 	ldr	lr, [r0]
  4024e8:	e59f00a0 	ldr	r0, [pc, #160]	@ 402590 <vPortExitCritical+0x48>
  4024ec:	e8be0002 	ldm	lr!, {r1}
  4024f0:	e5801000 	str	r1, [r0]
  4024f4:	e8be0001 	ldm	lr!, {r0}
  4024f8:	e169f000 	msr	SPSR_fc, r0
  4024fc:	e8de7fff 	ldm	lr, {r0, r1, r2, r3, r4, r5, r6, r7, r8, r9, sl, fp, ip, sp, lr}^
  402500:	e1a00000 	nop			@ (mov r0, r0)
  402504:	e59ee03c 	ldr	lr, [lr, #60]	@ 0x3c
  402508:	e25ef004 	subs	pc, lr, #4
  40250c:	e5922000 	ldr	r2, [r2]
  402510:	e5933000 	ldr	r3, [r3]
  402514:	00403a80 	subeq	r3, r0, r0, lsl #21
  402518:	00405cec 	subeq	r5, r0, ip, ror #25

0040251c <vPortEnterCritical>:
  40251c:	e92d0001 	stmfd	sp!, {r0}
  402520:	e10f0000 	mrs	r0, CPSR
  402524:	e38000c0 	orr	r0, r0, #192	@ 0xc0
  402528:	e129f000 	msr	CPSR_fc, r0
  40252c:	e8bd0001 	ldmfd	sp!, {r0}
  402530:	e59f200c 	ldr	r2, [pc, #12]	@ 402544 <vPortEnterCritical+0x28>
  402534:	e5923000 	ldr	r3, [r2]
  402538:	e2833001 	add	r3, r3, #1
  40253c:	e5823000 	str	r3, [r2]
  402540:	e12fff1e 	bx	lr
  402544:	00403a80 	subeq	r3, r0, r0, lsl #21

00402548 <vPortExitCritical>:
  402548:	e59f3038 	ldr	r3, [pc, #56]	@ 402588 <vPortExitCritical+0x40>
  40254c:	e5932000 	ldr	r2, [r3]
  402550:	e3520000 	cmp	r2, #0
  402554:	012fff1e 	bxeq	lr
  402558:	e5932000 	ldr	r2, [r3]
  40255c:	e2422001 	sub	r2, r2, #1
  402560:	e5832000 	str	r2, [r3]
  402564:	e5933000 	ldr	r3, [r3]
  402568:	e3530000 	cmp	r3, #0
  40256c:	112fff1e 	bxne	lr
  402570:	e92d0001 	stmfd	sp!, {r0}
  402574:	e10f0000 	mrs	r0, CPSR
  402578:	e3c000c0 	bic	r0, r0, #192	@ 0xc0
  40257c:	e129f000 	msr	CPSR_fc, r0
  402580:	e8bd0001 	ldmfd	sp!, {r0}
  402584:	e12fff1e 	bx	lr
  402588:	00403a80 	subeq	r3, r0, r0, lsl #21
  40258c:	00405cec 	subeq	r5, r0, ip, ror #25
  402590:	00403a80 	subeq	r3, r0, r0, lsl #21

00402594 <vListInitialise>:
  402594:	e2803008 	add	r3, r0, #8
  402598:	e3e02000 	mvn	r2, #0
  40259c:	e5803004 	str	r3, [r0, #4]
  4025a0:	e580300c 	str	r3, [r0, #12]
  4025a4:	e5803010 	str	r3, [r0, #16]
  4025a8:	e3a03000 	mov	r3, #0
  4025ac:	e5802008 	str	r2, [r0, #8]
  4025b0:	e5803000 	str	r3, [r0]
  4025b4:	e12fff1e 	bx	lr

004025b8 <vListInitialiseItem>:
  4025b8:	e3a03000 	mov	r3, #0
  4025bc:	e5803010 	str	r3, [r0, #16]
  4025c0:	e12fff1e 	bx	lr

004025c4 <vListInsertEnd>:
  4025c4:	e5903004 	ldr	r3, [r0, #4]
  4025c8:	e5932008 	ldr	r2, [r3, #8]
  4025cc:	e5813004 	str	r3, [r1, #4]
  4025d0:	e5812008 	str	r2, [r1, #8]
  4025d4:	e5821004 	str	r1, [r2, #4]
  4025d8:	e5831008 	str	r1, [r3, #8]
  4025dc:	e5903000 	ldr	r3, [r0]
  4025e0:	e2833001 	add	r3, r3, #1
  4025e4:	e5810010 	str	r0, [r1, #16]
  4025e8:	e5803000 	str	r3, [r0]
  4025ec:	e12fff1e 	bx	lr

004025f0 <vListInsert>:
  4025f0:	e591c000 	ldr	ip, [r1]
  4025f4:	e37c0001 	cmn	ip, #1
  4025f8:	e52de004 	push	{lr}		@ (str lr, [sp, #-4]!)
  4025fc:	05903010 	ldreq	r3, [r0, #16]
  402600:	0a000005 	beq	40261c <vListInsert+0x2c>
  402604:	e2802008 	add	r2, r0, #8
  402608:	e1a03002 	mov	r3, r2
  40260c:	e5922004 	ldr	r2, [r2, #4]
  402610:	e592e000 	ldr	lr, [r2]
  402614:	e15e000c 	cmp	lr, ip
  402618:	9afffffa 	bls	402608 <vListInsert+0x18>
  40261c:	e5932004 	ldr	r2, [r3, #4]
  402620:	e5812004 	str	r2, [r1, #4]
  402624:	e5821008 	str	r1, [r2, #8]
  402628:	e5813008 	str	r3, [r1, #8]
  40262c:	e5831004 	str	r1, [r3, #4]
  402630:	e5903000 	ldr	r3, [r0]
  402634:	e2833001 	add	r3, r3, #1
  402638:	e5810010 	str	r0, [r1, #16]
  40263c:	e49de004 	pop	{lr}		@ (ldr lr, [sp], #4)
  402640:	e5803000 	str	r3, [r0]
  402644:	e12fff1e 	bx	lr

00402648 <uxListRemove>:
  402648:	e5903010 	ldr	r3, [r0, #16]
  40264c:	e9900006 	ldmib	r0, {r1, r2}
  402650:	e5812008 	str	r2, [r1, #8]
  402654:	e5821004 	str	r1, [r2, #4]
  402658:	e5931004 	ldr	r1, [r3, #4]
  40265c:	e1510000 	cmp	r1, r0
  402660:	05832004 	streq	r2, [r3, #4]
  402664:	e3a02000 	mov	r2, #0
  402668:	e5802010 	str	r2, [r0, #16]
  40266c:	e5930000 	ldr	r0, [r3]
  402670:	e2400001 	sub	r0, r0, #1
  402674:	e5830000 	str	r0, [r3]
  402678:	e12fff1e 	bx	lr

0040267c <gpio_set_port_dir_input>:
  40267c:	e3500001 	cmp	r0, #1
  402680:	93a03102 	movls	r3, #-2147483648	@ 0x80000000
  402684:	92800018 	addls	r0, r0, #24
  402688:	97831100 	strls	r1, [r3, r0, lsl #2]
  40268c:	93a00000 	movls	r0, #0
  402690:	83a00001 	movhi	r0, #1
  402694:	e12fff1e 	bx	lr

00402698 <gpio_set_port_dir_output>:
  402698:	e3500001 	cmp	r0, #1
  40269c:	93a03102 	movls	r3, #-2147483648	@ 0x80000000
  4026a0:	92800016 	addls	r0, r0, #22
  4026a4:	97831100 	strls	r1, [r3, r0, lsl #2]
  4026a8:	93a00000 	movls	r0, #0
  4026ac:	83a00001 	movhi	r0, #1
  4026b0:	e12fff1e 	bx	lr

004026b4 <gpio_set_pin_dir_input>:
  4026b4:	e350003f 	cmp	r0, #63	@ 0x3f
  4026b8:	e1a03000 	mov	r3, r0
  4026bc:	e3a00001 	mov	r0, #1
  4026c0:	812fff1e 	bxhi	lr
  4026c4:	e1a022a3 	lsr	r2, r3, #5
  4026c8:	e203301f 	and	r3, r3, #31
  4026cc:	e1a00310 	lsl	r0, r0, r3
  4026d0:	e2823018 	add	r3, r2, #24
  4026d4:	e3a02102 	mov	r2, #-2147483648	@ 0x80000000
  4026d8:	e7820103 	str	r0, [r2, r3, lsl #2]
  4026dc:	e3a00000 	mov	r0, #0
  4026e0:	e12fff1e 	bx	lr

004026e4 <gpio_set_pin_dir_output>:
  4026e4:	e350003f 	cmp	r0, #63	@ 0x3f
  4026e8:	e1a03000 	mov	r3, r0
  4026ec:	e3a00001 	mov	r0, #1
  4026f0:	812fff1e 	bxhi	lr
  4026f4:	e1a022a3 	lsr	r2, r3, #5
  4026f8:	e203301f 	and	r3, r3, #31
  4026fc:	e1a00310 	lsl	r0, r0, r3
  402700:	e2823016 	add	r3, r2, #22
  402704:	e3a02102 	mov	r2, #-2147483648	@ 0x80000000
  402708:	e7820103 	str	r0, [r2, r3, lsl #2]
  40270c:	e3a00000 	mov	r0, #0
  402710:	e12fff1e 	bx	lr

00402714 <gpio_set_port>:
  402714:	e3500001 	cmp	r0, #1
  402718:	93a03102 	movls	r3, #-2147483648	@ 0x80000000
  40271c:	92800012 	addls	r0, r0, #18
  402720:	97831100 	strls	r1, [r3, r0, lsl #2]
  402724:	93a00000 	movls	r0, #0
  402728:	83a00001 	movhi	r0, #1
  40272c:	e12fff1e 	bx	lr

00402730 <gpio_clear_port>:
  402730:	e3500001 	cmp	r0, #1
  402734:	93a03102 	movls	r3, #-2147483648	@ 0x80000000
  402738:	92800014 	addls	r0, r0, #20
  40273c:	97831100 	strls	r1, [r3, r0, lsl #2]
  402740:	93a00000 	movls	r0, #0
  402744:	83a00001 	movhi	r0, #1
  402748:	e12fff1e 	bx	lr

0040274c <gpio_set_pin>:
  40274c:	e350003f 	cmp	r0, #63	@ 0x3f
  402750:	e1a03000 	mov	r3, r0
  402754:	e3a00001 	mov	r0, #1
  402758:	812fff1e 	bxhi	lr
  40275c:	e1a022a3 	lsr	r2, r3, #5
  402760:	e203301f 	and	r3, r3, #31
  402764:	e1a00310 	lsl	r0, r0, r3
  402768:	e2823012 	add	r3, r2, #18
  40276c:	e3a02102 	mov	r2, #-2147483648	@ 0x80000000
  402770:	e7820103 	str	r0, [r2, r3, lsl #2]
  402774:	e3a00000 	mov	r0, #0
  402778:	e12fff1e 	bx	lr

0040277c <gpio_clear_pin>:
  40277c:	e350003f 	cmp	r0, #63	@ 0x3f
  402780:	e1a03000 	mov	r3, r0
  402784:	e3a00001 	mov	r0, #1
  402788:	812fff1e 	bxhi	lr
  40278c:	e1a022a3 	lsr	r2, r3, #5
  402790:	e203301f 	and	r3, r3, #31
  402794:	e1a00310 	lsl	r0, r0, r3
  402798:	e2823014 	add	r3, r2, #20
  40279c:	e3a02102 	mov	r2, #-2147483648	@ 0x80000000
  4027a0:	e7820103 	str	r0, [r2, r3, lsl #2]
  4027a4:	e3a00000 	mov	r0, #0
  4027a8:	e12fff1e 	bx	lr

004027ac <gpio_get_port>:
  4027ac:	e3500001 	cmp	r0, #1
  4027b0:	93a03102 	movls	r3, #-2147483648	@ 0x80000000
  4027b4:	92800002 	addls	r0, r0, #2
  4027b8:	97933100 	ldrls	r3, [r3, r0, lsl #2]
  4027bc:	93a00000 	movls	r0, #0
  4027c0:	95813000 	strls	r3, [r1]
  4027c4:	83a00001 	movhi	r0, #1
  4027c8:	e12fff1e 	bx	lr

004027cc <gpio_get_pin>:
  4027cc:	e350003f 	cmp	r0, #63	@ 0x3f
  4027d0:	8a000009 	bhi	4027fc <gpio_get_pin+0x30>
  4027d4:	e3a02102 	mov	r2, #-2147483648	@ 0x80000000
  4027d8:	e1a032a0 	lsr	r3, r0, #5
  4027dc:	e2833002 	add	r3, r3, #2
  4027e0:	e7923103 	ldr	r3, [r2, r3, lsl #2]
  4027e4:	e3a02001 	mov	r2, #1
  4027e8:	e200001f 	and	r0, r0, #31
  4027ec:	e0033012 	and	r3, r3, r2, lsl r0
  4027f0:	e5813000 	str	r3, [r1]
  4027f4:	e3a00000 	mov	r0, #0
  4027f8:	e12fff1e 	bx	lr
  4027fc:	e3a00001 	mov	r0, #1
  402800:	e12fff1e 	bx	lr

00402804 <gpio_set_port_func>:
  402804:	e3510003 	cmp	r1, #3
  402808:	93500001 	cmpls	r0, #1
  40280c:	83a0c001 	movhi	ip, #1
  402810:	93a0c000 	movls	ip, #0
  402814:	8a000017 	bhi	402878 <gpio_set_port_func+0x74>
  402818:	e92d4070 	push	{r4, r5, r6, lr}
  40281c:	e3a05001 	mov	r5, #1
  402820:	e3a06003 	mov	r6, #3
  402824:	e1a00280 	lsl	r0, r0, #5
  402828:	e0123c15 	ands	r3, r2, r5, lsl ip
  40282c:	0a00000a 	beq	40285c <gpio_set_port_func+0x58>
  402830:	e1a03220 	lsr	r3, r0, #4
  402834:	e1a03103 	lsl	r3, r3, #2
  402838:	e2833102 	add	r3, r3, #-2147483648	@ 0x80000000
  40283c:	e5934018 	ldr	r4, [r3, #24]
  402840:	e1a0e080 	lsl	lr, r0, #1
  402844:	e20ee01e 	and	lr, lr, #30
  402848:	e1c44e16 	bic	r4, r4, r6, lsl lr
  40284c:	e5834018 	str	r4, [r3, #24]
  402850:	e5934018 	ldr	r4, [r3, #24]
  402854:	e184ee11 	orr	lr, r4, r1, lsl lr
  402858:	e583e018 	str	lr, [r3, #24]
  40285c:	e28cc001 	add	ip, ip, #1
  402860:	e35c0020 	cmp	ip, #32
  402864:	e2800001 	add	r0, r0, #1
  402868:	1affffee 	bne	402828 <gpio_set_port_func+0x24>
  40286c:	e3a00000 	mov	r0, #0
  402870:	e8bd4070 	pop	{r4, r5, r6, lr}
  402874:	e12fff1e 	bx	lr
  402878:	e3a00001 	mov	r0, #1
  40287c:	e12fff1e 	bx	lr

00402880 <gpio_set_pin_func>:
  402880:	e3510003 	cmp	r1, #3
  402884:	9350003f 	cmpls	r0, #63	@ 0x3f
  402888:	83a02001 	movhi	r2, #1
  40288c:	93a02000 	movls	r2, #0
  402890:	8a00000f 	bhi	4028d4 <gpio_set_pin_func+0x54>
  402894:	e52de004 	push	{lr}		@ (str lr, [sp, #-4]!)
  402898:	e3a0e003 	mov	lr, #3
  40289c:	e1a03220 	lsr	r3, r0, #4
  4028a0:	e1a03103 	lsl	r3, r3, #2
  4028a4:	e2833102 	add	r3, r3, #-2147483648	@ 0x80000000
  4028a8:	e1a0c080 	lsl	ip, r0, #1
  4028ac:	e5930018 	ldr	r0, [r3, #24]
  4028b0:	e20cc01e 	and	ip, ip, #30
  4028b4:	e1c00c1e 	bic	r0, r0, lr, lsl ip
  4028b8:	e5830018 	str	r0, [r3, #24]
  4028bc:	e5930018 	ldr	r0, [r3, #24]
  4028c0:	e1801c11 	orr	r1, r0, r1, lsl ip
  4028c4:	e5831018 	str	r1, [r3, #24]
  4028c8:	e1a00002 	mov	r0, r2
  4028cc:	e49de004 	pop	{lr}		@ (ldr lr, [sp], #4)
  4028d0:	e12fff1e 	bx	lr
  4028d4:	e3a00001 	mov	r0, #1
  4028d8:	e12fff1e 	bx	lr

004028dc <itc_init>:
  4028dc:	e3a0202c 	mov	r2, #44	@ 0x2c
  4028e0:	e92d4010 	push	{r4, lr}
  4028e4:	e3a01000 	mov	r1, #0
  4028e8:	e59f001c 	ldr	r0, [pc, #28]	@ 40290c <itc_init+0x30>
  4028ec:	eb0004f0 	bl	403cb4 <memset>
  4028f0:	e3a02000 	mov	r2, #0
  4028f4:	e59f3014 	ldr	r3, [pc, #20]	@ 402910 <itc_init+0x34>
  4028f8:	e8bd4010 	pop	{r4, lr}
  4028fc:	e5832034 	str	r2, [r3, #52]	@ 0x34
  402900:	e5832000 	str	r2, [r3]
  402904:	e5832010 	str	r2, [r3, #16]
  402908:	e12fff1e 	bx	lr
  40290c:	0040fe14 	subeq	pc, r0, r4, lsl lr	@ <UNPREDICTABLE>
  402910:	80020000 	andhi	r0, r2, r0

00402914 <itc_disable_ints>:
  402914:	e59f3014 	ldr	r3, [pc, #20]	@ 402930 <itc_disable_ints+0x1c>
  402918:	e59f2014 	ldr	r2, [pc, #20]	@ 402934 <itc_disable_ints+0x20>
  40291c:	e5931010 	ldr	r1, [r3, #16]
  402920:	e582102c 	str	r1, [r2, #44]	@ 0x2c
  402924:	e3a02000 	mov	r2, #0
  402928:	e5832010 	str	r2, [r3, #16]
  40292c:	e12fff1e 	bx	lr
  402930:	80020000 	andhi	r0, r2, r0
  402934:	0040fe14 	subeq	pc, r0, r4, lsl lr	@ <UNPREDICTABLE>

00402938 <itc_restore_ints>:
  402938:	e59f300c 	ldr	r3, [pc, #12]	@ 40294c <itc_restore_ints+0x14>
  40293c:	e593202c 	ldr	r2, [r3, #44]	@ 0x2c
  402940:	e59f3008 	ldr	r3, [pc, #8]	@ 402950 <itc_restore_ints+0x18>
  402944:	e5832010 	str	r2, [r3, #16]
  402948:	e12fff1e 	bx	lr
  40294c:	0040fe14 	subeq	pc, r0, r4, lsl lr	@ <UNPREDICTABLE>
  402950:	80020000 	andhi	r0, r2, r0

00402954 <itc_set_handler>:
  402954:	e59f3004 	ldr	r3, [pc, #4]	@ 402960 <itc_set_handler+0xc>
  402958:	e7831100 	str	r1, [r3, r0, lsl #2]
  40295c:	e12fff1e 	bx	lr
  402960:	0040fe14 	subeq	pc, r0, r4, lsl lr	@ <UNPREDICTABLE>

00402964 <itc_set_priority>:
  402964:	e3a03001 	mov	r3, #1
  402968:	e1a00013 	lsl	r0, r3, r0
  40296c:	e59f3014 	ldr	r3, [pc, #20]	@ 402988 <itc_set_priority+0x24>
  402970:	e3510000 	cmp	r1, #0
  402974:	05932014 	ldreq	r2, [r3, #20]
  402978:	01c22000 	biceq	r2, r2, r0
  40297c:	15830014 	strne	r0, [r3, #20]
  402980:	05832014 	streq	r2, [r3, #20]
  402984:	e12fff1e 	bx	lr
  402988:	80020000 	andhi	r0, r2, r0

0040298c <itc_enable_interrupt>:
  40298c:	e59f3004 	ldr	r3, [pc, #4]	@ 402998 <itc_enable_interrupt+0xc>
  402990:	e5830008 	str	r0, [r3, #8]
  402994:	e12fff1e 	bx	lr
  402998:	80020000 	andhi	r0, r2, r0

0040299c <itc_disable_interrupt>:
  40299c:	e59f3004 	ldr	r3, [pc, #4]	@ 4029a8 <itc_disable_interrupt+0xc>
  4029a0:	e583000c 	str	r0, [r3, #12]
  4029a4:	e12fff1e 	bx	lr
  4029a8:	80020000 	andhi	r0, r2, r0

004029ac <itc_force_interrupt>:
  4029ac:	e3a01001 	mov	r1, #1
  4029b0:	e59f200c 	ldr	r2, [pc, #12]	@ 4029c4 <itc_force_interrupt+0x18>
  4029b4:	e5923034 	ldr	r3, [r2, #52]	@ 0x34
  4029b8:	e1833011 	orr	r3, r3, r1, lsl r0
  4029bc:	e5823034 	str	r3, [r2, #52]	@ 0x34
  4029c0:	e12fff1e 	bx	lr
  4029c4:	80020000 	andhi	r0, r2, r0

004029c8 <itc_unforce_interrupt>:
  4029c8:	e3a01001 	mov	r1, #1
  4029cc:	e59f200c 	ldr	r2, [pc, #12]	@ 4029e0 <itc_unforce_interrupt+0x18>
  4029d0:	e5923034 	ldr	r3, [r2, #52]	@ 0x34
  4029d4:	e1c33011 	bic	r3, r3, r1, lsl r0
  4029d8:	e5823034 	str	r3, [r2, #52]	@ 0x34
  4029dc:	e12fff1e 	bx	lr
  4029e0:	80020000 	andhi	r0, r2, r0

004029e4 <itc_service_normal_interrupt>:
  4029e4:	e59f300c 	ldr	r3, [pc, #12]	@ 4029f8 <itc_service_normal_interrupt+0x14>
  4029e8:	e5932028 	ldr	r2, [r3, #40]	@ 0x28
  4029ec:	e59f3008 	ldr	r3, [pc, #8]	@ 4029fc <itc_service_normal_interrupt+0x18>
  4029f0:	e7933102 	ldr	r3, [r3, r2, lsl #2]
  4029f4:	e12fff13 	bx	r3
  4029f8:	80020000 	andhi	r0, r2, r0
  4029fc:	0040fe14 	subeq	pc, r0, r4, lsl lr	@ <UNPREDICTABLE>

00402a00 <itc_service_fast_interrupt>:
  402a00:	e59f300c 	ldr	r3, [pc, #12]	@ 402a14 <itc_service_fast_interrupt+0x14>
  402a04:	e593202c 	ldr	r2, [r3, #44]	@ 0x2c
  402a08:	e59f3008 	ldr	r3, [pc, #8]	@ 402a18 <itc_service_fast_interrupt+0x18>
  402a0c:	e7933102 	ldr	r3, [r3, r2, lsl #2]
  402a10:	e12fff13 	bx	r3
  402a14:	80020000 	andhi	r0, r2, r0
  402a18:	0040fe14 	subeq	pc, r0, r4, lsl lr	@ <UNPREDICTABLE>

00402a1c <uart_send>:
  402a1c:	e3500001 	cmp	r0, #1
  402a20:	e92d41f0 	push	{r4, r5, r6, r7, r8, lr}
  402a24:	9a000006 	bls	402a44 <uart_send+0x28>
  402a28:	eb00046e 	bl	403be8 <__errno>
  402a2c:	e3a03013 	mov	r3, #19
  402a30:	e3e04000 	mvn	r4, #0
  402a34:	e5803000 	str	r3, [r0]
  402a38:	e1a00004 	mov	r0, r4
  402a3c:	e8bd41f0 	pop	{r4, r5, r6, r7, r8, lr}
  402a40:	e12fff1e 	bx	lr
  402a44:	e3510000 	cmp	r1, #0
  402a48:	e1a07001 	mov	r7, r1
  402a4c:	1a000002 	bne	402a5c <uart_send+0x40>
  402a50:	eb000464 	bl	403be8 <__errno>
  402a54:	e3a0300e 	mov	r3, #14
  402a58:	eafffff4 	b	402a30 <uart_send+0x14>
  402a5c:	e59f3064 	ldr	r3, [pc, #100]	@ 402ac8 <uart_send+0xac>
  402a60:	e7935100 	ldr	r5, [r3, r0, lsl #2]
  402a64:	e1d530b0 	ldrh	r3, [r5]
  402a68:	e3833a02 	orr	r3, r3, #8192	@ 0x2000
  402a6c:	e1c530b0 	strh	r3, [r5]
  402a70:	e3a03014 	mov	r3, #20
  402a74:	e1a08002 	mov	r8, r2
  402a78:	e3a04000 	mov	r4, #0
  402a7c:	e59f6048 	ldr	r6, [pc, #72]	@ 402acc <uart_send+0xb0>
  402a80:	e0266093 	mla	r6, r3, r0, r6
  402a84:	e1a00006 	mov	r0, r6
  402a88:	eb0001b8 	bl	403170 <circular_buffer_is_full>
  402a8c:	e0583004 	subs	r3, r8, r4
  402a90:	13a03001 	movne	r3, #1
  402a94:	e3500000 	cmp	r0, #0
  402a98:	13a03000 	movne	r3, #0
  402a9c:	e3530000 	cmp	r3, #0
  402aa0:	1a000003 	bne	402ab4 <uart_send+0x98>
  402aa4:	e1d530b0 	ldrh	r3, [r5]
  402aa8:	e3c33a02 	bic	r3, r3, #8192	@ 0x2000
  402aac:	e1c530b0 	strh	r3, [r5]
  402ab0:	eaffffe0 	b	402a38 <uart_send+0x1c>
  402ab4:	e7d71004 	ldrb	r1, [r7, r4]
  402ab8:	e1a00006 	mov	r0, r6
  402abc:	eb0001b5 	bl	403198 <circular_buffer_write>
  402ac0:	e2844001 	add	r4, r4, #1
  402ac4:	eaffffee 	b	402a84 <uart_send+0x68>
  402ac8:	00403a40 	subeq	r3, r0, r0, asr #20
  402acc:	0040fe44 	subeq	pc, r0, r4, asr #28

00402ad0 <uart_isr>:
  402ad0:	e92d41f0 	push	{r4, r5, r6, r7, r8, lr}
  402ad4:	e59f3100 	ldr	r3, [pc, #256]	@ 402bdc <uart_isr+0x10c>
  402ad8:	e7934100 	ldr	r4, [r3, r0, lsl #2]
  402adc:	e5943004 	ldr	r3, [r4, #4]
  402ae0:	e5943004 	ldr	r3, [r4, #4]
  402ae4:	e3130040 	tst	r3, #64	@ 0x40
  402ae8:	e1a05000 	mov	r5, r0
  402aec:	0a000016 	beq	402b4c <uart_isr+0x7c>
  402af0:	e3a03014 	mov	r3, #20
  402af4:	e59f60e4 	ldr	r6, [pc, #228]	@ 402be0 <uart_isr+0x110>
  402af8:	e0266093 	mla	r6, r3, r0, r6
  402afc:	e1a00006 	mov	r0, r6
  402b00:	eb00019a 	bl	403170 <circular_buffer_is_full>
  402b04:	e3500000 	cmp	r0, #0
  402b08:	1a000002 	bne	402b18 <uart_isr+0x48>
  402b0c:	e594300c 	ldr	r3, [r4, #12]
  402b10:	e313003f 	tst	r3, #63	@ 0x3f
  402b14:	1a000027 	bne	402bb8 <uart_isr+0xe8>
  402b18:	e59f30c4 	ldr	r3, [pc, #196]	@ 402be4 <uart_isr+0x114>
  402b1c:	e0833185 	add	r3, r3, r5, lsl #3
  402b20:	e5932054 	ldr	r2, [r3, #84]	@ 0x54
  402b24:	e3520000 	cmp	r2, #0
  402b28:	15933054 	ldrne	r3, [r3, #84]	@ 0x54
  402b2c:	11a0e00f 	movne	lr, pc
  402b30:	112fff13 	bxne	r3
  402b34:	e1a00006 	mov	r0, r6
  402b38:	eb00018c 	bl	403170 <circular_buffer_is_full>
  402b3c:	e3500000 	cmp	r0, #0
  402b40:	11d430b0 	ldrhne	r3, [r4]
  402b44:	13833901 	orrne	r3, r3, #16384	@ 0x4000
  402b48:	11c430b0 	strhne	r3, [r4]
  402b4c:	e5943004 	ldr	r3, [r4, #4]
  402b50:	e3130080 	tst	r3, #128	@ 0x80
  402b54:	0a000015 	beq	402bb0 <uart_isr+0xe0>
  402b58:	e3a06014 	mov	r6, #20
  402b5c:	e59f7080 	ldr	r7, [pc, #128]	@ 402be4 <uart_isr+0x114>
  402b60:	e0267695 	mla	r6, r5, r6, r7
  402b64:	e1a00006 	mov	r0, r6
  402b68:	eb000186 	bl	403188 <circular_buffer_is_empty>
  402b6c:	e3500000 	cmp	r0, #0
  402b70:	1a000002 	bne	402b80 <uart_isr+0xb0>
  402b74:	e5943010 	ldr	r3, [r4, #16]
  402b78:	e313003f 	tst	r3, #63	@ 0x3f
  402b7c:	1a000011 	bne	402bc8 <uart_isr+0xf8>
  402b80:	e0877185 	add	r7, r7, r5, lsl #3
  402b84:	e5973050 	ldr	r3, [r7, #80]	@ 0x50
  402b88:	e3530000 	cmp	r3, #0
  402b8c:	15973050 	ldrne	r3, [r7, #80]	@ 0x50
  402b90:	11a0e00f 	movne	lr, pc
  402b94:	112fff13 	bxne	r3
  402b98:	e1a00006 	mov	r0, r6
  402b9c:	eb000179 	bl	403188 <circular_buffer_is_empty>
  402ba0:	e3500000 	cmp	r0, #0
  402ba4:	11d430b0 	ldrhne	r3, [r4]
  402ba8:	13833a02 	orrne	r3, r3, #8192	@ 0x2000
  402bac:	11c430b0 	strhne	r3, [r4]
  402bb0:	e8bd41f0 	pop	{r4, r5, r6, r7, r8, lr}
  402bb4:	e12fff1e 	bx	lr
  402bb8:	e1a00006 	mov	r0, r6
  402bbc:	e5d41008 	ldrb	r1, [r4, #8]
  402bc0:	eb000174 	bl	403198 <circular_buffer_write>
  402bc4:	eaffffcc 	b	402afc <uart_isr+0x2c>
  402bc8:	e1a00006 	mov	r0, r6
  402bcc:	eb000188 	bl	4031f4 <circular_buffer_read>
  402bd0:	e20000ff 	and	r0, r0, #255	@ 0xff
  402bd4:	e5c40008 	strb	r0, [r4, #8]
  402bd8:	eaffffe1 	b	402b64 <uart_isr+0x94>
  402bdc:	00403a40 	subeq	r3, r0, r0, asr #20
  402be0:	0040fe6c 	subeq	pc, r0, ip, ror #28
  402be4:	0040fe44 	subeq	pc, r0, r4, asr #28

00402be8 <uart_2_isr>:
  402be8:	e3a00001 	mov	r0, #1
  402bec:	eaffffb7 	b	402ad0 <uart_isr>

00402bf0 <uart_1_isr>:
  402bf0:	e3a00000 	mov	r0, #0
  402bf4:	eaffffb5 	b	402ad0 <uart_isr>

00402bf8 <uart_receive>:
  402bf8:	e3500001 	cmp	r0, #1
  402bfc:	e92d41f0 	push	{r4, r5, r6, r7, r8, lr}
  402c00:	9a000006 	bls	402c20 <uart_receive+0x28>
  402c04:	eb0003f7 	bl	403be8 <__errno>
  402c08:	e3a03013 	mov	r3, #19
  402c0c:	e3e04000 	mvn	r4, #0
  402c10:	e5803000 	str	r3, [r0]
  402c14:	e1a00004 	mov	r0, r4
  402c18:	e8bd41f0 	pop	{r4, r5, r6, r7, r8, lr}
  402c1c:	e12fff1e 	bx	lr
  402c20:	e3510000 	cmp	r1, #0
  402c24:	e1a07001 	mov	r7, r1
  402c28:	1a000002 	bne	402c38 <uart_receive+0x40>
  402c2c:	eb0003ed 	bl	403be8 <__errno>
  402c30:	e3a0300e 	mov	r3, #14
  402c34:	eafffff4 	b	402c0c <uart_receive+0x14>
  402c38:	e59f3064 	ldr	r3, [pc, #100]	@ 402ca4 <uart_receive+0xac>
  402c3c:	e7935100 	ldr	r5, [r3, r0, lsl #2]
  402c40:	e1d530b0 	ldrh	r3, [r5]
  402c44:	e3833901 	orr	r3, r3, #16384	@ 0x4000
  402c48:	e1c530b0 	strh	r3, [r5]
  402c4c:	e3a03014 	mov	r3, #20
  402c50:	e1a08002 	mov	r8, r2
  402c54:	e3a04000 	mov	r4, #0
  402c58:	e59f6048 	ldr	r6, [pc, #72]	@ 402ca8 <uart_receive+0xb0>
  402c5c:	e0266093 	mla	r6, r3, r0, r6
  402c60:	e1a00006 	mov	r0, r6
  402c64:	eb000147 	bl	403188 <circular_buffer_is_empty>
  402c68:	e0583004 	subs	r3, r8, r4
  402c6c:	13a03001 	movne	r3, #1
  402c70:	e3500000 	cmp	r0, #0
  402c74:	13a03000 	movne	r3, #0
  402c78:	e3530000 	cmp	r3, #0
  402c7c:	1a000003 	bne	402c90 <uart_receive+0x98>
  402c80:	e1d530b0 	ldrh	r3, [r5]
  402c84:	e3c33901 	bic	r3, r3, #16384	@ 0x4000
  402c88:	e1c530b0 	strh	r3, [r5]
  402c8c:	eaffffe0 	b	402c14 <uart_receive+0x1c>
  402c90:	e1a00006 	mov	r0, r6
  402c94:	eb000156 	bl	4031f4 <circular_buffer_read>
  402c98:	e7c70004 	strb	r0, [r7, r4]
  402c9c:	e2844001 	add	r4, r4, #1
  402ca0:	eaffffee 	b	402c60 <uart_receive+0x68>
  402ca4:	00403a40 	subeq	r3, r0, r0, asr #20
  402ca8:	0040fe6c 	subeq	pc, r0, ip, ror #28

00402cac <uart_init>:
  402cac:	e92d4ff0 	push	{r4, r5, r6, r7, r8, r9, sl, fp, lr}
  402cb0:	e3500001 	cmp	r0, #1
  402cb4:	e24dd01c 	sub	sp, sp, #28
  402cb8:	9a000006 	bls	402cd8 <uart_init+0x2c>
  402cbc:	eb0003c9 	bl	403be8 <__errno>
  402cc0:	e3a03013 	mov	r3, #19
  402cc4:	e5803000 	str	r3, [r0]
  402cc8:	e3e00000 	mvn	r0, #0
  402ccc:	e28dd01c 	add	sp, sp, #28
  402cd0:	e8bd4ff0 	pop	{r4, r5, r6, r7, r8, r9, sl, fp, lr}
  402cd4:	e12fff1e 	bx	lr
  402cd8:	e3520000 	cmp	r2, #0
  402cdc:	e1a08002 	mov	r8, r2
  402ce0:	1a000002 	bne	402cf0 <uart_init+0x44>
  402ce4:	eb0003bf 	bl	403be8 <__errno>
  402ce8:	e3a0300e 	mov	r3, #14
  402cec:	eafffff4 	b	402cc4 <uart_init+0x18>
  402cf0:	e3a03a06 	mov	r3, #24576	@ 0x6000
  402cf4:	e59f7168 	ldr	r7, [pc, #360]	@ 402e64 <uart_init+0x1b8>
  402cf8:	e7976100 	ldr	r6, [r7, r0, lsl #2]
  402cfc:	e5863000 	str	r3, [r6]
  402d00:	e59f3160 	ldr	r3, [pc, #352]	@ 402e68 <uart_init+0x1bc>
  402d04:	e0010193 	mul	r1, r3, r1
  402d08:	e1a05000 	mov	r5, r0
  402d0c:	e59f0158 	ldr	r0, [pc, #344]	@ 402e6c <uart_init+0x1c0>
  402d10:	e082c091 	umull	ip, r2, r1, r0
  402d14:	e1a028a2 	lsr	r2, r2, #17
  402d18:	e1833802 	orr	r3, r3, r2, lsl #16
  402d1c:	e5863018 	str	r3, [r6, #24]
  402d20:	e0877105 	add	r7, r7, r5, lsl #2
  402d24:	e5963000 	ldr	r3, [r6]
  402d28:	e5d7b008 	ldrb	fp, [r7, #8]
  402d2c:	e3833003 	orr	r3, r3, #3
  402d30:	e5863000 	str	r3, [r6]
  402d34:	e3a01001 	mov	r1, #1
  402d38:	e1a0000b 	mov	r0, fp
  402d3c:	ebfffecf 	bl	402880 <gpio_set_pin_func>
  402d40:	e5d79009 	ldrb	r9, [r7, #9]
  402d44:	e3a01001 	mov	r1, #1
  402d48:	e1a00009 	mov	r0, r9
  402d4c:	ebfffecb 	bl	402880 <gpio_set_pin_func>
  402d50:	e5d7a00a 	ldrb	sl, [r7, #10]
  402d54:	e3a01001 	mov	r1, #1
  402d58:	e1a0000a 	mov	r0, sl
  402d5c:	ebfffec7 	bl	402880 <gpio_set_pin_func>
  402d60:	e5d7400b 	ldrb	r4, [r7, #11]
  402d64:	e3a01001 	mov	r1, #1
  402d68:	e1a00004 	mov	r0, r4
  402d6c:	ebfffec3 	bl	402880 <gpio_set_pin_func>
  402d70:	e1a0000b 	mov	r0, fp
  402d74:	ebfffe5a 	bl	4026e4 <gpio_set_pin_dir_output>
  402d78:	e1a0000a 	mov	r0, sl
  402d7c:	ebfffe58 	bl	4026e4 <gpio_set_pin_dir_output>
  402d80:	e1a00009 	mov	r0, r9
  402d84:	e3a09014 	mov	r9, #20
  402d88:	e0090995 	mul	r9, r5, r9
  402d8c:	ebfffe48 	bl	4026b4 <gpio_set_pin_dir_input>
  402d90:	e1a00004 	mov	r0, r4
  402d94:	e59f40d4 	ldr	r4, [pc, #212]	@ 402e70 <uart_init+0x1c4>
  402d98:	ebfffe45 	bl	4026b4 <gpio_set_pin_dir_input>
  402d9c:	e2841060 	add	r1, r4, #96	@ 0x60
  402da0:	e2840028 	add	r0, r4, #40	@ 0x28
  402da4:	e0800009 	add	r0, r0, r9
  402da8:	e3a02c01 	mov	r2, #256	@ 0x100
  402dac:	e0811405 	add	r1, r1, r5, lsl #8
  402db0:	eb0000e7 	bl	403154 <circular_buffer_init>
  402db4:	e1a0a405 	lsl	sl, r5, #8
  402db8:	e2841e26 	add	r1, r4, #608	@ 0x260
  402dbc:	e3a02c01 	mov	r2, #256	@ 0x100
  402dc0:	e0840009 	add	r0, r4, r9
  402dc4:	e081100a 	add	r1, r1, sl
  402dc8:	eb0000e1 	bl	403154 <circular_buffer_init>
  402dcc:	e5d63010 	ldrb	r3, [r6, #16]
  402dd0:	e383301f 	orr	r3, r3, #31
  402dd4:	e5c63010 	strb	r3, [r6, #16]
  402dd8:	e5d6300c 	ldrb	r3, [r6, #12]
  402ddc:	e2859001 	add	r9, r5, #1
  402de0:	e3c3301e 	bic	r3, r3, #30
  402de4:	e3833001 	orr	r3, r3, #1
  402de8:	e20990ff 	and	r9, r9, #255	@ 0xff
  402dec:	e5c6300c 	strb	r3, [r6, #12]
  402df0:	e3a01000 	mov	r1, #0
  402df4:	e1a00009 	mov	r0, r9
  402df8:	ebfffed9 	bl	402964 <itc_set_priority>
  402dfc:	e5971010 	ldr	r1, [r7, #16]
  402e00:	e1a00009 	mov	r0, r9
  402e04:	ebfffed2 	bl	402954 <itc_set_handler>
  402e08:	e1a00009 	mov	r0, r9
  402e0c:	ebfffede 	bl	40298c <itc_enable_interrupt>
  402e10:	e0843185 	add	r3, r4, r5, lsl #3
  402e14:	e3a04000 	mov	r4, #0
  402e18:	e5834050 	str	r4, [r3, #80]	@ 0x50
  402e1c:	e5834054 	str	r4, [r3, #84]	@ 0x54
  402e20:	e1d630b0 	ldrh	r3, [r6]
  402e24:	e3c33901 	bic	r3, r3, #16384	@ 0x4000
  402e28:	e1c630b0 	strh	r3, [r6]
  402e2c:	e59f3040 	ldr	r3, [pc, #64]	@ 402e74 <uart_init+0x1c8>
  402e30:	e58d3004 	str	r3, [sp, #4]
  402e34:	e59f303c 	ldr	r3, [pc, #60]	@ 402e78 <uart_init+0x1cc>
  402e38:	e1a02004 	mov	r2, r4
  402e3c:	e58d3000 	str	r3, [sp]
  402e40:	e1a01005 	mov	r1, r5
  402e44:	e1a03004 	mov	r3, r4
  402e48:	e1a00008 	mov	r0, r8
  402e4c:	e58d4010 	str	r4, [sp, #16]
  402e50:	e58d400c 	str	r4, [sp, #12]
  402e54:	e58d4008 	str	r4, [sp, #8]
  402e58:	eb00011d 	bl	4032d4 <bsp_register_dev>
  402e5c:	e1a00004 	mov	r0, r4
  402e60:	eaffff99 	b	402ccc <uart_init+0x20>
  402e64:	00403a40 	subeq	r3, r0, r0, asr #20
  402e68:	0000270f 	andeq	r2, r0, pc, lsl #14
  402e6c:	165e9f81 	ldrbne	r9, [lr], -r1, lsl #31
  402e70:	0040fe44 	subeq	pc, r0, r4, asr #28
  402e74:	00402a1c 	subeq	r2, r0, ip, lsl sl
  402e78:	00402bf8 	strdeq	r2, [r0], #-184	@ 0xffffff48

00402e7c <uart_send_byte>:
  402e7c:	e92d41f0 	push	{r4, r5, r6, r7, r8, lr}
  402e80:	e59f3080 	ldr	r3, [pc, #128]	@ 402f08 <uart_send_byte+0x8c>
  402e84:	e7934100 	ldr	r4, [r3, r0, lsl #2]
  402e88:	e5945000 	ldr	r5, [r4]
  402e8c:	e1d430b0 	ldrh	r3, [r4]
  402e90:	e3833a02 	orr	r3, r3, #8192	@ 0x2000
  402e94:	e1c430b0 	strh	r3, [r4]
  402e98:	e3a03014 	mov	r3, #20
  402e9c:	e1a07001 	mov	r7, r1
  402ea0:	e59f6064 	ldr	r6, [pc, #100]	@ 402f0c <uart_send_byte+0x90>
  402ea4:	e0266093 	mla	r6, r3, r0, r6
  402ea8:	e1a056a5 	lsr	r5, r5, #13
  402eac:	e2055001 	and	r5, r5, #1
  402eb0:	e1a00006 	mov	r0, r6
  402eb4:	eb0000b3 	bl	403188 <circular_buffer_is_empty>
  402eb8:	e3500000 	cmp	r0, #0
  402ebc:	0a00000d 	beq	402ef8 <uart_send_byte+0x7c>
  402ec0:	e5943010 	ldr	r3, [r4, #16]
  402ec4:	e313003f 	tst	r3, #63	@ 0x3f
  402ec8:	0afffffc 	beq	402ec0 <uart_send_byte+0x44>
  402ecc:	e5c47008 	strb	r7, [r4, #8]
  402ed0:	e1d430b0 	ldrh	r3, [r4]
  402ed4:	e3c33a02 	bic	r3, r3, #8192	@ 0x2000
  402ed8:	e1833685 	orr	r3, r3, r5, lsl #13
  402edc:	e1c430b0 	strh	r3, [r4]
  402ee0:	e8bd41f0 	pop	{r4, r5, r6, r7, r8, lr}
  402ee4:	e12fff1e 	bx	lr
  402ee8:	e1a00006 	mov	r0, r6
  402eec:	eb0000c0 	bl	4031f4 <circular_buffer_read>
  402ef0:	e20000ff 	and	r0, r0, #255	@ 0xff
  402ef4:	e5c40008 	strb	r0, [r4, #8]
  402ef8:	e5943010 	ldr	r3, [r4, #16]
  402efc:	e313003f 	tst	r3, #63	@ 0x3f
  402f00:	1afffff8 	bne	402ee8 <uart_send_byte+0x6c>
  402f04:	eaffffe9 	b	402eb0 <uart_send_byte+0x34>
  402f08:	00403a40 	subeq	r3, r0, r0, asr #20
  402f0c:	0040fe44 	subeq	pc, r0, r4, asr #28

00402f10 <uart_receive_byte>:
  402f10:	e92d4070 	push	{r4, r5, r6, lr}
  402f14:	e59f306c 	ldr	r3, [pc, #108]	@ 402f88 <uart_receive_byte+0x78>
  402f18:	e7934100 	ldr	r4, [r3, r0, lsl #2]
  402f1c:	e5945000 	ldr	r5, [r4]
  402f20:	e1d430b0 	ldrh	r3, [r4]
  402f24:	e3833901 	orr	r3, r3, #16384	@ 0x4000
  402f28:	e1c430b0 	strh	r3, [r4]
  402f2c:	e3a03014 	mov	r3, #20
  402f30:	e59f6054 	ldr	r6, [pc, #84]	@ 402f8c <uart_receive_byte+0x7c>
  402f34:	e0266093 	mla	r6, r3, r0, r6
  402f38:	e1a00006 	mov	r0, r6
  402f3c:	eb000091 	bl	403188 <circular_buffer_is_empty>
  402f40:	e1a05725 	lsr	r5, r5, #14
  402f44:	e3500000 	cmp	r0, #0
  402f48:	e2055001 	and	r5, r5, #1
  402f4c:	1a000008 	bne	402f74 <uart_receive_byte+0x64>
  402f50:	e1a00006 	mov	r0, r6
  402f54:	eb0000a6 	bl	4031f4 <circular_buffer_read>
  402f58:	e1d430b0 	ldrh	r3, [r4]
  402f5c:	e3c33901 	bic	r3, r3, #16384	@ 0x4000
  402f60:	e1833705 	orr	r3, r3, r5, lsl #14
  402f64:	e1c430b0 	strh	r3, [r4]
  402f68:	e20000ff 	and	r0, r0, #255	@ 0xff
  402f6c:	e8bd4070 	pop	{r4, r5, r6, lr}
  402f70:	e12fff1e 	bx	lr
  402f74:	e594300c 	ldr	r3, [r4, #12]
  402f78:	e313003f 	tst	r3, #63	@ 0x3f
  402f7c:	0afffffc 	beq	402f74 <uart_receive_byte+0x64>
  402f80:	e5d40008 	ldrb	r0, [r4, #8]
  402f84:	eafffff3 	b	402f58 <uart_receive_byte+0x48>
  402f88:	00403a40 	subeq	r3, r0, r0, asr #20
  402f8c:	0040fe6c 	subeq	pc, r0, ip, ror #28

00402f90 <uart_set_receive_callback>:
  402f90:	e3500001 	cmp	r0, #1
  402f94:	9a000006 	bls	402fb4 <uart_set_receive_callback+0x24>
  402f98:	e92d4010 	push	{r4, lr}
  402f9c:	eb000311 	bl	403be8 <__errno>
  402fa0:	e3a03013 	mov	r3, #19
  402fa4:	e8bd4010 	pop	{r4, lr}
  402fa8:	e5803000 	str	r3, [r0]
  402fac:	e3e00000 	mvn	r0, #0
  402fb0:	e12fff1e 	bx	lr
  402fb4:	e59f300c 	ldr	r3, [pc, #12]	@ 402fc8 <uart_set_receive_callback+0x38>
  402fb8:	e0833180 	add	r3, r3, r0, lsl #3
  402fbc:	e5831054 	str	r1, [r3, #84]	@ 0x54
  402fc0:	e3a00000 	mov	r0, #0
  402fc4:	e12fff1e 	bx	lr
  402fc8:	0040fe44 	subeq	pc, r0, r4, asr #28

00402fcc <uart_set_send_callback>:
  402fcc:	e3500001 	cmp	r0, #1
  402fd0:	9a000006 	bls	402ff0 <uart_set_send_callback+0x24>
  402fd4:	e92d4010 	push	{r4, lr}
  402fd8:	eb000302 	bl	403be8 <__errno>
  402fdc:	e3a03013 	mov	r3, #19
  402fe0:	e8bd4010 	pop	{r4, lr}
  402fe4:	e5803000 	str	r3, [r0]
  402fe8:	e3e00000 	mvn	r0, #0
  402fec:	e12fff1e 	bx	lr
  402ff0:	e59f300c 	ldr	r3, [pc, #12]	@ 403004 <uart_set_send_callback+0x38>
  402ff4:	e0833180 	add	r3, r3, r0, lsl #3
  402ff8:	e5831050 	str	r1, [r3, #80]	@ 0x50
  402ffc:	e3a00000 	mov	r0, #0
  403000:	e12fff1e 	bx	lr
  403004:	0040fe44 	subeq	pc, r0, r4, asr #28

00403008 <timerEnable>:
  403008:	e3500003 	cmp	r0, #3
  40300c:	812fff1e 	bxhi	lr
  403010:	e3a01001 	mov	r1, #1
  403014:	e59f2014 	ldr	r2, [pc, #20]	@ 403030 <timerEnable+0x28>
  403018:	e1d231b8 	ldrh	r3, [r2, #24]
  40301c:	e1830011 	orr	r0, r3, r1, lsl r0
  403020:	e1a00800 	lsl	r0, r0, #16
  403024:	e1a00820 	lsr	r0, r0, #16
  403028:	e1c201b8 	strh	r0, [r2, #24]
  40302c:	e12fff1e 	bx	lr
  403030:	80007000 	andhi	r7, r0, r0

00403034 <timerDisable>:
  403034:	e3500003 	cmp	r0, #3
  403038:	812fff1e 	bxhi	lr
  40303c:	e3a01001 	mov	r1, #1
  403040:	e59f200c 	ldr	r2, [pc, #12]	@ 403054 <timerDisable+0x20>
  403044:	e1d231b8 	ldrh	r3, [r2, #24]
  403048:	e1c33011 	bic	r3, r3, r1, lsl r0
  40304c:	e1c231b8 	strh	r3, [r2, #24]
  403050:	e12fff1e 	bx	lr
  403054:	80007000 	andhi	r7, r0, r0

00403058 <clearInt>:
  403058:	e1a00280 	lsl	r0, r0, #5
  40305c:	e2800102 	add	r0, r0, #-2147483648	@ 0x80000000
  403060:	e2800a07 	add	r0, r0, #28672	@ 0x7000
  403064:	e1d030be 	ldrh	r3, [r0, #14]
  403068:	e3c33902 	bic	r3, r3, #32768	@ 0x8000
  40306c:	e1c030be 	strh	r3, [r0, #14]
  403070:	e1d031b4 	ldrh	r3, [r0, #20]
  403074:	e3c33010 	bic	r3, r3, #16
  403078:	e1c031b4 	strh	r3, [r0, #20]
  40307c:	e1d031b4 	ldrh	r3, [r0, #20]
  403080:	e3c33020 	bic	r3, r3, #32
  403084:	e1c031b4 	strh	r3, [r0, #20]
  403088:	e12fff1e 	bx	lr

0040308c <TimerInt_Init>:
  40308c:	e92d4070 	push	{r4, r5, r6, lr}
  403090:	e1a06000 	mov	r6, r0
  403094:	e1a04280 	lsl	r4, r0, #5
  403098:	e59f0070 	ldr	r0, [pc, #112]	@ 403110 <TimerInt_Init+0x84>
  40309c:	eb000165 	bl	403638 <__divsi3>
  4030a0:	e1a05000 	mov	r5, r0
  4030a4:	e1a00006 	mov	r0, r6
  4030a8:	ebffffe1 	bl	403034 <timerDisable>
  4030ac:	e3a03020 	mov	r3, #32
  4030b0:	e3a02000 	mov	r2, #0
  4030b4:	e2844102 	add	r4, r4, #-2147483648	@ 0x80000000
  4030b8:	e2844a07 	add	r4, r4, #28672	@ 0x7000
  4030bc:	e1c430bc 	strh	r3, [r4, #12]
  4030c0:	e1a03805 	lsl	r3, r5, #16
  4030c4:	e1a03823 	lsr	r3, r3, #16
  4030c8:	e1c420be 	strh	r2, [r4, #14]
  4030cc:	e1c420b6 	strh	r2, [r4, #6]
  4030d0:	e1c430b0 	strh	r3, [r4]
  4030d4:	e1c431b0 	strh	r3, [r4, #16]
  4030d8:	e3a03041 	mov	r3, #65	@ 0x41
  4030dc:	e1c431b4 	strh	r3, [r4, #20]
  4030e0:	e1d430bc 	ldrh	r3, [r4, #12]
  4030e4:	e3833c1e 	orr	r3, r3, #7680	@ 0x1e00
  4030e8:	e1c430bc 	strh	r3, [r4, #12]
  4030ec:	e1c420ba 	strh	r2, [r4, #10]
  4030f0:	e1d430bc 	ldrh	r3, [r4, #12]
  4030f4:	e3c33903 	bic	r3, r3, #49152	@ 0xc000
  4030f8:	e3833a02 	orr	r3, r3, #8192	@ 0x2000
  4030fc:	e1c430bc 	strh	r3, [r4, #12]
  403100:	ebffffd4 	bl	403058 <clearInt>
  403104:	e1a00006 	mov	r0, r6
  403108:	e8bd4070 	pop	{r4, r5, r6, lr}
  40310c:	eaffffbd 	b	403008 <timerEnable>
  403110:	0002dc6c 	andeq	sp, r2, ip, ror #24

00403114 <getIntTmr>:
  403114:	e59f2034 	ldr	r2, [pc, #52]	@ 403150 <getIntTmr+0x3c>
  403118:	e1d230be 	ldrh	r3, [r2, #14]
  40311c:	e1d202be 	ldrh	r0, [r2, #46]	@ 0x2e
  403120:	e1a037a3 	lsr	r3, r3, #15
  403124:	e1b007a0 	lsrs	r0, r0, #15
  403128:	02233001 	eoreq	r3, r3, #1
  40312c:	01a00103 	lsleq	r0, r3, #2
  403130:	e1d234be 	ldrh	r3, [r2, #78]	@ 0x4e
  403134:	e1b037a3 	lsrs	r3, r3, #15
  403138:	e59f3010 	ldr	r3, [pc, #16]	@ 403150 <getIntTmr+0x3c>
  40313c:	e1d336be 	ldrh	r3, [r3, #110]	@ 0x6e
  403140:	13a00002 	movne	r0, #2
  403144:	e1b037a3 	lsrs	r3, r3, #15
  403148:	13a00003 	movne	r0, #3
  40314c:	e12fff1e 	bx	lr
  403150:	80007000 	andhi	r7, r0, r0

00403154 <circular_buffer_init>:
  403154:	e3a03000 	mov	r3, #0
  403158:	e5801000 	str	r1, [r0]
  40315c:	e5802004 	str	r2, [r0, #4]
  403160:	e5803008 	str	r3, [r0, #8]
  403164:	e580300c 	str	r3, [r0, #12]
  403168:	e5803010 	str	r3, [r0, #16]
  40316c:	e12fff1e 	bx	lr

00403170 <circular_buffer_is_full>:
  403170:	e5902010 	ldr	r2, [r0, #16]
  403174:	e5900004 	ldr	r0, [r0, #4]
  403178:	e0423000 	sub	r3, r2, r0
  40317c:	e2730000 	rsbs	r0, r3, #0
  403180:	e0a00003 	adc	r0, r0, r3
  403184:	e12fff1e 	bx	lr

00403188 <circular_buffer_is_empty>:
  403188:	e5900010 	ldr	r0, [r0, #16]
  40318c:	e2700001 	rsbs	r0, r0, #1
  403190:	33a00000 	movcc	r0, #0
  403194:	e12fff1e 	bx	lr

00403198 <circular_buffer_write>:
  403198:	e1a03000 	mov	r3, r0
  40319c:	e1a00001 	mov	r0, r1
  4031a0:	e5931010 	ldr	r1, [r3, #16]
  4031a4:	e5932004 	ldr	r2, [r3, #4]
  4031a8:	e1510002 	cmp	r1, r2
  4031ac:	0a00000e 	beq	4031ec <circular_buffer_write+0x54>
  4031b0:	e5931000 	ldr	r1, [r3]
  4031b4:	e593200c 	ldr	r2, [r3, #12]
  4031b8:	e7c10002 	strb	r0, [r1, r2]
  4031bc:	e5932010 	ldr	r2, [r3, #16]
  4031c0:	e2822001 	add	r2, r2, #1
  4031c4:	e5832010 	str	r2, [r3, #16]
  4031c8:	e593200c 	ldr	r2, [r3, #12]
  4031cc:	e2822001 	add	r2, r2, #1
  4031d0:	e583200c 	str	r2, [r3, #12]
  4031d4:	e593100c 	ldr	r1, [r3, #12]
  4031d8:	e5932004 	ldr	r2, [r3, #4]
  4031dc:	e1510002 	cmp	r1, r2
  4031e0:	03a02000 	moveq	r2, #0
  4031e4:	0583200c 	streq	r2, [r3, #12]
  4031e8:	e12fff1e 	bx	lr
  4031ec:	e3e00000 	mvn	r0, #0
  4031f0:	e12fff1e 	bx	lr

004031f4 <circular_buffer_read>:
  4031f4:	e5903010 	ldr	r3, [r0, #16]
  4031f8:	e3530000 	cmp	r3, #0
  4031fc:	0a00000f 	beq	403240 <circular_buffer_read+0x4c>
  403200:	e5902000 	ldr	r2, [r0]
  403204:	e5903008 	ldr	r3, [r0, #8]
  403208:	e7d23003 	ldrb	r3, [r2, r3]
  40320c:	e5902010 	ldr	r2, [r0, #16]
  403210:	e2422001 	sub	r2, r2, #1
  403214:	e5802010 	str	r2, [r0, #16]
  403218:	e5902008 	ldr	r2, [r0, #8]
  40321c:	e2822001 	add	r2, r2, #1
  403220:	e5802008 	str	r2, [r0, #8]
  403224:	e5901008 	ldr	r1, [r0, #8]
  403228:	e5902004 	ldr	r2, [r0, #4]
  40322c:	e1510002 	cmp	r1, r2
  403230:	03a02000 	moveq	r2, #0
  403234:	05802008 	streq	r2, [r0, #8]
  403238:	e1a00003 	mov	r0, r3
  40323c:	e12fff1e 	bx	lr
  403240:	e3e00000 	mvn	r0, #0
  403244:	e12fff1e 	bx	lr

00403248 <bsp_init>:
  403248:	e92d4070 	push	{r4, r5, r6, lr}
  40324c:	e59f4070 	ldr	r4, [pc, #112]	@ 4032c4 <bsp_init+0x7c>
  403250:	e59f5070 	ldr	r5, [pc, #112]	@ 4032c8 <bsp_init+0x80>
  403254:	eb00009e 	bl	4034d4 <excep_init>
  403258:	ebfffd9f 	bl	4028dc <itc_init>
  40325c:	e1a02004 	mov	r2, r4
  403260:	e1a01005 	mov	r1, r5
  403264:	e3a00000 	mov	r0, #0
  403268:	ebfffe8f 	bl	402cac <uart_init>
  40326c:	e1a01005 	mov	r1, r5
  403270:	e59f2054 	ldr	r2, [pc, #84]	@ 4032cc <bsp_init+0x84>
  403274:	e3a00001 	mov	r0, #1
  403278:	ebfffe8b 	bl	402cac <uart_init>
  40327c:	e3a02000 	mov	r2, #0
  403280:	e59f5048 	ldr	r5, [pc, #72]	@ 4032d0 <bsp_init+0x88>
  403284:	e1a01004 	mov	r1, r4
  403288:	e1a03005 	mov	r3, r5
  40328c:	e1a00002 	mov	r0, r2
  403290:	eb00006c 	bl	403448 <redirect_fd>
  403294:	e3a02001 	mov	r2, #1
  403298:	e1a03005 	mov	r3, r5
  40329c:	e1a01004 	mov	r1, r4
  4032a0:	e1a00002 	mov	r0, r2
  4032a4:	eb000067 	bl	403448 <redirect_fd>
  4032a8:	e1a03005 	mov	r3, r5
  4032ac:	e1a01004 	mov	r1, r4
  4032b0:	e3a02001 	mov	r2, #1
  4032b4:	e3a00002 	mov	r0, #2
  4032b8:	eb000062 	bl	403448 <redirect_fd>
  4032bc:	e8bd4070 	pop	{r4, r5, r6, lr}
  4032c0:	e12fff1e 	bx	lr
  4032c4:	00403a58 	subeq	r3, r0, r8, asr sl
  4032c8:	0001c200 	andeq	ip, r1, r0, lsl #4
  4032cc:	00403a63 	subeq	r3, r0, r3, ror #20
  4032d0:	000001ff 	strdeq	r0, [r0], -pc	@ <UNPREDICTABLE>

004032d4 <bsp_register_dev>:
  4032d4:	e59fc064 	ldr	ip, [pc, #100]	@ 403340 <bsp_register_dev+0x6c>
  4032d8:	e92d4010 	push	{r4, lr}
  4032dc:	e1a0e000 	mov	lr, r0
  4032e0:	e59c0000 	ldr	r0, [ip]
  4032e4:	e3500007 	cmp	r0, #7
  4032e8:	83e00000 	mvnhi	r0, #0
  4032ec:	8a000011 	bhi	403338 <bsp_register_dev+0x64>
  4032f0:	e2804001 	add	r4, r0, #1
  4032f4:	e58c4000 	str	r4, [ip]
  4032f8:	e3a04024 	mov	r4, #36	@ 0x24
  4032fc:	e02cc094 	mla	ip, r4, r0, ip
  403300:	e58c3010 	str	r3, [ip, #16]
  403304:	e59d3008 	ldr	r3, [sp, #8]
  403308:	e58c3014 	str	r3, [ip, #20]
  40330c:	e59d300c 	ldr	r3, [sp, #12]
  403310:	e58c3018 	str	r3, [ip, #24]
  403314:	e59d3010 	ldr	r3, [sp, #16]
  403318:	e58c301c 	str	r3, [ip, #28]
  40331c:	e59d3014 	ldr	r3, [sp, #20]
  403320:	e58c3020 	str	r3, [ip, #32]
  403324:	e59d3018 	ldr	r3, [sp, #24]
  403328:	e58ce004 	str	lr, [ip, #4]
  40332c:	e58c1008 	str	r1, [ip, #8]
  403330:	e58c200c 	str	r2, [ip, #12]
  403334:	e58c3024 	str	r3, [ip, #36]	@ 0x24
  403338:	e8bd4010 	pop	{r4, lr}
  40333c:	e12fff1e 	bx	lr
  403340:	00403a84 	subeq	r3, r0, r4, lsl #21

00403344 <find_dev>:
  403344:	e92d47f0 	push	{r4, r5, r6, r7, r8, r9, sl, lr}
  403348:	e1a07000 	mov	r7, r0
  40334c:	eb0003af 	bl	404210 <strlen>
  403350:	e3a05000 	mov	r5, #0
  403354:	e3a0a024 	mov	sl, #36	@ 0x24
  403358:	e59f4040 	ldr	r4, [pc, #64]	@ 4033a0 <find_dev+0x5c>
  40335c:	e4949004 	ldr	r9, [r4], #4
  403360:	e2806001 	add	r6, r0, #1
  403364:	e1590005 	cmp	r9, r5
  403368:	03a00000 	moveq	r0, #0
  40336c:	0a000007 	beq	403390 <find_dev+0x4c>
  403370:	e008059a 	mul	r8, sl, r5
  403374:	e1a02006 	mov	r2, r6
  403378:	e1a01007 	mov	r1, r7
  40337c:	e7980004 	ldr	r0, [r8, r4]
  403380:	eb00021c 	bl	403bf8 <memcmp>
  403384:	e3500000 	cmp	r0, #0
  403388:	1a000002 	bne	403398 <find_dev+0x54>
  40338c:	e0840008 	add	r0, r4, r8
  403390:	e8bd47f0 	pop	{r4, r5, r6, r7, r8, r9, sl, lr}
  403394:	e12fff1e 	bx	lr
  403398:	e2855001 	add	r5, r5, #1
  40339c:	eafffff0 	b	403364 <find_dev+0x20>
  4033a0:	00403a84 	subeq	r3, r0, r4, lsl #21

004033a4 <get_dev>:
  4033a4:	e59f3008 	ldr	r3, [pc, #8]	@ 4033b4 <get_dev+0x10>
  4033a8:	e0833180 	add	r3, r3, r0, lsl #3
  4033ac:	e5930124 	ldr	r0, [r3, #292]	@ 0x124
  4033b0:	e12fff1e 	bx	lr
  4033b4:	00403a84 	subeq	r3, r0, r4, lsl #21

004033b8 <get_flags>:
  4033b8:	e59f3008 	ldr	r3, [pc, #8]	@ 4033c8 <get_flags+0x10>
  4033bc:	e0833180 	add	r3, r3, r0, lsl #3
  4033c0:	e5930128 	ldr	r0, [r3, #296]	@ 0x128
  4033c4:	e12fff1e 	bx	lr
  4033c8:	00403a84 	subeq	r3, r0, r4, lsl #21

004033cc <get_fd>:
  4033cc:	e1a02000 	mov	r2, r0
  4033d0:	e3a00000 	mov	r0, #0
  4033d4:	e92d4010 	push	{r4, lr}
  4033d8:	e59f3040 	ldr	r3, [pc, #64]	@ 403420 <get_fd+0x54>
  4033dc:	e283cf49 	add	ip, r3, #292	@ 0x124
  4033e0:	e79ce180 	ldr	lr, [ip, r0, lsl #3]
  4033e4:	e35e0000 	cmp	lr, #0
  4033e8:	1a000004 	bne	403400 <get_fd+0x34>
  4033ec:	e0833180 	add	r3, r3, r0, lsl #3
  4033f0:	e5832124 	str	r2, [r3, #292]	@ 0x124
  4033f4:	e5831128 	str	r1, [r3, #296]	@ 0x128
  4033f8:	e8bd4010 	pop	{r4, lr}
  4033fc:	e12fff1e 	bx	lr
  403400:	e2800001 	add	r0, r0, #1
  403404:	e3500008 	cmp	r0, #8
  403408:	1afffff4 	bne	4033e0 <get_fd+0x14>
  40340c:	eb0001f5 	bl	403be8 <__errno>
  403410:	e3a03017 	mov	r3, #23
  403414:	e5803000 	str	r3, [r0]
  403418:	e3e00000 	mvn	r0, #0
  40341c:	eafffff5 	b	4033f8 <get_fd+0x2c>
  403420:	00403a84 	subeq	r3, r0, r4, lsl #21

00403424 <release_fd>:
  403424:	e3500002 	cmp	r0, #2
  403428:	912fff1e 	bxls	lr
  40342c:	e59f3010 	ldr	r3, [pc, #16]	@ 403444 <release_fd+0x20>
  403430:	e0830180 	add	r0, r3, r0, lsl #3
  403434:	e3a03000 	mov	r3, #0
  403438:	e5803124 	str	r3, [r0, #292]	@ 0x124
  40343c:	e5803128 	str	r3, [r0, #296]	@ 0x128
  403440:	e12fff1e 	bx	lr
  403444:	00403a84 	subeq	r3, r0, r4, lsl #21

00403448 <redirect_fd>:
  403448:	e92d41f0 	push	{r4, r5, r6, r7, r8, lr}
  40344c:	e1a06000 	mov	r6, r0
  403450:	e1a00001 	mov	r0, r1
  403454:	e1a05002 	mov	r5, r2
  403458:	e1a07003 	mov	r7, r3
  40345c:	ebffffb8 	bl	403344 <find_dev>
  403460:	e2504000 	subs	r4, r0, #0
  403464:	0a000017 	beq	4034c8 <redirect_fd+0x80>
  403468:	e5943008 	ldr	r3, [r4, #8]
  40346c:	e3530000 	cmp	r3, #0
  403470:	1a00000d 	bne	4034ac <redirect_fd+0x64>
  403474:	e1a01005 	mov	r1, r5
  403478:	e1a00004 	mov	r0, r4
  40347c:	ebffffd2 	bl	4033cc <get_fd>
  403480:	e2503000 	subs	r3, r0, #0
  403484:	ba00000f 	blt	4034c8 <redirect_fd+0x80>
  403488:	e59f2040 	ldr	r2, [pc, #64]	@ 4034d0 <redirect_fd+0x88>
  40348c:	e0823183 	add	r3, r2, r3, lsl #3
  403490:	e5931124 	ldr	r1, [r3, #292]	@ 0x124
  403494:	e5933128 	ldr	r3, [r3, #296]	@ 0x128
  403498:	e0822186 	add	r2, r2, r6, lsl #3
  40349c:	e8bd41f0 	pop	{r4, r5, r6, r7, r8, lr}
  4034a0:	e5821124 	str	r1, [r2, #292]	@ 0x124
  4034a4:	e5823128 	str	r3, [r2, #296]	@ 0x128
  4034a8:	eaffffdd 	b	403424 <release_fd>
  4034ac:	e1a02007 	mov	r2, r7
  4034b0:	e1a01005 	mov	r1, r5
  4034b4:	e5940004 	ldr	r0, [r4, #4]
  4034b8:	e1a0e00f 	mov	lr, pc
  4034bc:	e12fff13 	bx	r3
  4034c0:	e3500000 	cmp	r0, #0
  4034c4:	aaffffea 	bge	403474 <redirect_fd+0x2c>
  4034c8:	e8bd41f0 	pop	{r4, r5, r6, r7, r8, lr}
  4034cc:	e12fff1e 	bx	lr
  4034d0:	00403a84 	subeq	r3, r0, r4, lsl #21

004034d4 <excep_init>:
  4034d4:	e59f3008 	ldr	r3, [pc, #8]	@ 4034e4 <excep_init+0x10>
  4034d8:	e59f2008 	ldr	r2, [pc, #8]	@ 4034e8 <excep_init+0x14>
  4034dc:	e5832018 	str	r2, [r3, #24]
  4034e0:	e12fff1e 	bx	lr
  4034e4:	00400020 	subeq	r0, r0, r0, lsr #32
  4034e8:	004035d0 	ldrdeq	r3, [r0], #-80	@ 0xffffffb0

004034ec <excep_disable_ints>:
  4034ec:	e10f0000 	mrs	r0, CPSR
  4034f0:	e380c0c0 	orr	ip, r0, #192	@ 0xc0
  4034f4:	e121f00c 	msr	CPSR_c, ip
  4034f8:	e1a00320 	lsr	r0, r0, #6
  4034fc:	e2000003 	and	r0, r0, #3
  403500:	e12fff1e 	bx	lr

00403504 <excep_disable_irq>:
  403504:	e10f0000 	mrs	r0, CPSR
  403508:	e380c080 	orr	ip, r0, #128	@ 0x80
  40350c:	e121f00c 	msr	CPSR_c, ip
  403510:	e1a003a0 	lsr	r0, r0, #7
  403514:	e2000001 	and	r0, r0, #1
  403518:	e12fff1e 	bx	lr

0040351c <excep_disable_fiq>:
  40351c:	e10f0000 	mrs	r0, CPSR
  403520:	e380c040 	orr	ip, r0, #64	@ 0x40
  403524:	e121f00c 	msr	CPSR_c, ip
  403528:	e1a00320 	lsr	r0, r0, #6
  40352c:	e2000001 	and	r0, r0, #1
  403530:	e12fff1e 	bx	lr

00403534 <excep_restore_ints>:
  403534:	e2000003 	and	r0, r0, #3
  403538:	e10fc000 	mrs	ip, CPSR
  40353c:	e3ccc0c0 	bic	ip, ip, #192	@ 0xc0
  403540:	e18cc300 	orr	ip, ip, r0, lsl #6
  403544:	e121f00c 	msr	CPSR_c, ip
  403548:	e12fff1e 	bx	lr

0040354c <excep_restore_irq>:
  40354c:	e2000001 	and	r0, r0, #1
  403550:	e10fc000 	mrs	ip, CPSR
  403554:	e3ccc080 	bic	ip, ip, #128	@ 0x80
  403558:	e18cc380 	orr	ip, ip, r0, lsl #7
  40355c:	e121f00c 	msr	CPSR_c, ip
  403560:	e12fff1e 	bx	lr

00403564 <excep_restore_fiq>:
  403564:	e2000001 	and	r0, r0, #1
  403568:	e10fc000 	mrs	ip, CPSR
  40356c:	e3ccc040 	bic	ip, ip, #64	@ 0x40
  403570:	e18cc300 	orr	ip, ip, r0, lsl #6
  403574:	e121f00c 	msr	CPSR_c, ip
  403578:	e12fff1e 	bx	lr

0040357c <excep_set_handler>:
  40357c:	e59f3004 	ldr	r3, [pc, #4]	@ 403588 <excep_set_handler+0xc>
  403580:	e7831100 	str	r1, [r3, r0, lsl #2]
  403584:	e12fff1e 	bx	lr
  403588:	00400020 	subeq	r0, r0, r0, lsr #32

0040358c <excep_get_handler>:
  40358c:	e59f3004 	ldr	r3, [pc, #4]	@ 403598 <excep_get_handler+0xc>
  403590:	e7930100 	ldr	r0, [r3, r0, lsl #2]
  403594:	e12fff1e 	bx	lr
  403598:	00400020 	subeq	r0, r0, r0, lsr #32

0040359c <excep_nonnested_irq_handler>:
  40359c:	e24ee004 	sub	lr, lr, #4
  4035a0:	e92d500f 	push	{r0, r1, r2, r3, ip, lr}
  4035a4:	ebfffd0e 	bl	4029e4 <itc_service_normal_interrupt>
  4035a8:	e8fd900f 	ldm	sp!, {r0, r1, r2, r3, ip, pc}^
  4035ac:	00000000 	andeq	r0, r0, r0

004035b0 <excep_nonnested_irq_handler_asm>:
  4035b0:	e24ee004 	sub	lr, lr, #4
  4035b4:	e92d580f 	push	{r0, r1, r2, r3, fp, ip, lr}
  4035b8:	e59fc074 	ldr	ip, [pc, #116]	@ 403634 <excep_nested_irq_handler+0x64>
  4035bc:	e1a0e00f 	mov	lr, pc
  4035c0:	e12fff1c 	bx	ip
  4035c4:	e8fd980f 	ldm	sp!, {r0, r1, r2, r3, fp, ip, pc}^
  4035c8:	e1a00000 	nop			@ (mov r0, r0)
  4035cc:	e1a00000 	nop			@ (mov r0, r0)

004035d0 <excep_nested_irq_handler>:
  4035d0:	e24ee004 	sub	lr, lr, #4
  4035d4:	e92d580f 	push	{r0, r1, r2, r3, fp, ip, lr}
  4035d8:	e14f0000 	mrs	r0, SPSR
  4035dc:	e1a0100d 	mov	r1, sp
  4035e0:	e28dd01c 	add	sp, sp, #28
  4035e4:	e10f2000 	mrs	r2, CPSR
  4035e8:	e3c2201f 	bic	r2, r2, #31
  4035ec:	e3822013 	orr	r2, r2, #19
  4035f0:	e121f002 	msr	CPSR_c, r2
  4035f4:	e24dd030 	sub	sp, sp, #48	@ 0x30
  4035f8:	e88d07f0 	stm	sp, {r4, r5, r6, r7, r8, r9, sl}
  4035fc:	e89107f0 	ldm	r1, {r4, r5, r6, r7, r8, r9, sl}
  403600:	e92d00f0 	push	{r4, r5, r6, r7}
  403604:	e58d802c 	str	r8, [sp, #44]	@ 0x2c
  403608:	e58d9030 	str	r9, [sp, #48]	@ 0x30
  40360c:	e58da03c 	str	sl, [sp, #60]	@ 0x3c
  403610:	e58d0034 	str	r0, [sp, #52]	@ 0x34
  403614:	e58de038 	str	lr, [sp, #56]	@ 0x38
  403618:	e59fc014 	ldr	ip, [pc, #20]	@ 403634 <excep_nested_irq_handler+0x64>
  40361c:	e1a0e00f 	mov	lr, pc
  403620:	e12fff1c 	bx	ip
  403624:	e321f0d3 	msr	CPSR_c, #211	@ 0xd3
  403628:	e8bd5fff 	pop	{r0, r1, r2, r3, r4, r5, r6, r7, r8, r9, sl, fp, ip, lr}
  40362c:	e16ff00e 	msr	SPSR_fsxc, lr
  403630:	e8fdc000 	ldm	sp!, {lr, pc}^
  403634:	004029e4 	subeq	r2, r0, r4, ror #19

00403638 <__divsi3>:
  403638:	e3510000 	cmp	r1, #0
  40363c:	0a000043 	beq	403750 <.divsi3_skip_div0_test+0x110>

00403640 <.divsi3_skip_div0_test>:
  403640:	e020c001 	eor	ip, r0, r1
  403644:	42611000 	rsbmi	r1, r1, #0
  403648:	e2512001 	subs	r2, r1, #1
  40364c:	0a000027 	beq	4036f0 <.divsi3_skip_div0_test+0xb0>
  403650:	e1b03000 	movs	r3, r0
  403654:	42603000 	rsbmi	r3, r0, #0
  403658:	e1530001 	cmp	r3, r1
  40365c:	9a000026 	bls	4036fc <.divsi3_skip_div0_test+0xbc>
  403660:	e1110002 	tst	r1, r2
  403664:	0a000028 	beq	40370c <.divsi3_skip_div0_test+0xcc>
  403668:	e311020e 	tst	r1, #-536870912	@ 0xe0000000
  40366c:	01a01181 	lsleq	r1, r1, #3
  403670:	03a02008 	moveq	r2, #8
  403674:	13a02001 	movne	r2, #1
  403678:	e3510201 	cmp	r1, #268435456	@ 0x10000000
  40367c:	31510003 	cmpcc	r1, r3
  403680:	31a01201 	lslcc	r1, r1, #4
  403684:	31a02202 	lslcc	r2, r2, #4
  403688:	3afffffa 	bcc	403678 <.divsi3_skip_div0_test+0x38>
  40368c:	e3510102 	cmp	r1, #-2147483648	@ 0x80000000
  403690:	31510003 	cmpcc	r1, r3
  403694:	31a01081 	lslcc	r1, r1, #1
  403698:	31a02082 	lslcc	r2, r2, #1
  40369c:	3afffffa 	bcc	40368c <.divsi3_skip_div0_test+0x4c>
  4036a0:	e3a00000 	mov	r0, #0
  4036a4:	e1530001 	cmp	r3, r1
  4036a8:	20433001 	subcs	r3, r3, r1
  4036ac:	21800002 	orrcs	r0, r0, r2
  4036b0:	e15300a1 	cmp	r3, r1, lsr #1
  4036b4:	204330a1 	subcs	r3, r3, r1, lsr #1
  4036b8:	218000a2 	orrcs	r0, r0, r2, lsr #1
  4036bc:	e1530121 	cmp	r3, r1, lsr #2
  4036c0:	20433121 	subcs	r3, r3, r1, lsr #2
  4036c4:	21800122 	orrcs	r0, r0, r2, lsr #2
  4036c8:	e15301a1 	cmp	r3, r1, lsr #3
  4036cc:	204331a1 	subcs	r3, r3, r1, lsr #3
  4036d0:	218001a2 	orrcs	r0, r0, r2, lsr #3
  4036d4:	e3530000 	cmp	r3, #0
  4036d8:	11b02222 	lsrsne	r2, r2, #4
  4036dc:	11a01221 	lsrne	r1, r1, #4
  4036e0:	1affffef 	bne	4036a4 <.divsi3_skip_div0_test+0x64>
  4036e4:	e35c0000 	cmp	ip, #0
  4036e8:	42600000 	rsbmi	r0, r0, #0
  4036ec:	e12fff1e 	bx	lr
  4036f0:	e13c0000 	teq	ip, r0
  4036f4:	42600000 	rsbmi	r0, r0, #0
  4036f8:	e12fff1e 	bx	lr
  4036fc:	33a00000 	movcc	r0, #0
  403700:	01a00fcc 	asreq	r0, ip, #31
  403704:	03800001 	orreq	r0, r0, #1
  403708:	e12fff1e 	bx	lr
  40370c:	e3510801 	cmp	r1, #65536	@ 0x10000
  403710:	21a01821 	lsrcs	r1, r1, #16
  403714:	23a02010 	movcs	r2, #16
  403718:	33a02000 	movcc	r2, #0
  40371c:	e3510c01 	cmp	r1, #256	@ 0x100
  403720:	21a01421 	lsrcs	r1, r1, #8
  403724:	22822008 	addcs	r2, r2, #8
  403728:	e3510010 	cmp	r1, #16
  40372c:	21a01221 	lsrcs	r1, r1, #4
  403730:	22822004 	addcs	r2, r2, #4
  403734:	e3510004 	cmp	r1, #4
  403738:	82822003 	addhi	r2, r2, #3
  40373c:	908220a1 	addls	r2, r2, r1, lsr #1
  403740:	e35c0000 	cmp	ip, #0
  403744:	e1a00233 	lsr	r0, r3, r2
  403748:	42600000 	rsbmi	r0, r0, #0
  40374c:	e12fff1e 	bx	lr
  403750:	e3500000 	cmp	r0, #0
  403754:	c3e00102 	mvngt	r0, #-2147483648	@ 0x80000000
  403758:	b3a00102 	movlt	r0, #-2147483648	@ 0x80000000
  40375c:	ea000007 	b	403780 <__aeabi_idiv0>

00403760 <__aeabi_idivmod>:
  403760:	e3510000 	cmp	r1, #0
  403764:	0afffff9 	beq	403750 <.divsi3_skip_div0_test+0x110>
  403768:	e92d4003 	push	{r0, r1, lr}
  40376c:	ebffffb3 	bl	403640 <.divsi3_skip_div0_test>
  403770:	e8bd4006 	pop	{r1, r2, lr}
  403774:	e0030092 	mul	r3, r2, r0
  403778:	e0411003 	sub	r1, r1, r3
  40377c:	e12fff1e 	bx	lr

00403780 <__aeabi_idiv0>:
  403780:	e12fff1e 	bx	lr

00403784 <__udivsi3>:
  403784:	e2512001 	subs	r2, r1, #1
  403788:	012fff1e 	bxeq	lr
  40378c:	3a000036 	bcc	40386c <__udivsi3+0xe8>
  403790:	e1500001 	cmp	r0, r1
  403794:	9a000022 	bls	403824 <__udivsi3+0xa0>
  403798:	e1110002 	tst	r1, r2
  40379c:	0a000023 	beq	403830 <__udivsi3+0xac>
  4037a0:	e311020e 	tst	r1, #-536870912	@ 0xe0000000
  4037a4:	01a01181 	lsleq	r1, r1, #3
  4037a8:	03a03008 	moveq	r3, #8
  4037ac:	13a03001 	movne	r3, #1
  4037b0:	e3510201 	cmp	r1, #268435456	@ 0x10000000
  4037b4:	31510000 	cmpcc	r1, r0
  4037b8:	31a01201 	lslcc	r1, r1, #4
  4037bc:	31a03203 	lslcc	r3, r3, #4
  4037c0:	3afffffa 	bcc	4037b0 <__udivsi3+0x2c>
  4037c4:	e3510102 	cmp	r1, #-2147483648	@ 0x80000000
  4037c8:	31510000 	cmpcc	r1, r0
  4037cc:	31a01081 	lslcc	r1, r1, #1
  4037d0:	31a03083 	lslcc	r3, r3, #1
  4037d4:	3afffffa 	bcc	4037c4 <__udivsi3+0x40>
  4037d8:	e3a02000 	mov	r2, #0
  4037dc:	e1500001 	cmp	r0, r1
  4037e0:	20400001 	subcs	r0, r0, r1
  4037e4:	21822003 	orrcs	r2, r2, r3
  4037e8:	e15000a1 	cmp	r0, r1, lsr #1
  4037ec:	204000a1 	subcs	r0, r0, r1, lsr #1
  4037f0:	218220a3 	orrcs	r2, r2, r3, lsr #1
  4037f4:	e1500121 	cmp	r0, r1, lsr #2
  4037f8:	20400121 	subcs	r0, r0, r1, lsr #2
  4037fc:	21822123 	orrcs	r2, r2, r3, lsr #2
  403800:	e15001a1 	cmp	r0, r1, lsr #3
  403804:	204001a1 	subcs	r0, r0, r1, lsr #3
  403808:	218221a3 	orrcs	r2, r2, r3, lsr #3
  40380c:	e3500000 	cmp	r0, #0
  403810:	11b03223 	lsrsne	r3, r3, #4
  403814:	11a01221 	lsrne	r1, r1, #4
  403818:	1affffef 	bne	4037dc <__udivsi3+0x58>
  40381c:	e1a00002 	mov	r0, r2
  403820:	e12fff1e 	bx	lr
  403824:	03a00001 	moveq	r0, #1
  403828:	13a00000 	movne	r0, #0
  40382c:	e12fff1e 	bx	lr
  403830:	e3510801 	cmp	r1, #65536	@ 0x10000
  403834:	21a01821 	lsrcs	r1, r1, #16
  403838:	23a02010 	movcs	r2, #16
  40383c:	33a02000 	movcc	r2, #0
  403840:	e3510c01 	cmp	r1, #256	@ 0x100
  403844:	21a01421 	lsrcs	r1, r1, #8
  403848:	22822008 	addcs	r2, r2, #8
  40384c:	e3510010 	cmp	r1, #16
  403850:	21a01221 	lsrcs	r1, r1, #4
  403854:	22822004 	addcs	r2, r2, #4
  403858:	e3510004 	cmp	r1, #4
  40385c:	82822003 	addhi	r2, r2, #3
  403860:	908220a1 	addls	r2, r2, r1, lsr #1
  403864:	e1a00230 	lsr	r0, r0, r2
  403868:	e12fff1e 	bx	lr
  40386c:	e3500000 	cmp	r0, #0
  403870:	13e00000 	mvnne	r0, #0
  403874:	eaffffc1 	b	403780 <__aeabi_idiv0>

00403878 <__aeabi_uidivmod>:
  403878:	e3510000 	cmp	r1, #0
  40387c:	0afffffa 	beq	40386c <__udivsi3+0xe8>
  403880:	e92d4003 	push	{r0, r1, lr}
  403884:	ebffffbe 	bl	403784 <__udivsi3>
  403888:	e8bd4006 	pop	{r1, r2, lr}
  40388c:	e0030092 	mul	r3, r2, r0
  403890:	e0411003 	sub	r1, r1, r3
  403894:	e12fff1e 	bx	lr
  403898:	4f4a4f52 	svcmi	0x004a4f52
  40389c:	00000a0d 	andeq	r0, r0, sp, lsl #20
  4038a0:	44524556 	ldrbmi	r4, [r2], #-1366	@ 0xfffffaaa
  4038a4:	000a0d45 	andeq	r0, sl, r5, asr #26
  4038a8:	0a0d0a0d 	beq	7460e4 <_fiq_stack_top+0x32e0e4>
  4038ac:	6d617845 	stclvs	8, cr7, [r1, #-276]!	@ 0xfffffeec
  4038b0:	20656c70 	rsbcs	r6, r5, r0, ror ip
  4038b4:	65657246 	strbvs	r7, [r5, #-582]!	@ 0xfffffdba
  4038b8:	534f5452 	movtpl	r5, #62546	@ 0xf452
  4038bc:	6f725020 	svcvs	0x00725020
  4038c0:	7463656a 	strbtvc	r6, [r3], #-1386	@ 0xfffffa96
  4038c4:	00000a0d 	andeq	r0, r0, sp, lsl #20
  4038c8:	72615076 	rsbvc	r5, r1, #118	@ 0x76
  4038cc:	74736554 	ldrbtvc	r6, [r3], #-1364	@ 0xfffffaac
  4038d0:	74696e49 	strbtvc	r6, [r9], #-3657	@ 0xfffff1b7
  4038d4:	696c6169 	stmdbvs	ip!, {r0, r3, r5, r6, r8, sp, lr}^
  4038d8:	0a0d6573 	beq	75ceac <_fiq_stack_top+0x344eac>
  4038dc:	00000000 	andeq	r0, r0, r0
  4038e0:	72615076 	rsbvc	r5, r1, #118	@ 0x76
  4038e4:	74736554 	ldrbtvc	r6, [r3], #-1364	@ 0xfffffaac
  4038e8:	4c746553 	cfldr64mi	mvdx6, [r4], #-332	@ 0xfffffeb4
  4038ec:	0a0d4445 	beq	754a08 <_fiq_stack_top+0x33ca08>
  4038f0:	00000000 	andeq	r0, r0, r0
  4038f4:	72615076 	rsbvc	r5, r1, #118	@ 0x76
  4038f8:	74736554 	ldrbtvc	r6, [r3], #-1364	@ 0xfffffaac
  4038fc:	4c746553 	cfldr64mi	mvdx6, [r4], #-332	@ 0xfffffeb4
  403900:	203a4445 	eorscs	r4, sl, r5, asr #8
  403904:	2064654c 	rsbcs	r6, r4, ip, asr #10
  403908:	76206f6e 	strtvc	r6, [r0], -lr, ror #30
  40390c:	696ca1c3 	stmdbvs	ip!, {r0, r1, r6, r7, r8, sp, pc}^
  403910:	0a0d6f64 	beq	75f6a8 <_fiq_stack_top+0x3476a8>
  403914:	00000000 	andeq	r0, r0, r0
  403918:	72615076 	rsbvc	r5, r1, #118	@ 0x76
  40391c:	74736554 	ldrbtvc	r6, [r3], #-1364	@ 0xfffffaac
  403920:	67676f54 			@ <UNDEFINED> instruction: 0x67676f54
  403924:	454c656c 	strbmi	r6, [ip, #-1388]	@ 0xfffffa94
  403928:	6f522044 	svcvs	0x00522044
  40392c:	0a0d6f6a 	beq	75f6dc <_fiq_stack_top+0x3476dc>
  403930:	00000000 	andeq	r0, r0, r0
  403934:	72615076 	rsbvc	r5, r1, #118	@ 0x76
  403938:	74736554 	ldrbtvc	r6, [r3], #-1364	@ 0xfffffaac
  40393c:	67676f54 			@ <UNDEFINED> instruction: 0x67676f54
  403940:	454c656c 	strbmi	r6, [ip, #-1388]	@ 0xfffffa94
  403944:	65562044 	ldrbvs	r2, [r6, #-68]	@ 0xffffffbc
  403948:	0d656472 	cfstrdeq	mvd6, [r5, #-456]!	@ 0xfffffe38
  40394c:	0000000a 	andeq	r0, r0, sl
  403950:	72615076 	rsbvc	r5, r1, #118	@ 0x76
  403954:	74736554 	ldrbtvc	r6, [r3], #-1364	@ 0xfffffaac
  403958:	67676f54 			@ <UNDEFINED> instruction: 0x67676f54
  40395c:	454c656c 	strbmi	r6, [ip, #-1388]	@ 0xfffffa94
  403960:	52452044 	subpl	r2, r5, #68	@ 0x44
  403964:	0d524f52 	ldcleq	15, cr4, [r2, #-328]	@ 0xfffffeb8
  403968:	0000000a 	andeq	r0, r0, sl
  40396c:	4d746e49 	ldclmi	14, cr6, [r4, #-292]!	@ 0xfffffedc
  403970:	00687461 	rsbeq	r7, r8, r1, ror #8
  403974:	61657243 	cmnvs	r5, r3, asr #4
  403978:	206f646e 	rsbcs	r6, pc, lr, ror #8
  40397c:	6874614d 	ldmdavs	r4!, {r0, r2, r3, r6, r8, sp, lr}^
  403980:	6b736154 	blvs	20dbed8 <_fiq_stack_top+0x1cc3ed8>
  403984:	00000a0d 	andeq	r0, r0, sp, lsl #20
  403988:	6d6f4376 	stclvs	3, cr4, [pc, #-472]!	@ 4037b8 <__udivsi3+0x34>
  40398c:	65746570 	ldrbvs	r6, [r4, #-1392]!	@ 0xfffffa90
  403990:	49676e69 	stmdbmi	r7!, {r0, r3, r5, r6, r9, sl, fp, sp, lr}^
  403994:	614d746e 	cmpvs	sp, lr, ror #8
  403998:	61546874 	cmpvs	r4, r4, ror r8
  40399c:	45206b73 	strmi	r6, [r0, #-2931]!	@ 0xfffff48d
  4039a0:	524f5252 	subpl	r5, pc, #536870917	@ 0x20000005
  4039a4:	00000a0d 	andeq	r0, r0, sp, lsl #20
  4039a8:	6d6f4376 	stclvs	3, cr4, [pc, #-472]!	@ 4037d8 <__udivsi3+0x54>
  4039ac:	65746570 	ldrbvs	r6, [r4, #-1392]!	@ 0xfffffa90
  4039b0:	49676e69 	stmdbmi	r7!, {r0, r3, r5, r6, r9, sl, fp, sp, lr}^
  4039b4:	614d746e 	cmpvs	sp, lr, ror #8
  4039b8:	61546874 	cmpvs	r4, r4, ror r8
  4039bc:	53206b73 			@ <UNDEFINED> instruction: 0x53206b73
  4039c0:	45434355 	strbmi	r4, [r3, #-853]	@ 0xfffffcab
  4039c4:	0a0d5353 	beq	758718 <_fiq_stack_top+0x340718>
  4039c8:	00000000 	andeq	r0, r0, r0
  4039cc:	7844454c 	stmdavc	r4, {r2, r3, r6, r8, sl, lr}^
  4039d0:	00000000 	andeq	r0, r0, r0
  4039d4:	61657243 	cmnvs	r5, r3, asr #4
  4039d8:	206f646e 	rsbcs	r6, pc, lr, ror #8
  4039dc:	65726174 	ldrbvs	r6, [r2, #-372]!	@ 0xfffffe8c
  4039e0:	65642061 	strbvs	r2, [r4, #-97]!	@ 0xffffff9f
  4039e4:	64656c20 	strbtvs	r6, [r5], #-3104	@ 0xfffff3e0
  4039e8:	0d2e2e2e 	stceq	14, cr2, [lr, #-184]!	@ 0xffffff48
  4039ec:	0000000a 	andeq	r0, r0, sl
  4039f0:	65726154 	ldrbvs	r6, [r2, #-340]!	@ 0xfffffeac
  4039f4:	654c2061 	strbvs	r2, [ip, #-97]	@ 0xffffff9f
  4039f8:	6f522064 	svcvs	0x00522064
  4039fc:	63206f6a 			@ <UNDEFINED> instruction: 0x63206f6a
  403a00:	64616572 	strbtvs	r6, [r1], #-1394	@ 0xfffffa8e
  403a04:	000a0d61 	andeq	r0, sl, r1, ror #26
  403a08:	65726154 	ldrbvs	r6, [r2, #-340]!	@ 0xfffffeac
  403a0c:	654c2061 	strbvs	r2, [ip, #-97]	@ 0xffffff9f
  403a10:	65562064 	ldrbvs	r2, [r6, #-100]	@ 0xffffff9c
  403a14:	20656472 	rsbcs	r6, r5, r2, ror r4
  403a18:	61657263 	cmnvs	r5, r3, ror #4
  403a1c:	0a0d6164 	beq	75bfb4 <_fiq_stack_top+0x343fb4>
  403a20:	00000000 	andeq	r0, r0, r0
  403a24:	44454c76 	strbmi	r4, [r5], #-3190	@ 0xfffff38a
  403a28:	73616c46 	cmnvc	r1, #17920	@ 0x4600
  403a2c:	73615468 	cmnvc	r1, #104, 8	@ 0x68000000
  403a30:	5245206b 	subpl	r2, r5, #107	@ 0x6b
  403a34:	0d524f52 	ldcleq	15, cr4, [r2, #-328]	@ 0xfffffeb8
  403a38:	4449000a 	strbmi	r0, [r9], #-10
  403a3c:	0000454c 	andeq	r4, r0, ip, asr #10

00403a40 <uart_regs>:
  403a40:	80005000 	andhi	r5, r0, r0
  403a44:	8000b000 	andhi	fp, r0, r0

00403a48 <uart_pins>:
  403a48:	11100f0e 	tstne	r0, lr, lsl #30
  403a4c:	15141312 	ldrne	r1, [r4, #-786]	@ 0xfffffcee

00403a50 <uart_irq_handlers>:
  403a50:	00402bf0 	strdeq	r2, [r0], #-176	@ 0xffffff50
  403a54:	00402be8 	subeq	r2, r0, r8, ror #23
  403a58:	7665642f 	strbtvc	r6, [r5], -pc, lsr #8
  403a5c:	7261752f 	rsbvc	r7, r1, #197132288	@ 0xbc00000
  403a60:	2f003174 	svccs	0x00003174
  403a64:	2f766564 	svccs	0x00766564
  403a68:	74726175 	ldrbtvc	r6, [r2], #-373	@ 0xfffffe8b
  403a6c:	642f0032 	strtvs	r0, [pc], #-50	@ 403a74 <uart_irq_handlers+0x24>
  403a70:	6e2f7665 	cfmadda32vs	mvax3, mvax7, mvfx15, mvfx5
  403a74:	006c6c75 	rsbeq	r6, ip, r5, ror ip

00403a78 <uxFlashTaskNumber>:
  403a78:	0000002c 	andeq	r0, r0, ip, lsr #32

00403a7c <uxTopUsedPriority>:
  403a7c:	00000006 	andeq	r0, r0, r6

00403a80 <ulCriticalNesting>:
  403a80:	0000270f 	andeq	r2, r0, pc, lsl #14

00403a84 <bsp_next_dev>:
  403a84:	00000001 	andeq	r0, r0, r1

00403a88 <bsp_dev_list>:
  403a88:	00403a6e 	subeq	r3, r0, lr, ror #20
	...

00403ba8 <bsp_fd_list>:
  403ba8:	00403a88 	subeq	r3, r0, r8, lsl #21
  403bac:	00000000 	andeq	r0, r0, r0
  403bb0:	00403a88 	subeq	r3, r0, r8, lsl #21
  403bb4:	00000000 	andeq	r0, r0, r0
  403bb8:	00403a88 	subeq	r3, r0, r8, lsl #21
	...

Disassembly of section .text.__errno:

00403be8 <__errno>:
  403be8:	e59f3004 	ldr	r3, [pc, #4]	@ 403bf4 <__errno+0xc>
  403bec:	e5930000 	ldr	r0, [r3]
  403bf0:	e12fff1e 	bx	lr
  403bf4:	0040578c 	subeq	r5, r0, ip, lsl #15

Disassembly of section .text.memcmp:

00403bf8 <memcmp>:
  403bf8:	e3520003 	cmp	r2, #3
  403bfc:	e92d4010 	push	{r4, lr}
  403c00:	9a00001c 	bls	403c78 <memcmp+0x80>
  403c04:	e1803001 	orr	r3, r0, r1
  403c08:	e3130003 	tst	r3, #3
  403c0c:	12424001 	subne	r4, r2, #1
  403c10:	0a00000c 	beq	403c48 <memcmp+0x50>
  403c14:	e2402001 	sub	r2, r0, #1
  403c18:	e2411001 	sub	r1, r1, #1
  403c1c:	ea000001 	b	403c28 <memcmp+0x30>
  403c20:	e0903003 	adds	r3, r0, r3
  403c24:	0a000018 	beq	403c8c <memcmp+0x94>
  403c28:	e5f2e001 	ldrb	lr, [r2, #1]!
  403c2c:	e5f1c001 	ldrb	ip, [r1, #1]!
  403c30:	e15e000c 	cmp	lr, ip
  403c34:	e0443002 	sub	r3, r4, r2
  403c38:	0afffff8 	beq	403c20 <memcmp+0x28>
  403c3c:	e04e000c 	sub	r0, lr, ip
  403c40:	e8bd4010 	pop	{r4, lr}
  403c44:	e12fff1e 	bx	lr
  403c48:	e1a0c000 	mov	ip, r0
  403c4c:	e1a03001 	mov	r3, r1
  403c50:	ea000002 	b	403c60 <memcmp+0x68>
  403c54:	e2422004 	sub	r2, r2, #4
  403c58:	e3520003 	cmp	r2, #3
  403c5c:	9a00000d 	bls	403c98 <memcmp+0xa0>
  403c60:	e1a01003 	mov	r1, r3
  403c64:	e1a0000c 	mov	r0, ip
  403c68:	e493e004 	ldr	lr, [r3], #4
  403c6c:	e49c4004 	ldr	r4, [ip], #4
  403c70:	e154000e 	cmp	r4, lr
  403c74:	0afffff6 	beq	403c54 <memcmp+0x5c>
  403c78:	e3520000 	cmp	r2, #0
  403c7c:	01a00002 	moveq	r0, r2
  403c80:	e2424001 	sub	r4, r2, #1
  403c84:	1affffe2 	bne	403c14 <memcmp+0x1c>
  403c88:	eaffffec 	b	403c40 <memcmp+0x48>
  403c8c:	e1a00003 	mov	r0, r3
  403c90:	e8bd4010 	pop	{r4, lr}
  403c94:	e12fff1e 	bx	lr
  403c98:	e3520000 	cmp	r2, #0
  403c9c:	e1a0000c 	mov	r0, ip
  403ca0:	e1a01003 	mov	r1, r3
  403ca4:	01a00002 	moveq	r0, r2
  403ca8:	e2424001 	sub	r4, r2, #1
  403cac:	1affffd8 	bne	403c14 <memcmp+0x1c>
  403cb0:	eaffffe2 	b	403c40 <memcmp+0x48>

Disassembly of section .text.memset:

00403cb4 <memset>:
  403cb4:	e3100003 	tst	r0, #3
  403cb8:	e92d4030 	push	{r4, r5, lr}
  403cbc:	0a000036 	beq	403d9c <memset+0xe8>
  403cc0:	e3520000 	cmp	r2, #0
  403cc4:	e2423001 	sub	r3, r2, #1
  403cc8:	0a00002f 	beq	403d8c <memset+0xd8>
  403ccc:	e1a0e000 	mov	lr, r0
  403cd0:	e20120ff 	and	r2, r1, #255	@ 0xff
  403cd4:	ea000001 	b	403ce0 <memset+0x2c>
  403cd8:	e2533001 	subs	r3, r3, #1
  403cdc:	3a00002a 	bcc	403d8c <memset+0xd8>
  403ce0:	e4ce2001 	strb	r2, [lr], #1
  403ce4:	e31e0003 	tst	lr, #3
  403ce8:	1afffffa 	bne	403cd8 <memset+0x24>
  403cec:	e3530003 	cmp	r3, #3
  403cf0:	9a00001e 	bls	403d70 <memset+0xbc>
  403cf4:	e201c0ff 	and	ip, r1, #255	@ 0xff
  403cf8:	e08cc40c 	add	ip, ip, ip, lsl #8
  403cfc:	e353000f 	cmp	r3, #15
  403d00:	e08cc80c 	add	ip, ip, ip, lsl #16
  403d04:	9a000027 	bls	403da8 <memset+0xf4>
  403d08:	e2432010 	sub	r2, r3, #16
  403d0c:	e3c2400f 	bic	r4, r2, #15
  403d10:	e28e5020 	add	r5, lr, #32
  403d14:	e0855004 	add	r5, r5, r4
  403d18:	e1a04222 	lsr	r4, r2, #4
  403d1c:	e28e2010 	add	r2, lr, #16
  403d20:	e502c010 	str	ip, [r2, #-16]
  403d24:	e502c00c 	str	ip, [r2, #-12]
  403d28:	e502c008 	str	ip, [r2, #-8]
  403d2c:	e502c004 	str	ip, [r2, #-4]
  403d30:	e2822010 	add	r2, r2, #16
  403d34:	e1520005 	cmp	r2, r5
  403d38:	1afffff8 	bne	403d20 <memset+0x6c>
  403d3c:	e2842001 	add	r2, r4, #1
  403d40:	e313000c 	tst	r3, #12
  403d44:	e08e2202 	add	r2, lr, r2, lsl #4
  403d48:	e203300f 	and	r3, r3, #15
  403d4c:	0a000010 	beq	403d94 <memset+0xe0>
  403d50:	e243e004 	sub	lr, r3, #4
  403d54:	e3cee003 	bic	lr, lr, #3
  403d58:	e28ee004 	add	lr, lr, #4
  403d5c:	e082e00e 	add	lr, r2, lr
  403d60:	e482c004 	str	ip, [r2], #4
  403d64:	e152000e 	cmp	r2, lr
  403d68:	1afffffc 	bne	403d60 <memset+0xac>
  403d6c:	e2033003 	and	r3, r3, #3
  403d70:	e3530000 	cmp	r3, #0
  403d74:	120110ff 	andne	r1, r1, #255	@ 0xff
  403d78:	108e3003 	addne	r3, lr, r3
  403d7c:	0a000002 	beq	403d8c <memset+0xd8>
  403d80:	e4ce1001 	strb	r1, [lr], #1
  403d84:	e153000e 	cmp	r3, lr
  403d88:	1afffffc 	bne	403d80 <memset+0xcc>
  403d8c:	e8bd4030 	pop	{r4, r5, lr}
  403d90:	e12fff1e 	bx	lr
  403d94:	e1a0e002 	mov	lr, r2
  403d98:	eafffff4 	b	403d70 <memset+0xbc>
  403d9c:	e1a0e000 	mov	lr, r0
  403da0:	e1a03002 	mov	r3, r2
  403da4:	eaffffd0 	b	403cec <memset+0x38>
  403da8:	e1a0200e 	mov	r2, lr
  403dac:	eaffffe7 	b	403d50 <memset+0x9c>

Disassembly of section .text.stdio_exit_handler:

00403db0 <stdio_exit_handler>:
  403db0:	e92d4010 	push	{r4, lr}
  403db4:	e59f2010 	ldr	r2, [pc, #16]	@ 403dcc <stdio_exit_handler+0x1c>
  403db8:	e59f1010 	ldr	r1, [pc, #16]	@ 403dd0 <stdio_exit_handler+0x20>
  403dbc:	e59f0010 	ldr	r0, [pc, #16]	@ 403dd4 <stdio_exit_handler+0x24>
  403dc0:	eb000173 	bl	404394 <_fwalk_sglue>
  403dc4:	e8bd4010 	pop	{r4, lr}
  403dc8:	e12fff1e 	bx	lr
  403dcc:	004058b0 	strheq	r5, [r0], #-128	@ 0xffffff80
  403dd0:	00404c00 	subeq	r4, r0, r0, lsl #24
  403dd4:	00405790 	umaaleq	r5, r0, r0, r7

Disassembly of section .text.cleanup_stdio:

00403dd8 <cleanup_stdio>:
  403dd8:	e59f3040 	ldr	r3, [pc, #64]	@ 403e20 <cleanup_stdio+0x48>
  403ddc:	e5901004 	ldr	r1, [r0, #4]
  403de0:	e1510003 	cmp	r1, r3
  403de4:	e92d4010 	push	{r4, lr}
  403de8:	e1a04000 	mov	r4, r0
  403dec:	1b000383 	blne	404c00 <_fclose_r>
  403df0:	e5941008 	ldr	r1, [r4, #8]
  403df4:	e59f3028 	ldr	r3, [pc, #40]	@ 403e24 <cleanup_stdio+0x4c>
  403df8:	e1510003 	cmp	r1, r3
  403dfc:	11a00004 	movne	r0, r4
  403e00:	1b00037e 	blne	404c00 <_fclose_r>
  403e04:	e594100c 	ldr	r1, [r4, #12]
  403e08:	e59f3018 	ldr	r3, [pc, #24]	@ 403e28 <cleanup_stdio+0x50>
  403e0c:	e1510003 	cmp	r1, r3
  403e10:	11a00004 	movne	r0, r4
  403e14:	1b000379 	blne	404c00 <_fclose_r>
  403e18:	e8bd4010 	pop	{r4, lr}
  403e1c:	e12fff1e 	bx	lr
  403e20:	004102a4 	subeq	r0, r1, r4, lsr #5
  403e24:	0041030c 	subeq	r0, r1, ip, lsl #6
  403e28:	00410374 	subeq	r0, r1, r4, ror r3

Disassembly of section .text.__fp_lock:

00403e2c <__fp_lock>:
  403e2c:	e5913064 	ldr	r3, [r1, #100]	@ 0x64
  403e30:	e3130001 	tst	r3, #1
  403e34:	1a000002 	bne	403e44 <__fp_lock+0x18>
  403e38:	e1d130bc 	ldrh	r3, [r1, #12]
  403e3c:	e3130c02 	tst	r3, #512	@ 0x200
  403e40:	0a000001 	beq	403e4c <__fp_lock+0x20>
  403e44:	e3a00000 	mov	r0, #0
  403e48:	e12fff1e 	bx	lr
  403e4c:	e92d4010 	push	{r4, lr}
  403e50:	e5910058 	ldr	r0, [r1, #88]	@ 0x58
  403e54:	eb000362 	bl	404be4 <__retarget_lock_acquire_recursive>
  403e58:	e3a00000 	mov	r0, #0
  403e5c:	e8bd4010 	pop	{r4, lr}
  403e60:	e12fff1e 	bx	lr

Disassembly of section .text.__fp_unlock:

00403e64 <__fp_unlock>:
  403e64:	e5913064 	ldr	r3, [r1, #100]	@ 0x64
  403e68:	e3130001 	tst	r3, #1
  403e6c:	1a000002 	bne	403e7c <__fp_unlock+0x18>
  403e70:	e1d130bc 	ldrh	r3, [r1, #12]
  403e74:	e3130c02 	tst	r3, #512	@ 0x200
  403e78:	0a000001 	beq	403e84 <__fp_unlock+0x20>
  403e7c:	e3a00000 	mov	r0, #0
  403e80:	e12fff1e 	bx	lr
  403e84:	e92d4010 	push	{r4, lr}
  403e88:	e5910058 	ldr	r0, [r1, #88]	@ 0x58
  403e8c:	eb00035a 	bl	404bfc <__retarget_lock_release_recursive>
  403e90:	e3a00000 	mov	r0, #0
  403e94:	e8bd4010 	pop	{r4, lr}
  403e98:	e12fff1e 	bx	lr

Disassembly of section .text.global_stdio_init.part.0:

00403e9c <global_stdio_init.part.0>:
  403e9c:	e92d47f0 	push	{r4, r5, r6, r7, r8, r9, sl, lr}
  403ea0:	e3a05000 	mov	r5, #0
  403ea4:	e3a03004 	mov	r3, #4
  403ea8:	e59f4114 	ldr	r4, [pc, #276]	@ 403fc4 <global_stdio_init.part.0+0x128>
  403eac:	e59f2114 	ldr	r2, [pc, #276]	@ 403fc8 <global_stdio_init.part.0+0x12c>
  403eb0:	e59f1114 	ldr	r1, [pc, #276]	@ 403fcc <global_stdio_init.part.0+0x130>
  403eb4:	e59f9114 	ldr	r9, [pc, #276]	@ 403fd0 <global_stdio_init.part.0+0x134>
  403eb8:	e59f8114 	ldr	r8, [pc, #276]	@ 403fd4 <global_stdio_init.part.0+0x138>
  403ebc:	e59f7114 	ldr	r7, [pc, #276]	@ 403fd8 <global_stdio_init.part.0+0x13c>
  403ec0:	e59f6114 	ldr	r6, [pc, #276]	@ 403fdc <global_stdio_init.part.0+0x140>
  403ec4:	e5821000 	str	r1, [r2]
  403ec8:	e284005c 	add	r0, r4, #92	@ 0x5c
  403ecc:	e1a01005 	mov	r1, r5
  403ed0:	e3a02008 	mov	r2, #8
  403ed4:	e584300c 	str	r3, [r4, #12]
  403ed8:	e5845000 	str	r5, [r4]
  403edc:	e5845004 	str	r5, [r4, #4]
  403ee0:	e5845008 	str	r5, [r4, #8]
  403ee4:	e5845064 	str	r5, [r4, #100]	@ 0x64
  403ee8:	e5845010 	str	r5, [r4, #16]
  403eec:	e5845014 	str	r5, [r4, #20]
  403ef0:	e5845018 	str	r5, [r4, #24]
  403ef4:	ebffff6e 	bl	403cb4 <memset>
  403ef8:	e2840058 	add	r0, r4, #88	@ 0x58
  403efc:	e584401c 	str	r4, [r4, #28]
  403f00:	e5849020 	str	r9, [r4, #32]
  403f04:	e5848024 	str	r8, [r4, #36]	@ 0x24
  403f08:	e5847028 	str	r7, [r4, #40]	@ 0x28
  403f0c:	e584602c 	str	r6, [r4, #44]	@ 0x2c
  403f10:	eb00032f 	bl	404bd4 <__retarget_lock_init_recursive>
  403f14:	e59f30c4 	ldr	r3, [pc, #196]	@ 403fe0 <global_stdio_init.part.0+0x144>
  403f18:	e1a01005 	mov	r1, r5
  403f1c:	e3a02008 	mov	r2, #8
  403f20:	e28400c4 	add	r0, r4, #196	@ 0xc4
  403f24:	e5843074 	str	r3, [r4, #116]	@ 0x74
  403f28:	e5845068 	str	r5, [r4, #104]	@ 0x68
  403f2c:	e584506c 	str	r5, [r4, #108]	@ 0x6c
  403f30:	e5845070 	str	r5, [r4, #112]	@ 0x70
  403f34:	e58450cc 	str	r5, [r4, #204]	@ 0xcc
  403f38:	e5845078 	str	r5, [r4, #120]	@ 0x78
  403f3c:	e584507c 	str	r5, [r4, #124]	@ 0x7c
  403f40:	e5845080 	str	r5, [r4, #128]	@ 0x80
  403f44:	ebffff5a 	bl	403cb4 <memset>
  403f48:	e2843068 	add	r3, r4, #104	@ 0x68
  403f4c:	e28400c0 	add	r0, r4, #192	@ 0xc0
  403f50:	e5843084 	str	r3, [r4, #132]	@ 0x84
  403f54:	e5849088 	str	r9, [r4, #136]	@ 0x88
  403f58:	e584808c 	str	r8, [r4, #140]	@ 0x8c
  403f5c:	e5847090 	str	r7, [r4, #144]	@ 0x90
  403f60:	e5846094 	str	r6, [r4, #148]	@ 0x94
  403f64:	eb00031a 	bl	404bd4 <__retarget_lock_init_recursive>
  403f68:	e59f3074 	ldr	r3, [pc, #116]	@ 403fe4 <global_stdio_init.part.0+0x148>
  403f6c:	e1a01005 	mov	r1, r5
  403f70:	e3a02008 	mov	r2, #8
  403f74:	e2840f4b 	add	r0, r4, #300	@ 0x12c
  403f78:	e58430dc 	str	r3, [r4, #220]	@ 0xdc
  403f7c:	e58450d0 	str	r5, [r4, #208]	@ 0xd0
  403f80:	e58450d4 	str	r5, [r4, #212]	@ 0xd4
  403f84:	e58450d8 	str	r5, [r4, #216]	@ 0xd8
  403f88:	e5845134 	str	r5, [r4, #308]	@ 0x134
  403f8c:	e58450e0 	str	r5, [r4, #224]	@ 0xe0
  403f90:	e58450e4 	str	r5, [r4, #228]	@ 0xe4
  403f94:	e58450e8 	str	r5, [r4, #232]	@ 0xe8
  403f98:	ebffff45 	bl	403cb4 <memset>
  403f9c:	e28430d0 	add	r3, r4, #208	@ 0xd0
  403fa0:	e2840f4a 	add	r0, r4, #296	@ 0x128
  403fa4:	e58490f0 	str	r9, [r4, #240]	@ 0xf0
  403fa8:	e58480f4 	str	r8, [r4, #244]	@ 0xf4
  403fac:	e58470f8 	str	r7, [r4, #248]	@ 0xf8
  403fb0:	e58460fc 	str	r6, [r4, #252]	@ 0xfc
  403fb4:	e58430ec 	str	r3, [r4, #236]	@ 0xec
  403fb8:	eb000305 	bl	404bd4 <__retarget_lock_init_recursive>
  403fbc:	e8bd47f0 	pop	{r4, r5, r6, r7, r8, r9, sl, lr}
  403fc0:	e12fff1e 	bx	lr
  403fc4:	004102a4 	subeq	r0, r1, r4, lsr #5
  403fc8:	004103dc 	ldrdeq	r0, [r1], #-60	@ 0xffffffc4
  403fcc:	00403db0 	strheq	r3, [r0], #-208	@ 0xffffff30
  403fd0:	00404270 	subeq	r4, r0, r0, ror r2
  403fd4:	004042ac 	subeq	r4, r0, ip, lsr #5
  403fd8:	00404308 	subeq	r4, r0, r8, lsl #6
  403fdc:	00404338 	subeq	r4, r0, r8, lsr r3
  403fe0:	00010009 	andeq	r0, r1, r9
  403fe4:	00020012 	andeq	r0, r2, r2, lsl r0

Disassembly of section .text.__sfp:

00403fe8 <__sfp>:
  403fe8:	e92d41f0 	push	{r4, r5, r6, r7, r8, lr}
  403fec:	e1a06000 	mov	r6, r0
  403ff0:	e59f0114 	ldr	r0, [pc, #276]	@ 40410c <__sfp+0x124>
  403ff4:	eb0002fa 	bl	404be4 <__retarget_lock_acquire_recursive>
  403ff8:	e59f3110 	ldr	r3, [pc, #272]	@ 404110 <__sfp+0x128>
  403ffc:	e5933000 	ldr	r3, [r3]
  404000:	e3530000 	cmp	r3, #0
  404004:	0a000038 	beq	4040ec <__sfp+0x104>
  404008:	e59f7104 	ldr	r7, [pc, #260]	@ 404114 <__sfp+0x12c>
  40400c:	e9970018 	ldmib	r7, {r3, r4}
  404010:	e2533001 	subs	r3, r3, #1
  404014:	5a000003 	bpl	404028 <__sfp+0x40>
  404018:	ea00001e 	b	404098 <__sfp+0xb0>
  40401c:	e3730001 	cmn	r3, #1
  404020:	e2844068 	add	r4, r4, #104	@ 0x68
  404024:	0a00001b 	beq	404098 <__sfp+0xb0>
  404028:	e1d450fc 	ldrsh	r5, [r4, #12]
  40402c:	e3550000 	cmp	r5, #0
  404030:	e2433001 	sub	r3, r3, #1
  404034:	1afffff8 	bne	40401c <__sfp+0x34>
  404038:	e59f30d8 	ldr	r3, [pc, #216]	@ 404118 <__sfp+0x130>
  40403c:	e2840058 	add	r0, r4, #88	@ 0x58
  404040:	e584300c 	str	r3, [r4, #12]
  404044:	e5845064 	str	r5, [r4, #100]	@ 0x64
  404048:	eb0002e1 	bl	404bd4 <__retarget_lock_init_recursive>
  40404c:	e59f00b8 	ldr	r0, [pc, #184]	@ 40410c <__sfp+0x124>
  404050:	eb0002e9 	bl	404bfc <__retarget_lock_release_recursive>
  404054:	e3a02008 	mov	r2, #8
  404058:	e1a01005 	mov	r1, r5
  40405c:	e5845000 	str	r5, [r4]
  404060:	e5845008 	str	r5, [r4, #8]
  404064:	e5845004 	str	r5, [r4, #4]
  404068:	e5845010 	str	r5, [r4, #16]
  40406c:	e5845014 	str	r5, [r4, #20]
  404070:	e5845018 	str	r5, [r4, #24]
  404074:	e284005c 	add	r0, r4, #92	@ 0x5c
  404078:	ebffff0d 	bl	403cb4 <memset>
  40407c:	e5845030 	str	r5, [r4, #48]	@ 0x30
  404080:	e5845034 	str	r5, [r4, #52]	@ 0x34
  404084:	e5845044 	str	r5, [r4, #68]	@ 0x44
  404088:	e5845048 	str	r5, [r4, #72]	@ 0x48
  40408c:	e1a00004 	mov	r0, r4
  404090:	e8bd41f0 	pop	{r4, r5, r6, r7, r8, lr}
  404094:	e12fff1e 	bx	lr
  404098:	e5975000 	ldr	r5, [r7]
  40409c:	e3550000 	cmp	r5, #0
  4040a0:	0a000001 	beq	4040ac <__sfp+0xc4>
  4040a4:	e1a07005 	mov	r7, r5
  4040a8:	eaffffd7 	b	40400c <__sfp+0x24>
  4040ac:	e3a01f6b 	mov	r1, #428	@ 0x1ac
  4040b0:	e1a00006 	mov	r0, r6
  4040b4:	eb0000d4 	bl	40440c <_malloc_r>
  4040b8:	e2504000 	subs	r4, r0, #0
  4040bc:	0a00000c 	beq	4040f4 <__sfp+0x10c>
  4040c0:	e3a03004 	mov	r3, #4
  4040c4:	e284000c 	add	r0, r4, #12
  4040c8:	e1a01005 	mov	r1, r5
  4040cc:	e5845000 	str	r5, [r4]
  4040d0:	e3a02e1a 	mov	r2, #416	@ 0x1a0
  4040d4:	e5840008 	str	r0, [r4, #8]
  4040d8:	e5843004 	str	r3, [r4, #4]
  4040dc:	ebfffef4 	bl	403cb4 <memset>
  4040e0:	e1a05004 	mov	r5, r4
  4040e4:	e5874000 	str	r4, [r7]
  4040e8:	eaffffed 	b	4040a4 <__sfp+0xbc>
  4040ec:	ebffff6a 	bl	403e9c <global_stdio_init.part.0>
  4040f0:	eaffffc4 	b	404008 <__sfp+0x20>
  4040f4:	e5874000 	str	r4, [r7]
  4040f8:	e59f000c 	ldr	r0, [pc, #12]	@ 40410c <__sfp+0x124>
  4040fc:	eb0002be 	bl	404bfc <__retarget_lock_release_recursive>
  404100:	e3a0300c 	mov	r3, #12
  404104:	e5863000 	str	r3, [r6]
  404108:	eaffffdf 	b	40408c <__sfp+0xa4>
  40410c:	00410430 	subeq	r0, r1, r0, lsr r4
  404110:	004103dc 	ldrdeq	r0, [r1], #-60	@ 0xffffffc4
  404114:	004058b0 	strheq	r5, [r0], #-128	@ 0xffffff80
  404118:	ffff0001 			@ <UNDEFINED> instruction: 0xffff0001

Disassembly of section .text.__sinit:

0040411c <__sinit>:
  40411c:	e92d4010 	push	{r4, lr}
  404120:	e1a04000 	mov	r4, r0
  404124:	e59f0048 	ldr	r0, [pc, #72]	@ 404174 <__sinit+0x58>
  404128:	eb0002ad 	bl	404be4 <__retarget_lock_acquire_recursive>
  40412c:	e5943034 	ldr	r3, [r4, #52]	@ 0x34
  404130:	e3530000 	cmp	r3, #0
  404134:	1a000005 	bne	404150 <__sinit+0x34>
  404138:	e59f3038 	ldr	r3, [pc, #56]	@ 404178 <__sinit+0x5c>
  40413c:	e5933000 	ldr	r3, [r3]
  404140:	e59f2034 	ldr	r2, [pc, #52]	@ 40417c <__sinit+0x60>
  404144:	e3530000 	cmp	r3, #0
  404148:	e5842034 	str	r2, [r4, #52]	@ 0x34
  40414c:	0a000003 	beq	404160 <__sinit+0x44>
  404150:	e59f001c 	ldr	r0, [pc, #28]	@ 404174 <__sinit+0x58>
  404154:	eb0002a8 	bl	404bfc <__retarget_lock_release_recursive>
  404158:	e8bd4010 	pop	{r4, lr}
  40415c:	e12fff1e 	bx	lr
  404160:	ebffff4d 	bl	403e9c <global_stdio_init.part.0>
  404164:	e59f0008 	ldr	r0, [pc, #8]	@ 404174 <__sinit+0x58>
  404168:	eb0002a3 	bl	404bfc <__retarget_lock_release_recursive>
  40416c:	e8bd4010 	pop	{r4, lr}
  404170:	e12fff1e 	bx	lr
  404174:	00410430 	subeq	r0, r1, r0, lsr r4
  404178:	004103dc 	ldrdeq	r0, [r1], #-60	@ 0xffffffc4
  40417c:	00403dd8 	ldrdeq	r3, [r0], #-216	@ 0xffffff28

Disassembly of section .text.__sfp_lock_acquire:

00404180 <__sfp_lock_acquire>:
  404180:	e92d4010 	push	{r4, lr}
  404184:	e59f0008 	ldr	r0, [pc, #8]	@ 404194 <__sfp_lock_acquire+0x14>
  404188:	eb000295 	bl	404be4 <__retarget_lock_acquire_recursive>
  40418c:	e8bd4010 	pop	{r4, lr}
  404190:	e12fff1e 	bx	lr
  404194:	00410430 	subeq	r0, r1, r0, lsr r4

Disassembly of section .text.__sfp_lock_release:

00404198 <__sfp_lock_release>:
  404198:	e92d4010 	push	{r4, lr}
  40419c:	e59f0008 	ldr	r0, [pc, #8]	@ 4041ac <__sfp_lock_release+0x14>
  4041a0:	eb000295 	bl	404bfc <__retarget_lock_release_recursive>
  4041a4:	e8bd4010 	pop	{r4, lr}
  4041a8:	e12fff1e 	bx	lr
  4041ac:	00410430 	subeq	r0, r1, r0, lsr r4

Disassembly of section .text.__fp_lock_all:

004041b0 <__fp_lock_all>:
  4041b0:	e92d4010 	push	{r4, lr}
  4041b4:	e59f0018 	ldr	r0, [pc, #24]	@ 4041d4 <__fp_lock_all+0x24>
  4041b8:	eb000289 	bl	404be4 <__retarget_lock_acquire_recursive>
  4041bc:	e3a00000 	mov	r0, #0
  4041c0:	e59f2010 	ldr	r2, [pc, #16]	@ 4041d8 <__fp_lock_all+0x28>
  4041c4:	e59f1010 	ldr	r1, [pc, #16]	@ 4041dc <__fp_lock_all+0x2c>
  4041c8:	eb000071 	bl	404394 <_fwalk_sglue>
  4041cc:	e8bd4010 	pop	{r4, lr}
  4041d0:	e12fff1e 	bx	lr
  4041d4:	00410430 	subeq	r0, r1, r0, lsr r4
  4041d8:	004058b0 	strheq	r5, [r0], #-128	@ 0xffffff80
  4041dc:	00403e2c 	subeq	r3, r0, ip, lsr #28

Disassembly of section .text.__fp_unlock_all:

004041e0 <__fp_unlock_all>:
  4041e0:	e92d4010 	push	{r4, lr}
  4041e4:	e59f2018 	ldr	r2, [pc, #24]	@ 404204 <__fp_unlock_all+0x24>
  4041e8:	e59f1018 	ldr	r1, [pc, #24]	@ 404208 <__fp_unlock_all+0x28>
  4041ec:	e3a00000 	mov	r0, #0
  4041f0:	eb000067 	bl	404394 <_fwalk_sglue>
  4041f4:	e59f0010 	ldr	r0, [pc, #16]	@ 40420c <__fp_unlock_all+0x2c>
  4041f8:	eb00027f 	bl	404bfc <__retarget_lock_release_recursive>
  4041fc:	e8bd4010 	pop	{r4, lr}
  404200:	e12fff1e 	bx	lr
  404204:	004058b0 	strheq	r5, [r0], #-128	@ 0xffffff80
  404208:	00403e64 	subeq	r3, r0, r4, ror #28
  40420c:	00410430 	subeq	r0, r1, r0, lsr r4

Disassembly of section .text.strlen:

00404210 <strlen>:
  404210:	e3c01003 	bic	r1, r0, #3
  404214:	e2100003 	ands	r0, r0, #3
  404218:	e2600000 	rsb	r0, r0, #0
  40421c:	e4913004 	ldr	r3, [r1], #4
  404220:	e280c004 	add	ip, r0, #4
  404224:	e1a0c18c 	lsl	ip, ip, #3
  404228:	e3e02000 	mvn	r2, #0
  40422c:	11833c32 	orrne	r3, r3, r2, lsr ip
  404230:	e3a0c001 	mov	ip, #1
  404234:	e18cc40c 	orr	ip, ip, ip, lsl #8
  404238:	e18cc80c 	orr	ip, ip, ip, lsl #16
  40423c:	e043200c 	sub	r2, r3, ip
  404240:	e1c22003 	bic	r2, r2, r3
  404244:	e012238c 	ands	r2, r2, ip, lsl #7
  404248:	04913004 	ldreq	r3, [r1], #4
  40424c:	02800004 	addeq	r0, r0, #4
  404250:	0afffff9 	beq	40423c <strlen+0x2c>
  404254:	e31300ff 	tst	r3, #255	@ 0xff
  404258:	12800001 	addne	r0, r0, #1
  40425c:	13130cff 	tstne	r3, #65280	@ 0xff00
  404260:	12800001 	addne	r0, r0, #1
  404264:	131308ff 	tstne	r3, #16711680	@ 0xff0000
  404268:	12800001 	addne	r0, r0, #1
  40426c:	e12fff1e 	bx	lr

Disassembly of section .text.__sread:

00404270 <__sread>:
  404270:	e92d4010 	push	{r4, lr}
  404274:	e1a04001 	mov	r4, r1
  404278:	e1d110fe 	ldrsh	r1, [r1, #14]
  40427c:	eb0004fc 	bl	405674 <_read_r>
  404280:	e3500000 	cmp	r0, #0
  404284:	a5943050 	ldrge	r3, [r4, #80]	@ 0x50
  404288:	b1d430bc 	ldrhlt	r3, [r4, #12]
  40428c:	a0833000 	addge	r3, r3, r0
  404290:	b3c33a01 	biclt	r3, r3, #4096	@ 0x1000
  404294:	a5843050 	strge	r3, [r4, #80]	@ 0x50
  404298:	b1c430bc 	strhlt	r3, [r4, #12]
  40429c:	e8bd4010 	pop	{r4, lr}
  4042a0:	e12fff1e 	bx	lr

Disassembly of section .text.__seofread:

004042a4 <__seofread>:
  4042a4:	e3a00000 	mov	r0, #0
  4042a8:	e12fff1e 	bx	lr

Disassembly of section .text.__swrite:

004042ac <__swrite>:
  4042ac:	e92d41f0 	push	{r4, r5, r6, r7, r8, lr}
  4042b0:	e1a04001 	mov	r4, r1
  4042b4:	e1d110fc 	ldrsh	r1, [r1, #12]
  4042b8:	e3110c01 	tst	r1, #256	@ 0x100
  4042bc:	e1a05000 	mov	r5, r0
  4042c0:	e1a06002 	mov	r6, r2
  4042c4:	e1a07003 	mov	r7, r3
  4042c8:	1a000008 	bne	4042f0 <__swrite+0x44>
  4042cc:	e3c11a01 	bic	r1, r1, #4096	@ 0x1000
  4042d0:	e1c410bc 	strh	r1, [r4, #12]
  4042d4:	e1a03007 	mov	r3, r7
  4042d8:	e1a02006 	mov	r2, r6
  4042dc:	e1a00005 	mov	r0, r5
  4042e0:	e1d410fe 	ldrsh	r1, [r4, #14]
  4042e4:	eb000018 	bl	40434c <_write_r>
  4042e8:	e8bd41f0 	pop	{r4, r5, r6, r7, r8, lr}
  4042ec:	e12fff1e 	bx	lr
  4042f0:	e1d410fe 	ldrsh	r1, [r4, #14]
  4042f4:	e3a03002 	mov	r3, #2
  4042f8:	e3a02000 	mov	r2, #0
  4042fc:	eb0004ca 	bl	40562c <_lseek_r>
  404300:	e1d410fc 	ldrsh	r1, [r4, #12]
  404304:	eafffff0 	b	4042cc <__swrite+0x20>

Disassembly of section .text.__sseek:

00404308 <__sseek>:
  404308:	e92d4010 	push	{r4, lr}
  40430c:	e1a04001 	mov	r4, r1
  404310:	e1d110fe 	ldrsh	r1, [r1, #14]
  404314:	eb0004c4 	bl	40562c <_lseek_r>
  404318:	e1d430fc 	ldrsh	r3, [r4, #12]
  40431c:	e3700001 	cmn	r0, #1
  404320:	03c33a01 	biceq	r3, r3, #4096	@ 0x1000
  404324:	13833a01 	orrne	r3, r3, #4096	@ 0x1000
  404328:	15840050 	strne	r0, [r4, #80]	@ 0x50
  40432c:	e1c430bc 	strh	r3, [r4, #12]
  404330:	e8bd4010 	pop	{r4, lr}
  404334:	e12fff1e 	bx	lr

Disassembly of section .text.__sclose:

00404338 <__sclose>:
  404338:	e92d4010 	push	{r4, lr}
  40433c:	e1d110fe 	ldrsh	r1, [r1, #14]
  404340:	eb0002a0 	bl	404dc8 <_close_r>
  404344:	e8bd4010 	pop	{r4, lr}
  404348:	e12fff1e 	bx	lr

Disassembly of section .text._write_r:

0040434c <_write_r>:
  40434c:	e92d4070 	push	{r4, r5, r6, lr}
  404350:	e1a0e001 	mov	lr, r1
  404354:	e1a01002 	mov	r1, r2
  404358:	e3a02000 	mov	r2, #0
  40435c:	e59f502c 	ldr	r5, [pc, #44]	@ 404390 <_write_r+0x44>
  404360:	e1a04000 	mov	r4, r0
  404364:	e5852000 	str	r2, [r5]
  404368:	e1a0000e 	mov	r0, lr
  40436c:	e1a02003 	mov	r2, r3
  404370:	eb0004ff 	bl	405774 <_write>
  404374:	e3700001 	cmn	r0, #1
  404378:	1a000002 	bne	404388 <_write_r+0x3c>
  40437c:	e5953000 	ldr	r3, [r5]
  404380:	e3530000 	cmp	r3, #0
  404384:	15843000 	strne	r3, [r4]
  404388:	e8bd4070 	pop	{r4, r5, r6, lr}
  40438c:	e12fff1e 	bx	lr
  404390:	00410434 	subeq	r0, r1, r4, lsr r4

Disassembly of section .text._fwalk_sglue:

00404394 <_fwalk_sglue>:
  404394:	e92d47f0 	push	{r4, r5, r6, r7, r8, r9, sl, lr}
  404398:	e3a09000 	mov	r9, #0
  40439c:	e1a08000 	mov	r8, r0
  4043a0:	e1a07001 	mov	r7, r1
  4043a4:	e1a06002 	mov	r6, r2
  4043a8:	e5965004 	ldr	r5, [r6, #4]
  4043ac:	e2555001 	subs	r5, r5, #1
  4043b0:	e5964008 	ldr	r4, [r6, #8]
  4043b4:	4a00000e 	bmi	4043f4 <_fwalk_sglue+0x60>
  4043b8:	e1d430bc 	ldrh	r3, [r4, #12]
  4043bc:	e3530001 	cmp	r3, #1
  4043c0:	e2455001 	sub	r5, r5, #1
  4043c4:	9a000007 	bls	4043e8 <_fwalk_sglue+0x54>
  4043c8:	e1d430fe 	ldrsh	r3, [r4, #14]
  4043cc:	e3730001 	cmn	r3, #1
  4043d0:	0a000004 	beq	4043e8 <_fwalk_sglue+0x54>
  4043d4:	e1a01004 	mov	r1, r4
  4043d8:	e1a00008 	mov	r0, r8
  4043dc:	e1a0e00f 	mov	lr, pc
  4043e0:	e12fff17 	bx	r7
  4043e4:	e1899000 	orr	r9, r9, r0
  4043e8:	e3750001 	cmn	r5, #1
  4043ec:	e2844068 	add	r4, r4, #104	@ 0x68
  4043f0:	1afffff0 	bne	4043b8 <_fwalk_sglue+0x24>
  4043f4:	e5966000 	ldr	r6, [r6]
  4043f8:	e3560000 	cmp	r6, #0
  4043fc:	1affffe9 	bne	4043a8 <_fwalk_sglue+0x14>
  404400:	e1a00009 	mov	r0, r9
  404404:	e8bd47f0 	pop	{r4, r5, r6, r7, r8, r9, sl, lr}
  404408:	e12fff1e 	bx	lr

Disassembly of section .text._malloc_r:

0040440c <_malloc_r>:
  40440c:	e92d4ff0 	push	{r4, r5, r6, r7, r8, r9, sl, fp, lr}
  404410:	e281300b 	add	r3, r1, #11
  404414:	e3530016 	cmp	r3, #22
  404418:	e1a07000 	mov	r7, r0
  40441c:	e24dd00c 	sub	sp, sp, #12
  404420:	8a00001c 	bhi	404498 <_malloc_r+0x8c>
  404424:	e3510010 	cmp	r1, #16
  404428:	8a000081 	bhi	404634 <_malloc_r+0x228>
  40442c:	eb000259 	bl	404d98 <__malloc_lock>
  404430:	e3a05010 	mov	r5, #16
  404434:	e3a03018 	mov	r3, #24
  404438:	e3a00002 	mov	r0, #2
  40443c:	e59f676c 	ldr	r6, [pc, #1900]	@ 404bb0 <_malloc_r+0x7a4>
  404440:	e0863003 	add	r3, r6, r3
  404444:	e5934004 	ldr	r4, [r3, #4]
  404448:	e2432008 	sub	r2, r3, #8
  40444c:	e1540002 	cmp	r4, r2
  404450:	0a0000d3 	beq	4047a4 <_malloc_r+0x398>
  404454:	e5943004 	ldr	r3, [r4, #4]
  404458:	e594200c 	ldr	r2, [r4, #12]
  40445c:	e3c33003 	bic	r3, r3, #3
  404460:	e5941008 	ldr	r1, [r4, #8]
  404464:	e0843003 	add	r3, r4, r3
  404468:	e581200c 	str	r2, [r1, #12]
  40446c:	e5821008 	str	r1, [r2, #8]
  404470:	e5932004 	ldr	r2, [r3, #4]
  404474:	e3822001 	orr	r2, r2, #1
  404478:	e1a00007 	mov	r0, r7
  40447c:	e5832004 	str	r2, [r3, #4]
  404480:	e2844008 	add	r4, r4, #8
  404484:	eb000249 	bl	404db0 <__malloc_unlock>
  404488:	e1a00004 	mov	r0, r4
  40448c:	e28dd00c 	add	sp, sp, #12
  404490:	e8bd4ff0 	pop	{r4, r5, r6, r7, r8, r9, sl, fp, lr}
  404494:	e12fff1e 	bx	lr
  404498:	e3c35007 	bic	r5, r3, #7
  40449c:	e1510005 	cmp	r1, r5
  4044a0:	93a01000 	movls	r1, #0
  4044a4:	83a01001 	movhi	r1, #1
  4044a8:	e1911fa3 	orrs	r1, r1, r3, lsr #31
  4044ac:	1a000060 	bne	404634 <_malloc_r+0x228>
  4044b0:	eb000238 	bl	404d98 <__malloc_lock>
  4044b4:	e3550f7e 	cmp	r5, #504	@ 0x1f8
  4044b8:	3a0000fd 	bcc	4048b4 <_malloc_r+0x4a8>
  4044bc:	e1b034a5 	lsrs	r3, r5, #9
  4044c0:	0a00005f 	beq	404644 <_malloc_r+0x238>
  4044c4:	e3530004 	cmp	r3, #4
  4044c8:	8a0000d5 	bhi	404824 <_malloc_r+0x418>
  4044cc:	e1a03325 	lsr	r3, r5, #6
  4044d0:	e2830039 	add	r0, r3, #57	@ 0x39
  4044d4:	e283c038 	add	ip, r3, #56	@ 0x38
  4044d8:	e1a01180 	lsl	r1, r0, #3
  4044dc:	e59f66cc 	ldr	r6, [pc, #1740]	@ 404bb0 <_malloc_r+0x7a4>
  4044e0:	e0861001 	add	r1, r6, r1
  4044e4:	e5914004 	ldr	r4, [r1, #4]
  4044e8:	e2411008 	sub	r1, r1, #8
  4044ec:	e1510004 	cmp	r1, r4
  4044f0:	1a000006 	bne	404510 <_malloc_r+0x104>
  4044f4:	ea00000b 	b	404528 <_malloc_r+0x11c>
  4044f8:	e3520000 	cmp	r2, #0
  4044fc:	e594200c 	ldr	r2, [r4, #12]
  404500:	aaffffd6 	bge	404460 <_malloc_r+0x54>
  404504:	e1510002 	cmp	r1, r2
  404508:	0a000006 	beq	404528 <_malloc_r+0x11c>
  40450c:	e1a04002 	mov	r4, r2
  404510:	e5943004 	ldr	r3, [r4, #4]
  404514:	e3c33003 	bic	r3, r3, #3
  404518:	e0432005 	sub	r2, r3, r5
  40451c:	e352000f 	cmp	r2, #15
  404520:	dafffff4 	ble	4044f8 <_malloc_r+0xec>
  404524:	e1a0000c 	mov	r0, ip
  404528:	e5964010 	ldr	r4, [r6, #16]
  40452c:	e59f8680 	ldr	r8, [pc, #1664]	@ 404bb4 <_malloc_r+0x7a8>
  404530:	e1540008 	cmp	r4, r8
  404534:	0596c004 	ldreq	ip, [r6, #4]
  404538:	0a000018 	beq	4045a0 <_malloc_r+0x194>
  40453c:	e5941004 	ldr	r1, [r4, #4]
  404540:	e3c11003 	bic	r1, r1, #3
  404544:	e0413005 	sub	r3, r1, r5
  404548:	e353000f 	cmp	r3, #15
  40454c:	ca0000e3 	bgt	4048e0 <_malloc_r+0x4d4>
  404550:	e3530000 	cmp	r3, #0
  404554:	e5868010 	str	r8, [r6, #16]
  404558:	e5868014 	str	r8, [r6, #20]
  40455c:	aa0000d7 	bge	4048c0 <_malloc_r+0x4b4>
  404560:	e3510c02 	cmp	r1, #512	@ 0x200
  404564:	e596c004 	ldr	ip, [r6, #4]
  404568:	2a000092 	bcs	4047b8 <_malloc_r+0x3ac>
  40456c:	e3a02001 	mov	r2, #1
  404570:	e1a031a1 	lsr	r3, r1, #3
  404574:	e0833002 	add	r3, r3, r2
  404578:	e1a012a1 	lsr	r1, r1, #5
  40457c:	e18cc112 	orr	ip, ip, r2, lsl r1
  404580:	e7961183 	ldr	r1, [r6, r3, lsl #3]
  404584:	e0862183 	add	r2, r6, r3, lsl #3
  404588:	e2422008 	sub	r2, r2, #8
  40458c:	e5841008 	str	r1, [r4, #8]
  404590:	e584200c 	str	r2, [r4, #12]
  404594:	e586c004 	str	ip, [r6, #4]
  404598:	e7864183 	str	r4, [r6, r3, lsl #3]
  40459c:	e581400c 	str	r4, [r1, #12]
  4045a0:	e3a01001 	mov	r1, #1
  4045a4:	e1a03140 	asr	r3, r0, #2
  4045a8:	e1a01311 	lsl	r1, r1, r3
  4045ac:	e151000c 	cmp	r1, ip
  4045b0:	8a000027 	bhi	404654 <_malloc_r+0x248>
  4045b4:	e111000c 	tst	r1, ip
  4045b8:	1a000008 	bne	4045e0 <_malloc_r+0x1d4>
  4045bc:	e1a01081 	lsl	r1, r1, #1
  4045c0:	e3c00003 	bic	r0, r0, #3
  4045c4:	e111000c 	tst	r1, ip
  4045c8:	e2800004 	add	r0, r0, #4
  4045cc:	1a000003 	bne	4045e0 <_malloc_r+0x1d4>
  4045d0:	e1a01081 	lsl	r1, r1, #1
  4045d4:	e111000c 	tst	r1, ip
  4045d8:	e2800004 	add	r0, r0, #4
  4045dc:	0afffffb 	beq	4045d0 <_malloc_r+0x1c4>
  4045e0:	e086a180 	add	sl, r6, r0, lsl #3
  4045e4:	e1a0e00a 	mov	lr, sl
  4045e8:	e1a09000 	mov	r9, r0
  4045ec:	e59ec00c 	ldr	ip, [lr, #12]
  4045f0:	ea000008 	b	404618 <_malloc_r+0x20c>
  4045f4:	e59c3004 	ldr	r3, [ip, #4]
  4045f8:	e3c33003 	bic	r3, r3, #3
  4045fc:	e0432005 	sub	r2, r3, r5
  404600:	e352000f 	cmp	r2, #15
  404604:	e1a0400c 	mov	r4, ip
  404608:	e59cc00c 	ldr	ip, [ip, #12]
  40460c:	ca00008d 	bgt	404848 <_malloc_r+0x43c>
  404610:	e3520000 	cmp	r2, #0
  404614:	aa00009c 	bge	40488c <_malloc_r+0x480>
  404618:	e15e000c 	cmp	lr, ip
  40461c:	1afffff4 	bne	4045f4 <_malloc_r+0x1e8>
  404620:	e2899001 	add	r9, r9, #1
  404624:	e3190003 	tst	r9, #3
  404628:	e28ee008 	add	lr, lr, #8
  40462c:	1affffee 	bne	4045ec <_malloc_r+0x1e0>
  404630:	ea0000ca 	b	404960 <_malloc_r+0x554>
  404634:	e3a0300c 	mov	r3, #12
  404638:	e5873000 	str	r3, [r7]
  40463c:	e3a04000 	mov	r4, #0
  404640:	eaffff90 	b	404488 <_malloc_r+0x7c>
  404644:	e3a01c02 	mov	r1, #512	@ 0x200
  404648:	e3a00040 	mov	r0, #64	@ 0x40
  40464c:	e3a0c03f 	mov	ip, #63	@ 0x3f
  404650:	eaffffa1 	b	4044dc <_malloc_r+0xd0>
  404654:	e5964008 	ldr	r4, [r6, #8]
  404658:	e5949004 	ldr	r9, [r4, #4]
  40465c:	e3c99003 	bic	r9, r9, #3
  404660:	e1590005 	cmp	r9, r5
  404664:	23a02000 	movcs	r2, #0
  404668:	33a02001 	movcc	r2, #1
  40466c:	e0493005 	sub	r3, r9, r5
  404670:	e353000f 	cmp	r3, #15
  404674:	d3822001 	orrle	r2, r2, #1
  404678:	e3520000 	cmp	r2, #0
  40467c:	0a00003b 	beq	404770 <_malloc_r+0x364>
  404680:	e59f3530 	ldr	r3, [pc, #1328]	@ 404bb8 <_malloc_r+0x7ac>
  404684:	e3a00008 	mov	r0, #8
  404688:	e5938000 	ldr	r8, [r3]
  40468c:	eb0001b5 	bl	404d68 <sysconf>
  404690:	e59f2524 	ldr	r2, [pc, #1316]	@ 404bbc <_malloc_r+0x7b0>
  404694:	e0843009 	add	r3, r4, r9
  404698:	e58d3000 	str	r3, [sp]
  40469c:	e5923000 	ldr	r3, [r2]
  4046a0:	e2888010 	add	r8, r8, #16
  4046a4:	e3730001 	cmn	r3, #1
  4046a8:	e0888005 	add	r8, r8, r5
  4046ac:	12488001 	subne	r8, r8, #1
  4046b0:	10888000 	addne	r8, r8, r0
  4046b4:	12603000 	rsbne	r3, r0, #0
  4046b8:	10088003 	andne	r8, r8, r3
  4046bc:	e1a0b000 	mov	fp, r0
  4046c0:	e1a01008 	mov	r1, r8
  4046c4:	e1a00007 	mov	r0, r7
  4046c8:	eb0003fb 	bl	4056bc <_sbrk_r>
  4046cc:	e3700001 	cmn	r0, #1
  4046d0:	e1a0a000 	mov	sl, r0
  4046d4:	e59f24e0 	ldr	r2, [pc, #1248]	@ 404bbc <_malloc_r+0x7b0>
  4046d8:	0a000095 	beq	404934 <_malloc_r+0x528>
  4046dc:	e0843009 	add	r3, r4, r9
  4046e0:	e1530000 	cmp	r3, r0
  4046e4:	8a000090 	bhi	40492c <_malloc_r+0x520>
  4046e8:	e59f34d0 	ldr	r3, [pc, #1232]	@ 404bc0 <_malloc_r+0x7b4>
  4046ec:	e5931000 	ldr	r1, [r3]
  4046f0:	e0881001 	add	r1, r8, r1
  4046f4:	e1a0c001 	mov	ip, r1
  4046f8:	e5831000 	str	r1, [r3]
  4046fc:	e24b0001 	sub	r0, fp, #1
  404700:	1a0000ac 	bne	4049b8 <_malloc_r+0x5ac>
  404704:	e11a0000 	tst	sl, r0
  404708:	1a0000aa 	bne	4049b8 <_malloc_r+0x5ac>
  40470c:	e596a008 	ldr	sl, [r6, #8]
  404710:	e0898008 	add	r8, r9, r8
  404714:	e3888001 	orr	r8, r8, #1
  404718:	e58a8004 	str	r8, [sl, #4]
  40471c:	e1a0400a 	mov	r4, sl
  404720:	e59f349c 	ldr	r3, [pc, #1180]	@ 404bc4 <_malloc_r+0x7b8>
  404724:	e5932000 	ldr	r2, [r3]
  404728:	e1520001 	cmp	r2, r1
  40472c:	35831000 	strcc	r1, [r3]
  404730:	e59f3490 	ldr	r3, [pc, #1168]	@ 404bc8 <_malloc_r+0x7bc>
  404734:	e5932000 	ldr	r2, [r3]
  404738:	e1520001 	cmp	r2, r1
  40473c:	35831000 	strcc	r1, [r3]
  404740:	e3c83003 	bic	r3, r8, #3
  404744:	e1530005 	cmp	r3, r5
  404748:	23a02000 	movcs	r2, #0
  40474c:	33a02001 	movcc	r2, #1
  404750:	e0433005 	sub	r3, r3, r5
  404754:	e353000f 	cmp	r3, #15
  404758:	d3822001 	orrle	r2, r2, #1
  40475c:	e3520000 	cmp	r2, #0
  404760:	0a000002 	beq	404770 <_malloc_r+0x364>
  404764:	e1a00007 	mov	r0, r7
  404768:	eb000190 	bl	404db0 <__malloc_unlock>
  40476c:	eaffffb2 	b	40463c <_malloc_r+0x230>
  404770:	e0842005 	add	r2, r4, r5
  404774:	e3833001 	orr	r3, r3, #1
  404778:	e3855001 	orr	r5, r5, #1
  40477c:	e5845004 	str	r5, [r4, #4]
  404780:	e1a00007 	mov	r0, r7
  404784:	e5862008 	str	r2, [r6, #8]
  404788:	e2844008 	add	r4, r4, #8
  40478c:	e5823004 	str	r3, [r2, #4]
  404790:	eb000186 	bl	404db0 <__malloc_unlock>
  404794:	e1a00004 	mov	r0, r4
  404798:	e28dd00c 	add	sp, sp, #12
  40479c:	e8bd4ff0 	pop	{r4, r5, r6, r7, r8, r9, sl, fp, lr}
  4047a0:	e12fff1e 	bx	lr
  4047a4:	e593400c 	ldr	r4, [r3, #12]
  4047a8:	e1530004 	cmp	r3, r4
  4047ac:	02800002 	addeq	r0, r0, #2
  4047b0:	0affff5c 	beq	404528 <_malloc_r+0x11c>
  4047b4:	eaffff26 	b	404454 <_malloc_r+0x48>
  4047b8:	e3510c0a 	cmp	r1, #2560	@ 0xa00
  4047bc:	e1a034a1 	lsr	r3, r1, #9
  4047c0:	3a000054 	bcc	404918 <_malloc_r+0x50c>
  4047c4:	e3530014 	cmp	r3, #20
  4047c8:	8a0000be 	bhi	404ac8 <_malloc_r+0x6bc>
  4047cc:	e283205c 	add	r2, r3, #92	@ 0x5c
  4047d0:	e1a02182 	lsl	r2, r2, #3
  4047d4:	e283305b 	add	r3, r3, #91	@ 0x5b
  4047d8:	e796e002 	ldr	lr, [r6, r2]
  4047dc:	e0862002 	add	r2, r6, r2
  4047e0:	e2422008 	sub	r2, r2, #8
  4047e4:	e152000e 	cmp	r2, lr
  4047e8:	1a000003 	bne	4047fc <_malloc_r+0x3f0>
  4047ec:	ea0000a4 	b	404a84 <_malloc_r+0x678>
  4047f0:	e59ee008 	ldr	lr, [lr, #8]
  4047f4:	e152000e 	cmp	r2, lr
  4047f8:	0a000003 	beq	40480c <_malloc_r+0x400>
  4047fc:	e59e3004 	ldr	r3, [lr, #4]
  404800:	e3c33003 	bic	r3, r3, #3
  404804:	e1530001 	cmp	r3, r1
  404808:	8afffff8 	bhi	4047f0 <_malloc_r+0x3e4>
  40480c:	e59e200c 	ldr	r2, [lr, #12]
  404810:	e584200c 	str	r2, [r4, #12]
  404814:	e584e008 	str	lr, [r4, #8]
  404818:	e5824008 	str	r4, [r2, #8]
  40481c:	e58e400c 	str	r4, [lr, #12]
  404820:	eaffff5e 	b	4045a0 <_malloc_r+0x194>
  404824:	e3530014 	cmp	r3, #20
  404828:	9a000044 	bls	404940 <_malloc_r+0x534>
  40482c:	e3530054 	cmp	r3, #84	@ 0x54
  404830:	8a0000ab 	bhi	404ae4 <_malloc_r+0x6d8>
  404834:	e1a03625 	lsr	r3, r5, #12
  404838:	e283006f 	add	r0, r3, #111	@ 0x6f
  40483c:	e283c06e 	add	ip, r3, #110	@ 0x6e
  404840:	e1a01180 	lsl	r1, r0, #3
  404844:	eaffff24 	b	4044dc <_malloc_r+0xd0>
  404848:	e594e008 	ldr	lr, [r4, #8]
  40484c:	e0841005 	add	r1, r4, r5
  404850:	e3855001 	orr	r5, r5, #1
  404854:	e5845004 	str	r5, [r4, #4]
  404858:	e58ec00c 	str	ip, [lr, #12]
  40485c:	e58ce008 	str	lr, [ip, #8]
  404860:	e382c001 	orr	ip, r2, #1
  404864:	e5861010 	str	r1, [r6, #16]
  404868:	e5861014 	str	r1, [r6, #20]
  40486c:	e1a00007 	mov	r0, r7
  404870:	e581800c 	str	r8, [r1, #12]
  404874:	e5818008 	str	r8, [r1, #8]
  404878:	e581c004 	str	ip, [r1, #4]
  40487c:	e7842003 	str	r2, [r4, r3]
  404880:	eb00014a 	bl	404db0 <__malloc_unlock>
  404884:	e2844008 	add	r4, r4, #8
  404888:	eafffefe 	b	404488 <_malloc_r+0x7c>
  40488c:	e0843003 	add	r3, r4, r3
  404890:	e5932004 	ldr	r2, [r3, #4]
  404894:	e3822001 	orr	r2, r2, #1
  404898:	e5832004 	str	r2, [r3, #4]
  40489c:	e5b43008 	ldr	r3, [r4, #8]!
  4048a0:	e1a00007 	mov	r0, r7
  4048a4:	e583c00c 	str	ip, [r3, #12]
  4048a8:	e58c3008 	str	r3, [ip, #8]
  4048ac:	eb00013f 	bl	404db0 <__malloc_unlock>
  4048b0:	eafffef4 	b	404488 <_malloc_r+0x7c>
  4048b4:	e1a001a5 	lsr	r0, r5, #3
  4048b8:	e2853008 	add	r3, r5, #8
  4048bc:	eafffede 	b	40443c <_malloc_r+0x30>
  4048c0:	e0841001 	add	r1, r4, r1
  4048c4:	e5913004 	ldr	r3, [r1, #4]
  4048c8:	e3833001 	orr	r3, r3, #1
  4048cc:	e1a00007 	mov	r0, r7
  4048d0:	e5813004 	str	r3, [r1, #4]
  4048d4:	eb000135 	bl	404db0 <__malloc_unlock>
  4048d8:	e2844008 	add	r4, r4, #8
  4048dc:	eafffee9 	b	404488 <_malloc_r+0x7c>
  4048e0:	e0842005 	add	r2, r4, r5
  4048e4:	e383c001 	orr	ip, r3, #1
  4048e8:	e3855001 	orr	r5, r5, #1
  4048ec:	e5845004 	str	r5, [r4, #4]
  4048f0:	e1a00007 	mov	r0, r7
  4048f4:	e5862010 	str	r2, [r6, #16]
  4048f8:	e5862014 	str	r2, [r6, #20]
  4048fc:	e582800c 	str	r8, [r2, #12]
  404900:	e5828008 	str	r8, [r2, #8]
  404904:	e582c004 	str	ip, [r2, #4]
  404908:	e7843001 	str	r3, [r4, r1]
  40490c:	eb000127 	bl	404db0 <__malloc_unlock>
  404910:	e2844008 	add	r4, r4, #8
  404914:	eafffedb 	b	404488 <_malloc_r+0x7c>
  404918:	e1a03321 	lsr	r3, r1, #6
  40491c:	e2832039 	add	r2, r3, #57	@ 0x39
  404920:	e1a02182 	lsl	r2, r2, #3
  404924:	e2833038 	add	r3, r3, #56	@ 0x38
  404928:	eaffffaa 	b	4047d8 <_malloc_r+0x3cc>
  40492c:	e1540006 	cmp	r4, r6
  404930:	0a00001b 	beq	4049a4 <_malloc_r+0x598>
  404934:	e5964008 	ldr	r4, [r6, #8]
  404938:	e5948004 	ldr	r8, [r4, #4]
  40493c:	eaffff7f 	b	404740 <_malloc_r+0x334>
  404940:	e283005c 	add	r0, r3, #92	@ 0x5c
  404944:	e283c05b 	add	ip, r3, #91	@ 0x5b
  404948:	e1a01180 	lsl	r1, r0, #3
  40494c:	eafffee2 	b	4044dc <_malloc_r+0xd0>
  404950:	e41a3008 	ldr	r3, [sl], #-8
  404954:	e153000a 	cmp	r3, sl
  404958:	e2400001 	sub	r0, r0, #1
  40495c:	1a000091 	bne	404ba8 <_malloc_r+0x79c>
  404960:	e3100003 	tst	r0, #3
  404964:	1afffff9 	bne	404950 <_malloc_r+0x544>
  404968:	e5963004 	ldr	r3, [r6, #4]
  40496c:	e1c33001 	bic	r3, r3, r1
  404970:	e5863004 	str	r3, [r6, #4]
  404974:	e1a01081 	lsl	r1, r1, #1
  404978:	e2412001 	sub	r2, r1, #1
  40497c:	e1520003 	cmp	r2, r3
  404980:	2affff33 	bcs	404654 <_malloc_r+0x248>
  404984:	e1110003 	tst	r1, r3
  404988:	1a000003 	bne	40499c <_malloc_r+0x590>
  40498c:	e1a01081 	lsl	r1, r1, #1
  404990:	e1110003 	tst	r1, r3
  404994:	e2899004 	add	r9, r9, #4
  404998:	0afffffb 	beq	40498c <_malloc_r+0x580>
  40499c:	e1a00009 	mov	r0, r9
  4049a0:	eaffff0e 	b	4045e0 <_malloc_r+0x1d4>
  4049a4:	e59f3214 	ldr	r3, [pc, #532]	@ 404bc0 <_malloc_r+0x7b4>
  4049a8:	e593c000 	ldr	ip, [r3]
  4049ac:	e088c00c 	add	ip, r8, ip
  4049b0:	e583c000 	str	ip, [r3]
  4049b4:	e24b0001 	sub	r0, fp, #1
  4049b8:	e5921000 	ldr	r1, [r2]
  4049bc:	e3710001 	cmn	r1, #1
  4049c0:	10842009 	addne	r2, r4, r9
  4049c4:	104a2002 	subne	r2, sl, r2
  4049c8:	1082200c 	addne	r2, r2, ip
  4049cc:	0582a000 	streq	sl, [r2]
  4049d0:	15832000 	strne	r2, [r3]
  4049d4:	e21a2007 	ands	r2, sl, #7
  4049d8:	e88d000c 	stm	sp, {r2, r3}
  4049dc:	0a00002d 	beq	404a98 <_malloc_r+0x68c>
  4049e0:	e2622008 	rsb	r2, r2, #8
  4049e4:	e08aa002 	add	sl, sl, r2
  4049e8:	e08a8008 	add	r8, sl, r8
  4049ec:	e0081000 	and	r1, r8, r0
  4049f0:	e08b2002 	add	r2, fp, r2
  4049f4:	e0422001 	sub	r2, r2, r1
  4049f8:	e002b000 	and	fp, r2, r0
  4049fc:	e1a0100b 	mov	r1, fp
  404a00:	e1a00007 	mov	r0, r7
  404a04:	eb00032c 	bl	4056bc <_sbrk_r>
  404a08:	e3700001 	cmn	r0, #1
  404a0c:	e59d3004 	ldr	r3, [sp, #4]
  404a10:	0a000051 	beq	404b5c <_malloc_r+0x750>
  404a14:	e040000a 	sub	r0, r0, sl
  404a18:	e080800b 	add	r8, r0, fp
  404a1c:	e5931000 	ldr	r1, [r3]
  404a20:	e3888001 	orr	r8, r8, #1
  404a24:	e08b1001 	add	r1, fp, r1
  404a28:	e1540006 	cmp	r4, r6
  404a2c:	e586a008 	str	sl, [r6, #8]
  404a30:	e5831000 	str	r1, [r3]
  404a34:	e58a8004 	str	r8, [sl, #4]
  404a38:	0affff37 	beq	40471c <_malloc_r+0x310>
  404a3c:	e359000f 	cmp	r9, #15
  404a40:	93a03001 	movls	r3, #1
  404a44:	958a3004 	strls	r3, [sl, #4]
  404a48:	9affff45 	bls	404764 <_malloc_r+0x358>
  404a4c:	e3a0c005 	mov	ip, #5
  404a50:	e5940004 	ldr	r0, [r4, #4]
  404a54:	e249200c 	sub	r2, r9, #12
  404a58:	e3c22007 	bic	r2, r2, #7
  404a5c:	e2000001 	and	r0, r0, #1
  404a60:	e1800002 	orr	r0, r0, r2
  404a64:	e352000f 	cmp	r2, #15
  404a68:	e0842002 	add	r2, r4, r2
  404a6c:	e5840004 	str	r0, [r4, #4]
  404a70:	e582c004 	str	ip, [r2, #4]
  404a74:	e582c008 	str	ip, [r2, #8]
  404a78:	8a00002f 	bhi	404b3c <_malloc_r+0x730>
  404a7c:	e59a8004 	ldr	r8, [sl, #4]
  404a80:	eaffff25 	b	40471c <_malloc_r+0x310>
  404a84:	e3a01001 	mov	r1, #1
  404a88:	e1a03143 	asr	r3, r3, #2
  404a8c:	e18cc311 	orr	ip, ip, r1, lsl r3
  404a90:	e586c004 	str	ip, [r6, #4]
  404a94:	eaffff5d 	b	404810 <_malloc_r+0x404>
  404a98:	e08a2008 	add	r2, sl, r8
  404a9c:	e0022000 	and	r2, r2, r0
  404aa0:	e04bb002 	sub	fp, fp, r2
  404aa4:	e00bb000 	and	fp, fp, r0
  404aa8:	e1a0100b 	mov	r1, fp
  404aac:	e1a00007 	mov	r0, r7
  404ab0:	eb000301 	bl	4056bc <_sbrk_r>
  404ab4:	e3700001 	cmn	r0, #1
  404ab8:	e59d3004 	ldr	r3, [sp, #4]
  404abc:	1affffd4 	bne	404a14 <_malloc_r+0x608>
  404ac0:	e59db000 	ldr	fp, [sp]
  404ac4:	eaffffd4 	b	404a1c <_malloc_r+0x610>
  404ac8:	e3530054 	cmp	r3, #84	@ 0x54
  404acc:	8a00000b 	bhi	404b00 <_malloc_r+0x6f4>
  404ad0:	e1a03621 	lsr	r3, r1, #12
  404ad4:	e283206f 	add	r2, r3, #111	@ 0x6f
  404ad8:	e1a02182 	lsl	r2, r2, #3
  404adc:	e283306e 	add	r3, r3, #110	@ 0x6e
  404ae0:	eaffff3c 	b	4047d8 <_malloc_r+0x3cc>
  404ae4:	e3530f55 	cmp	r3, #340	@ 0x154
  404ae8:	8a00000b 	bhi	404b1c <_malloc_r+0x710>
  404aec:	e1a037a5 	lsr	r3, r5, #15
  404af0:	e2830078 	add	r0, r3, #120	@ 0x78
  404af4:	e283c077 	add	ip, r3, #119	@ 0x77
  404af8:	e1a01180 	lsl	r1, r0, #3
  404afc:	eafffe76 	b	4044dc <_malloc_r+0xd0>
  404b00:	e3530f55 	cmp	r3, #340	@ 0x154
  404b04:	8a00001a 	bhi	404b74 <_malloc_r+0x768>
  404b08:	e1a037a1 	lsr	r3, r1, #15
  404b0c:	e2832078 	add	r2, r3, #120	@ 0x78
  404b10:	e1a02182 	lsl	r2, r2, #3
  404b14:	e2833077 	add	r3, r3, #119	@ 0x77
  404b18:	eaffff2e 	b	4047d8 <_malloc_r+0x3cc>
  404b1c:	e59f20a8 	ldr	r2, [pc, #168]	@ 404bcc <_malloc_r+0x7c0>
  404b20:	e1530002 	cmp	r3, r2
  404b24:	8a00001b 	bhi	404b98 <_malloc_r+0x78c>
  404b28:	e1a03925 	lsr	r3, r5, #18
  404b2c:	e283007d 	add	r0, r3, #125	@ 0x7d
  404b30:	e283c07c 	add	ip, r3, #124	@ 0x7c
  404b34:	e1a01180 	lsl	r1, r0, #3
  404b38:	eafffe67 	b	4044dc <_malloc_r+0xd0>
  404b3c:	e2841008 	add	r1, r4, #8
  404b40:	e1a00007 	mov	r0, r7
  404b44:	e58d3000 	str	r3, [sp]
  404b48:	eb0001fd 	bl	405344 <_free_r>
  404b4c:	e59d3000 	ldr	r3, [sp]
  404b50:	e596a008 	ldr	sl, [r6, #8]
  404b54:	e5931000 	ldr	r1, [r3]
  404b58:	eaffffc7 	b	404a7c <_malloc_r+0x670>
  404b5c:	e59d2000 	ldr	r2, [sp]
  404b60:	e2422008 	sub	r2, r2, #8
  404b64:	e0888002 	add	r8, r8, r2
  404b68:	e3a0b000 	mov	fp, #0
  404b6c:	e048800a 	sub	r8, r8, sl
  404b70:	eaffffa9 	b	404a1c <_malloc_r+0x610>
  404b74:	e59f2050 	ldr	r2, [pc, #80]	@ 404bcc <_malloc_r+0x7c0>
  404b78:	e1530002 	cmp	r3, r2
  404b7c:	91a03921 	lsrls	r3, r1, #18
  404b80:	9283207d 	addls	r2, r3, #125	@ 0x7d
  404b84:	83a02ffe 	movhi	r2, #1016	@ 0x3f8
  404b88:	83a0307e 	movhi	r3, #126	@ 0x7e
  404b8c:	9283307c 	addls	r3, r3, #124	@ 0x7c
  404b90:	91a02182 	lslls	r2, r2, #3
  404b94:	eaffff0f 	b	4047d8 <_malloc_r+0x3cc>
  404b98:	e3a01ffe 	mov	r1, #1016	@ 0x3f8
  404b9c:	e3a0007f 	mov	r0, #127	@ 0x7f
  404ba0:	e3a0c07e 	mov	ip, #126	@ 0x7e
  404ba4:	eafffe4c 	b	4044dc <_malloc_r+0xd0>
  404ba8:	e5963004 	ldr	r3, [r6, #4]
  404bac:	eaffff70 	b	404974 <_malloc_r+0x568>
  404bb0:	004058c8 	subeq	r5, r0, r8, asr #17
  404bb4:	004058d0 	ldrdeq	r5, [r0], #-128	@ 0xffffff80
  404bb8:	00410410 	subeq	r0, r1, r0, lsl r4
  404bbc:	004058bc 	strheq	r5, [r0], #-140	@ 0xffffff74
  404bc0:	004103e0 	subeq	r0, r1, r0, ror #7
  404bc4:	0041040c 	subeq	r0, r1, ip, lsl #8
  404bc8:	00410408 	subeq	r0, r1, r8, lsl #8
  404bcc:	00000554 	andeq	r0, r0, r4, asr r5

Disassembly of section .text.__retarget_lock_init:

00404bd0 <__retarget_lock_init>:
  404bd0:	e12fff1e 	bx	lr

Disassembly of section .text.__retarget_lock_init_recursive:

00404bd4 <__retarget_lock_init_recursive>:
  404bd4:	e12fff1e 	bx	lr

Disassembly of section .text.__retarget_lock_close:

00404bd8 <__retarget_lock_close>:
  404bd8:	e12fff1e 	bx	lr

Disassembly of section .text.__retarget_lock_close_recursive:

00404bdc <__retarget_lock_close_recursive>:
  404bdc:	e12fff1e 	bx	lr

Disassembly of section .text.__retarget_lock_acquire:

00404be0 <__retarget_lock_acquire>:
  404be0:	e12fff1e 	bx	lr

Disassembly of section .text.__retarget_lock_acquire_recursive:

00404be4 <__retarget_lock_acquire_recursive>:
  404be4:	e12fff1e 	bx	lr

Disassembly of section .text.__retarget_lock_try_acquire:

00404be8 <__retarget_lock_try_acquire>:
  404be8:	e3a00001 	mov	r0, #1
  404bec:	e12fff1e 	bx	lr

Disassembly of section .text.__retarget_lock_try_acquire_recursive:

00404bf0 <__retarget_lock_try_acquire_recursive>:
  404bf0:	e3a00001 	mov	r0, #1
  404bf4:	e12fff1e 	bx	lr

Disassembly of section .text.__retarget_lock_release:

00404bf8 <__retarget_lock_release>:
  404bf8:	e12fff1e 	bx	lr

Disassembly of section .text.__retarget_lock_release_recursive:

00404bfc <__retarget_lock_release_recursive>:
  404bfc:	e12fff1e 	bx	lr

Disassembly of section .text._fclose_r:

00404c00 <_fclose_r>:
  404c00:	e92d4070 	push	{r4, r5, r6, lr}
  404c04:	e2514000 	subs	r4, r1, #0
  404c08:	0a000039 	beq	404cf4 <_fclose_r+0xf4>
  404c0c:	e3500000 	cmp	r0, #0
  404c10:	e1a05000 	mov	r5, r0
  404c14:	0a000002 	beq	404c24 <_fclose_r+0x24>
  404c18:	e5903034 	ldr	r3, [r0, #52]	@ 0x34
  404c1c:	e3530000 	cmp	r3, #0
  404c20:	0a000037 	beq	404d04 <_fclose_r+0x104>
  404c24:	e5943064 	ldr	r3, [r4, #100]	@ 0x64
  404c28:	e3130001 	tst	r3, #1
  404c2c:	e1d420fc 	ldrsh	r2, [r4, #12]
  404c30:	1a00002d 	bne	404cec <_fclose_r+0xec>
  404c34:	e3120c02 	tst	r2, #512	@ 0x200
  404c38:	0a000033 	beq	404d0c <_fclose_r+0x10c>
  404c3c:	e1a01004 	mov	r1, r4
  404c40:	e1a00005 	mov	r0, r5
  404c44:	eb000097 	bl	404ea8 <__sflush_r>
  404c48:	e594302c 	ldr	r3, [r4, #44]	@ 0x2c
  404c4c:	e3530000 	cmp	r3, #0
  404c50:	e1a06000 	mov	r6, r0
  404c54:	0a000005 	beq	404c70 <_fclose_r+0x70>
  404c58:	e1a00005 	mov	r0, r5
  404c5c:	e594101c 	ldr	r1, [r4, #28]
  404c60:	e1a0e00f 	mov	lr, pc
  404c64:	e12fff13 	bx	r3
  404c68:	e3500000 	cmp	r0, #0
  404c6c:	b3e06000 	mvnlt	r6, #0
  404c70:	e1d430bc 	ldrh	r3, [r4, #12]
  404c74:	e3130080 	tst	r3, #128	@ 0x80
  404c78:	1a000031 	bne	404d44 <_fclose_r+0x144>
  404c7c:	e5941030 	ldr	r1, [r4, #48]	@ 0x30
  404c80:	e3510000 	cmp	r1, #0
  404c84:	0a000005 	beq	404ca0 <_fclose_r+0xa0>
  404c88:	e2843040 	add	r3, r4, #64	@ 0x40
  404c8c:	e1510003 	cmp	r1, r3
  404c90:	11a00005 	movne	r0, r5
  404c94:	1b0001aa 	blne	405344 <_free_r>
  404c98:	e3a03000 	mov	r3, #0
  404c9c:	e5843030 	str	r3, [r4, #48]	@ 0x30
  404ca0:	e5941044 	ldr	r1, [r4, #68]	@ 0x44
  404ca4:	e3510000 	cmp	r1, #0
  404ca8:	0a000003 	beq	404cbc <_fclose_r+0xbc>
  404cac:	e1a00005 	mov	r0, r5
  404cb0:	eb0001a3 	bl	405344 <_free_r>
  404cb4:	e3a03000 	mov	r3, #0
  404cb8:	e5843044 	str	r3, [r4, #68]	@ 0x44
  404cbc:	ebfffd2f 	bl	404180 <__sfp_lock_acquire>
  404cc0:	e3a03000 	mov	r3, #0
  404cc4:	e5942064 	ldr	r2, [r4, #100]	@ 0x64
  404cc8:	e3120001 	tst	r2, #1
  404ccc:	e1c430bc 	strh	r3, [r4, #12]
  404cd0:	0a000018 	beq	404d38 <_fclose_r+0x138>
  404cd4:	e5940058 	ldr	r0, [r4, #88]	@ 0x58
  404cd8:	ebffffbf 	bl	404bdc <__retarget_lock_close_recursive>
  404cdc:	ebfffd2d 	bl	404198 <__sfp_lock_release>
  404ce0:	e1a00006 	mov	r0, r6
  404ce4:	e8bd4070 	pop	{r4, r5, r6, lr}
  404ce8:	e12fff1e 	bx	lr
  404cec:	e3520000 	cmp	r2, #0
  404cf0:	1affffd1 	bne	404c3c <_fclose_r+0x3c>
  404cf4:	e3a06000 	mov	r6, #0
  404cf8:	e1a00006 	mov	r0, r6
  404cfc:	e8bd4070 	pop	{r4, r5, r6, lr}
  404d00:	e12fff1e 	bx	lr
  404d04:	ebfffd04 	bl	40411c <__sinit>
  404d08:	eaffffc5 	b	404c24 <_fclose_r+0x24>
  404d0c:	e5940058 	ldr	r0, [r4, #88]	@ 0x58
  404d10:	ebffffb3 	bl	404be4 <__retarget_lock_acquire_recursive>
  404d14:	e1d430fc 	ldrsh	r3, [r4, #12]
  404d18:	e3530000 	cmp	r3, #0
  404d1c:	1affffc6 	bne	404c3c <_fclose_r+0x3c>
  404d20:	e5943064 	ldr	r3, [r4, #100]	@ 0x64
  404d24:	e3130001 	tst	r3, #1
  404d28:	1afffff1 	bne	404cf4 <_fclose_r+0xf4>
  404d2c:	e5940058 	ldr	r0, [r4, #88]	@ 0x58
  404d30:	ebffffb1 	bl	404bfc <__retarget_lock_release_recursive>
  404d34:	eaffffee 	b	404cf4 <_fclose_r+0xf4>
  404d38:	e5940058 	ldr	r0, [r4, #88]	@ 0x58
  404d3c:	ebffffae 	bl	404bfc <__retarget_lock_release_recursive>
  404d40:	eaffffe3 	b	404cd4 <_fclose_r+0xd4>
  404d44:	e1a00005 	mov	r0, r5
  404d48:	e5941010 	ldr	r1, [r4, #16]
  404d4c:	eb00017c 	bl	405344 <_free_r>
  404d50:	eaffffc9 	b	404c7c <_fclose_r+0x7c>

Disassembly of section .text.fclose:

00404d54 <fclose>:
  404d54:	e59f3008 	ldr	r3, [pc, #8]	@ 404d64 <fclose+0x10>
  404d58:	e1a01000 	mov	r1, r0
  404d5c:	e5930000 	ldr	r0, [r3]
  404d60:	eaffffa6 	b	404c00 <_fclose_r>
  404d64:	0040578c 	subeq	r5, r0, ip, lsl #15

Disassembly of section .text.sysconf:

00404d68 <sysconf>:
  404d68:	e3500008 	cmp	r0, #8
  404d6c:	1a000001 	bne	404d78 <sysconf+0x10>
  404d70:	e3a00a01 	mov	r0, #4096	@ 0x1000
  404d74:	e12fff1e 	bx	lr
  404d78:	e92d4010 	push	{r4, lr}
  404d7c:	ebfffb99 	bl	403be8 <__errno>
  404d80:	e3a02016 	mov	r2, #22
  404d84:	e1a03000 	mov	r3, r0
  404d88:	e8bd4010 	pop	{r4, lr}
  404d8c:	e3e00000 	mvn	r0, #0
  404d90:	e5832000 	str	r2, [r3]
  404d94:	e12fff1e 	bx	lr

Disassembly of section .text.__malloc_lock:

00404d98 <__malloc_lock>:
  404d98:	e92d4010 	push	{r4, lr}
  404d9c:	e59f0008 	ldr	r0, [pc, #8]	@ 404dac <__malloc_lock+0x14>
  404da0:	ebffff8f 	bl	404be4 <__retarget_lock_acquire_recursive>
  404da4:	e8bd4010 	pop	{r4, lr}
  404da8:	e12fff1e 	bx	lr
  404dac:	00410424 	subeq	r0, r1, r4, lsr #8

Disassembly of section .text.__malloc_unlock:

00404db0 <__malloc_unlock>:
  404db0:	e92d4010 	push	{r4, lr}
  404db4:	e59f0008 	ldr	r0, [pc, #8]	@ 404dc4 <__malloc_unlock+0x14>
  404db8:	ebffff8f 	bl	404bfc <__retarget_lock_release_recursive>
  404dbc:	e8bd4010 	pop	{r4, lr}
  404dc0:	e12fff1e 	bx	lr
  404dc4:	00410424 	subeq	r0, r1, r4, lsr #8

Disassembly of section .text._close_r:

00404dc8 <_close_r>:
  404dc8:	e3a02000 	mov	r2, #0
  404dcc:	e92d4070 	push	{r4, r5, r6, lr}
  404dd0:	e59f5028 	ldr	r5, [pc, #40]	@ 404e00 <_close_r+0x38>
  404dd4:	e1a04000 	mov	r4, r0
  404dd8:	e1a00001 	mov	r0, r1
  404ddc:	e5852000 	str	r2, [r5]
  404de0:	eb000246 	bl	405700 <_close>
  404de4:	e3700001 	cmn	r0, #1
  404de8:	1a000002 	bne	404df8 <_close_r+0x30>
  404dec:	e5953000 	ldr	r3, [r5]
  404df0:	e3530000 	cmp	r3, #0
  404df4:	15843000 	strne	r3, [r4]
  404df8:	e8bd4070 	pop	{r4, r5, r6, lr}
  404dfc:	e12fff1e 	bx	lr
  404e00:	00410434 	subeq	r0, r1, r4, lsr r4

Disassembly of section .text._reclaim_reent:

00404e04 <_reclaim_reent>:
  404e04:	e59f3098 	ldr	r3, [pc, #152]	@ 404ea4 <_reclaim_reent+0xa0>
  404e08:	e5933000 	ldr	r3, [r3]
  404e0c:	e1530000 	cmp	r3, r0
  404e10:	012fff1e 	bxeq	lr
  404e14:	e5901044 	ldr	r1, [r0, #68]	@ 0x44
  404e18:	e3510000 	cmp	r1, #0
  404e1c:	e92d4070 	push	{r4, r5, r6, lr}
  404e20:	e1a05000 	mov	r5, r0
  404e24:	0a00000f 	beq	404e68 <_reclaim_reent+0x64>
  404e28:	e3a06000 	mov	r6, #0
  404e2c:	e7914006 	ldr	r4, [r1, r6]
  404e30:	e3540000 	cmp	r4, #0
  404e34:	0a000006 	beq	404e54 <_reclaim_reent+0x50>
  404e38:	e1a01004 	mov	r1, r4
  404e3c:	e5944000 	ldr	r4, [r4]
  404e40:	e1a00005 	mov	r0, r5
  404e44:	eb00013e 	bl	405344 <_free_r>
  404e48:	e3540000 	cmp	r4, #0
  404e4c:	1afffff9 	bne	404e38 <_reclaim_reent+0x34>
  404e50:	e5951044 	ldr	r1, [r5, #68]	@ 0x44
  404e54:	e2866004 	add	r6, r6, #4
  404e58:	e3560080 	cmp	r6, #128	@ 0x80
  404e5c:	1afffff2 	bne	404e2c <_reclaim_reent+0x28>
  404e60:	e1a00005 	mov	r0, r5
  404e64:	eb000136 	bl	405344 <_free_r>
  404e68:	e5951038 	ldr	r1, [r5, #56]	@ 0x38
  404e6c:	e3510000 	cmp	r1, #0
  404e70:	11a00005 	movne	r0, r5
  404e74:	1b000132 	blne	405344 <_free_r>
  404e78:	e595104c 	ldr	r1, [r5, #76]	@ 0x4c
  404e7c:	e3510000 	cmp	r1, #0
  404e80:	11a00005 	movne	r0, r5
  404e84:	1b00012e 	blne	405344 <_free_r>
  404e88:	e5953034 	ldr	r3, [r5, #52]	@ 0x34
  404e8c:	e3530000 	cmp	r3, #0
  404e90:	11a00005 	movne	r0, r5
  404e94:	18bd4070 	popne	{r4, r5, r6, lr}
  404e98:	112fff13 	bxne	r3
  404e9c:	e8bd4070 	pop	{r4, r5, r6, lr}
  404ea0:	e12fff1e 	bx	lr
  404ea4:	0040578c 	subeq	r5, r0, ip, lsl #15

Disassembly of section .text.__sflush_r:

00404ea8 <__sflush_r>:
  404ea8:	e1d120fc 	ldrsh	r2, [r1, #12]
  404eac:	e3120008 	tst	r2, #8
  404eb0:	e92d41f0 	push	{r4, r5, r6, r7, r8, lr}
  404eb4:	e1a04001 	mov	r4, r1
  404eb8:	e1a07000 	mov	r7, r0
  404ebc:	1a000044 	bne	404fd4 <__sflush_r+0x12c>
  404ec0:	e5911004 	ldr	r1, [r1, #4]
  404ec4:	e3823b02 	orr	r3, r2, #2048	@ 0x800
  404ec8:	e3510000 	cmp	r1, #0
  404ecc:	e1c430bc 	strh	r3, [r4, #12]
  404ed0:	da00005f 	ble	405054 <__sflush_r+0x1ac>
  404ed4:	e5945028 	ldr	r5, [r4, #40]	@ 0x28
  404ed8:	e3550000 	cmp	r5, #0
  404edc:	0a000039 	beq	404fc8 <__sflush_r+0x120>
  404ee0:	e3a01000 	mov	r1, #0
  404ee4:	e2122a01 	ands	r2, r2, #4096	@ 0x1000
  404ee8:	e5976000 	ldr	r6, [r7]
  404eec:	e5871000 	str	r1, [r7]
  404ef0:	e594101c 	ldr	r1, [r4, #28]
  404ef4:	1a00005a 	bne	405064 <__sflush_r+0x1bc>
  404ef8:	e3a03001 	mov	r3, #1
  404efc:	e1a00007 	mov	r0, r7
  404f00:	e1a0e00f 	mov	lr, pc
  404f04:	e12fff15 	bx	r5
  404f08:	e3700001 	cmn	r0, #1
  404f0c:	e1a02000 	mov	r2, r0
  404f10:	0a00005f 	beq	405094 <__sflush_r+0x1ec>
  404f14:	e1d430fc 	ldrsh	r3, [r4, #12]
  404f18:	e5945028 	ldr	r5, [r4, #40]	@ 0x28
  404f1c:	e594101c 	ldr	r1, [r4, #28]
  404f20:	e3130004 	tst	r3, #4
  404f24:	0a000005 	beq	404f40 <__sflush_r+0x98>
  404f28:	e5943030 	ldr	r3, [r4, #48]	@ 0x30
  404f2c:	e3530000 	cmp	r3, #0
  404f30:	e5943004 	ldr	r3, [r4, #4]
  404f34:	e0422003 	sub	r2, r2, r3
  404f38:	1594303c 	ldrne	r3, [r4, #60]	@ 0x3c
  404f3c:	10422003 	subne	r2, r2, r3
  404f40:	e3a03000 	mov	r3, #0
  404f44:	e1a00007 	mov	r0, r7
  404f48:	e1a0e00f 	mov	lr, pc
  404f4c:	e12fff15 	bx	r5
  404f50:	e3700001 	cmn	r0, #1
  404f54:	1a000044 	bne	40506c <__sflush_r+0x1c4>
  404f58:	e5972000 	ldr	r2, [r7]
  404f5c:	e352001d 	cmp	r2, #29
  404f60:	13520000 	cmpne	r2, #0
  404f64:	03a01001 	moveq	r1, #1
  404f68:	13a01000 	movne	r1, #0
  404f6c:	e3520016 	cmp	r2, #22
  404f70:	03811001 	orreq	r1, r1, #1
  404f74:	e3510000 	cmp	r1, #0
  404f78:	e1d430fc 	ldrsh	r3, [r4, #12]
  404f7c:	0a00002f 	beq	405040 <__sflush_r+0x198>
  404f80:	e3130a01 	tst	r3, #4096	@ 0x1000
  404f84:	e3c33b02 	bic	r3, r3, #2048	@ 0x800
  404f88:	e1c430bc 	strh	r3, [r4, #12]
  404f8c:	e3a03000 	mov	r3, #0
  404f90:	e5843004 	str	r3, [r4, #4]
  404f94:	e5943010 	ldr	r3, [r4, #16]
  404f98:	e5843000 	str	r3, [r4]
  404f9c:	1a000044 	bne	4050b4 <__sflush_r+0x20c>
  404fa0:	e5941030 	ldr	r1, [r4, #48]	@ 0x30
  404fa4:	e3510000 	cmp	r1, #0
  404fa8:	e5876000 	str	r6, [r7]
  404fac:	0a000005 	beq	404fc8 <__sflush_r+0x120>
  404fb0:	e2843040 	add	r3, r4, #64	@ 0x40
  404fb4:	e1510003 	cmp	r1, r3
  404fb8:	11a00007 	movne	r0, r7
  404fbc:	1b0000e0 	blne	405344 <_free_r>
  404fc0:	e3a03000 	mov	r3, #0
  404fc4:	e5843030 	str	r3, [r4, #48]	@ 0x30
  404fc8:	e3a00000 	mov	r0, #0
  404fcc:	e8bd41f0 	pop	{r4, r5, r6, r7, r8, lr}
  404fd0:	e12fff1e 	bx	lr
  404fd4:	e5916010 	ldr	r6, [r1, #16]
  404fd8:	e3560000 	cmp	r6, #0
  404fdc:	0afffff9 	beq	404fc8 <__sflush_r+0x120>
  404fe0:	e3120003 	tst	r2, #3
  404fe4:	13a03000 	movne	r3, #0
  404fe8:	e5915000 	ldr	r5, [r1]
  404fec:	05913014 	ldreq	r3, [r1, #20]
  404ff0:	e0455006 	sub	r5, r5, r6
  404ff4:	e3550000 	cmp	r5, #0
  404ff8:	e5816000 	str	r6, [r1]
  404ffc:	e5813008 	str	r3, [r1, #8]
  405000:	ca000003 	bgt	405014 <__sflush_r+0x16c>
  405004:	eaffffef 	b	404fc8 <__sflush_r+0x120>
  405008:	e3550000 	cmp	r5, #0
  40500c:	e0866000 	add	r6, r6, r0
  405010:	daffffec 	ble	404fc8 <__sflush_r+0x120>
  405014:	e1a03005 	mov	r3, r5
  405018:	e1a02006 	mov	r2, r6
  40501c:	e1a00007 	mov	r0, r7
  405020:	e594101c 	ldr	r1, [r4, #28]
  405024:	e594c024 	ldr	ip, [r4, #36]	@ 0x24
  405028:	e1a0e00f 	mov	lr, pc
  40502c:	e12fff1c 	bx	ip
  405030:	e3500000 	cmp	r0, #0
  405034:	e0455000 	sub	r5, r5, r0
  405038:	cafffff2 	bgt	405008 <__sflush_r+0x160>
  40503c:	e1d430fc 	ldrsh	r3, [r4, #12]
  405040:	e3833040 	orr	r3, r3, #64	@ 0x40
  405044:	e3e00000 	mvn	r0, #0
  405048:	e1c430bc 	strh	r3, [r4, #12]
  40504c:	e8bd41f0 	pop	{r4, r5, r6, r7, r8, lr}
  405050:	e12fff1e 	bx	lr
  405054:	e594103c 	ldr	r1, [r4, #60]	@ 0x3c
  405058:	e3510000 	cmp	r1, #0
  40505c:	caffff9c 	bgt	404ed4 <__sflush_r+0x2c>
  405060:	eaffffd8 	b	404fc8 <__sflush_r+0x120>
  405064:	e5942050 	ldr	r2, [r4, #80]	@ 0x50
  405068:	eaffffac 	b	404f20 <__sflush_r+0x78>
  40506c:	e1d430fc 	ldrsh	r3, [r4, #12]
  405070:	e3130a01 	tst	r3, #4096	@ 0x1000
  405074:	e3c33b02 	bic	r3, r3, #2048	@ 0x800
  405078:	e1c430bc 	strh	r3, [r4, #12]
  40507c:	e3a03000 	mov	r3, #0
  405080:	e5942010 	ldr	r2, [r4, #16]
  405084:	e884000c 	stm	r4, {r2, r3}
  405088:	0affffc4 	beq	404fa0 <__sflush_r+0xf8>
  40508c:	e5840050 	str	r0, [r4, #80]	@ 0x50
  405090:	eaffffc2 	b	404fa0 <__sflush_r+0xf8>
  405094:	e5973000 	ldr	r3, [r7]
  405098:	e3530000 	cmp	r3, #0
  40509c:	0affff9c 	beq	404f14 <__sflush_r+0x6c>
  4050a0:	e3530016 	cmp	r3, #22
  4050a4:	1353001d 	cmpne	r3, #29
  4050a8:	05876000 	streq	r6, [r7]
  4050ac:	0affffc5 	beq	404fc8 <__sflush_r+0x120>
  4050b0:	eaffffe1 	b	40503c <__sflush_r+0x194>
  4050b4:	e3520000 	cmp	r2, #0
  4050b8:	1affffb8 	bne	404fa0 <__sflush_r+0xf8>
  4050bc:	eafffff2 	b	40508c <__sflush_r+0x1e4>

Disassembly of section .text._fflush_r:

004050c0 <_fflush_r>:
  4050c0:	e92d4070 	push	{r4, r5, r6, lr}
  4050c4:	e2505000 	subs	r5, r0, #0
  4050c8:	e1a04001 	mov	r4, r1
  4050cc:	0a000002 	beq	4050dc <_fflush_r+0x1c>
  4050d0:	e5953034 	ldr	r3, [r5, #52]	@ 0x34
  4050d4:	e3530000 	cmp	r3, #0
  4050d8:	0a00001d 	beq	405154 <_fflush_r+0x94>
  4050dc:	e1d400fc 	ldrsh	r0, [r4, #12]
  4050e0:	e3500000 	cmp	r0, #0
  4050e4:	01a05000 	moveq	r5, r0
  4050e8:	0a00000e 	beq	405128 <_fflush_r+0x68>
  4050ec:	e5943064 	ldr	r3, [r4, #100]	@ 0x64
  4050f0:	e3130001 	tst	r3, #1
  4050f4:	1a000001 	bne	405100 <_fflush_r+0x40>
  4050f8:	e3100c02 	tst	r0, #512	@ 0x200
  4050fc:	0a00000c 	beq	405134 <_fflush_r+0x74>
  405100:	e1a00005 	mov	r0, r5
  405104:	e1a01004 	mov	r1, r4
  405108:	ebffff66 	bl	404ea8 <__sflush_r>
  40510c:	e5943064 	ldr	r3, [r4, #100]	@ 0x64
  405110:	e3130001 	tst	r3, #1
  405114:	e1a05000 	mov	r5, r0
  405118:	1a000002 	bne	405128 <_fflush_r+0x68>
  40511c:	e1d430bc 	ldrh	r3, [r4, #12]
  405120:	e3130c02 	tst	r3, #512	@ 0x200
  405124:	0a000005 	beq	405140 <_fflush_r+0x80>
  405128:	e1a00005 	mov	r0, r5
  40512c:	e8bd4070 	pop	{r4, r5, r6, lr}
  405130:	e12fff1e 	bx	lr
  405134:	e5940058 	ldr	r0, [r4, #88]	@ 0x58
  405138:	ebfffea9 	bl	404be4 <__retarget_lock_acquire_recursive>
  40513c:	eaffffef 	b	405100 <_fflush_r+0x40>
  405140:	e5940058 	ldr	r0, [r4, #88]	@ 0x58
  405144:	ebfffeac 	bl	404bfc <__retarget_lock_release_recursive>
  405148:	e1a00005 	mov	r0, r5
  40514c:	e8bd4070 	pop	{r4, r5, r6, lr}
  405150:	e12fff1e 	bx	lr
  405154:	ebfffbf0 	bl	40411c <__sinit>
  405158:	eaffffdf 	b	4050dc <_fflush_r+0x1c>

Disassembly of section .text.fflush:

0040515c <fflush>:
  40515c:	e92d4070 	push	{r4, r5, r6, lr}
  405160:	e2504000 	subs	r4, r0, #0
  405164:	0a000025 	beq	405200 <fflush+0xa4>
  405168:	e59f30b0 	ldr	r3, [pc, #176]	@ 405220 <fflush+0xc4>
  40516c:	e5935000 	ldr	r5, [r3]
  405170:	e3550000 	cmp	r5, #0
  405174:	0a000002 	beq	405184 <fflush+0x28>
  405178:	e5953034 	ldr	r3, [r5, #52]	@ 0x34
  40517c:	e3530000 	cmp	r3, #0
  405180:	0a000015 	beq	4051dc <fflush+0x80>
  405184:	e1d400fc 	ldrsh	r0, [r4, #12]
  405188:	e3500000 	cmp	r0, #0
  40518c:	01a05000 	moveq	r5, r0
  405190:	0a00000e 	beq	4051d0 <fflush+0x74>
  405194:	e5943064 	ldr	r3, [r4, #100]	@ 0x64
  405198:	e3130001 	tst	r3, #1
  40519c:	1a000001 	bne	4051a8 <fflush+0x4c>
  4051a0:	e3100c02 	tst	r0, #512	@ 0x200
  4051a4:	0a00000f 	beq	4051e8 <fflush+0x8c>
  4051a8:	e1a00005 	mov	r0, r5
  4051ac:	e1a01004 	mov	r1, r4
  4051b0:	ebffff3c 	bl	404ea8 <__sflush_r>
  4051b4:	e5943064 	ldr	r3, [r4, #100]	@ 0x64
  4051b8:	e3130001 	tst	r3, #1
  4051bc:	e1a05000 	mov	r5, r0
  4051c0:	1a000002 	bne	4051d0 <fflush+0x74>
  4051c4:	e1d430bc 	ldrh	r3, [r4, #12]
  4051c8:	e3130c02 	tst	r3, #512	@ 0x200
  4051cc:	0a000008 	beq	4051f4 <fflush+0x98>
  4051d0:	e1a00005 	mov	r0, r5
  4051d4:	e8bd4070 	pop	{r4, r5, r6, lr}
  4051d8:	e12fff1e 	bx	lr
  4051dc:	e1a00005 	mov	r0, r5
  4051e0:	ebfffbcd 	bl	40411c <__sinit>
  4051e4:	eaffffe6 	b	405184 <fflush+0x28>
  4051e8:	e5940058 	ldr	r0, [r4, #88]	@ 0x58
  4051ec:	ebfffe7c 	bl	404be4 <__retarget_lock_acquire_recursive>
  4051f0:	eaffffec 	b	4051a8 <fflush+0x4c>
  4051f4:	e5940058 	ldr	r0, [r4, #88]	@ 0x58
  4051f8:	ebfffe7f 	bl	404bfc <__retarget_lock_release_recursive>
  4051fc:	eafffff3 	b	4051d0 <fflush+0x74>
  405200:	e59f201c 	ldr	r2, [pc, #28]	@ 405224 <fflush+0xc8>
  405204:	e59f101c 	ldr	r1, [pc, #28]	@ 405228 <fflush+0xcc>
  405208:	e59f001c 	ldr	r0, [pc, #28]	@ 40522c <fflush+0xd0>
  40520c:	ebfffc60 	bl	404394 <_fwalk_sglue>
  405210:	e1a05000 	mov	r5, r0
  405214:	e1a00005 	mov	r0, r5
  405218:	e8bd4070 	pop	{r4, r5, r6, lr}
  40521c:	e12fff1e 	bx	lr
  405220:	0040578c 	subeq	r5, r0, ip, lsl #15
  405224:	004058b0 	strheq	r5, [r0], #-128	@ 0xffffff80
  405228:	004050c0 	subeq	r5, r0, r0, asr #1
  40522c:	00405790 	umaaleq	r5, r0, r0, r7

Disassembly of section .text._malloc_trim_r:

00405230 <_malloc_trim_r>:
  405230:	e92d41f0 	push	{r4, r5, r6, r7, r8, lr}
  405234:	e1a06000 	mov	r6, r0
  405238:	e3a00008 	mov	r0, #8
  40523c:	e1a05001 	mov	r5, r1
  405240:	ebfffec8 	bl	404d68 <sysconf>
  405244:	e1a04000 	mov	r4, r0
  405248:	e59f80e8 	ldr	r8, [pc, #232]	@ 405338 <_malloc_trim_r+0x108>
  40524c:	e1a00006 	mov	r0, r6
  405250:	ebfffed0 	bl	404d98 <__malloc_lock>
  405254:	e5983008 	ldr	r3, [r8, #8]
  405258:	e5937004 	ldr	r7, [r3, #4]
  40525c:	e3c77003 	bic	r7, r7, #3
  405260:	e2470011 	sub	r0, r7, #17
  405264:	e0400005 	sub	r0, r0, r5
  405268:	e1a01004 	mov	r1, r4
  40526c:	e0800004 	add	r0, r0, r4
  405270:	ebfff943 	bl	403784 <__udivsi3>
  405274:	e2405001 	sub	r5, r0, #1
  405278:	e0050594 	mul	r5, r4, r5
  40527c:	e1540005 	cmp	r4, r5
  405280:	ca000006 	bgt	4052a0 <_malloc_trim_r+0x70>
  405284:	e3a01000 	mov	r1, #0
  405288:	e1a00006 	mov	r0, r6
  40528c:	eb00010a 	bl	4056bc <_sbrk_r>
  405290:	e5983008 	ldr	r3, [r8, #8]
  405294:	e0833007 	add	r3, r3, r7
  405298:	e1500003 	cmp	r0, r3
  40529c:	0a000004 	beq	4052b4 <_malloc_trim_r+0x84>
  4052a0:	e1a00006 	mov	r0, r6
  4052a4:	ebfffec1 	bl	404db0 <__malloc_unlock>
  4052a8:	e3a00000 	mov	r0, #0
  4052ac:	e8bd41f0 	pop	{r4, r5, r6, r7, r8, lr}
  4052b0:	e12fff1e 	bx	lr
  4052b4:	e1a00006 	mov	r0, r6
  4052b8:	e2651000 	rsb	r1, r5, #0
  4052bc:	eb0000fe 	bl	4056bc <_sbrk_r>
  4052c0:	e3700001 	cmn	r0, #1
  4052c4:	0a00000c 	beq	4052fc <_malloc_trim_r+0xcc>
  4052c8:	e5983008 	ldr	r3, [r8, #8]
  4052cc:	e59f2068 	ldr	r2, [pc, #104]	@ 40533c <_malloc_trim_r+0x10c>
  4052d0:	e0477005 	sub	r7, r7, r5
  4052d4:	e3877001 	orr	r7, r7, #1
  4052d8:	e5837004 	str	r7, [r3, #4]
  4052dc:	e5923000 	ldr	r3, [r2]
  4052e0:	e1a00006 	mov	r0, r6
  4052e4:	e0433005 	sub	r3, r3, r5
  4052e8:	e5823000 	str	r3, [r2]
  4052ec:	ebfffeaf 	bl	404db0 <__malloc_unlock>
  4052f0:	e3a00001 	mov	r0, #1
  4052f4:	e8bd41f0 	pop	{r4, r5, r6, r7, r8, lr}
  4052f8:	e12fff1e 	bx	lr
  4052fc:	e3a01000 	mov	r1, #0
  405300:	e1a00006 	mov	r0, r6
  405304:	eb0000ec 	bl	4056bc <_sbrk_r>
  405308:	e5982008 	ldr	r2, [r8, #8]
  40530c:	e0403002 	sub	r3, r0, r2
  405310:	e353000f 	cmp	r3, #15
  405314:	daffffe1 	ble	4052a0 <_malloc_trim_r+0x70>
  405318:	e3833001 	orr	r3, r3, #1
  40531c:	e5823004 	str	r3, [r2, #4]
  405320:	e59f3018 	ldr	r3, [pc, #24]	@ 405340 <_malloc_trim_r+0x110>
  405324:	e5933000 	ldr	r3, [r3]
  405328:	e59f100c 	ldr	r1, [pc, #12]	@ 40533c <_malloc_trim_r+0x10c>
  40532c:	e0400003 	sub	r0, r0, r3
  405330:	e5810000 	str	r0, [r1]
  405334:	eaffffd9 	b	4052a0 <_malloc_trim_r+0x70>
  405338:	004058c8 	subeq	r5, r0, r8, asr #17
  40533c:	004103e0 	subeq	r0, r1, r0, ror #7
  405340:	004058bc 	strheq	r5, [r0], #-140	@ 0xffffff74

Disassembly of section .text._free_r:

00405344 <_free_r>:
  405344:	e92d4070 	push	{r4, r5, r6, lr}
  405348:	e2514000 	subs	r4, r1, #0
  40534c:	0a000032 	beq	40541c <_free_r+0xd8>
  405350:	e1a05000 	mov	r5, r0
  405354:	ebfffe8f 	bl	404d98 <__malloc_lock>
  405358:	e5140004 	ldr	r0, [r4, #-4]
  40535c:	e59f22b8 	ldr	r2, [pc, #696]	@ 40561c <_free_r+0x2d8>
  405360:	e244c008 	sub	ip, r4, #8
  405364:	e5923008 	ldr	r3, [r2, #8]
  405368:	e3c01001 	bic	r1, r0, #1
  40536c:	e08ce001 	add	lr, ip, r1
  405370:	e153000e 	cmp	r3, lr
  405374:	e59e3004 	ldr	r3, [lr, #4]
  405378:	e3c33003 	bic	r3, r3, #3
  40537c:	0a000064 	beq	405514 <_free_r+0x1d0>
  405380:	e3100001 	tst	r0, #1
  405384:	e58e3004 	str	r3, [lr, #4]
  405388:	e08e0003 	add	r0, lr, r3
  40538c:	1a000024 	bne	405424 <_free_r+0xe0>
  405390:	e5144008 	ldr	r4, [r4, #-8]
  405394:	e04cc004 	sub	ip, ip, r4
  405398:	e0811004 	add	r1, r1, r4
  40539c:	e59c4008 	ldr	r4, [ip, #8]
  4053a0:	e5900004 	ldr	r0, [r0, #4]
  4053a4:	e2826008 	add	r6, r2, #8
  4053a8:	e1540006 	cmp	r4, r6
  4053ac:	e2000001 	and	r0, r0, #1
  4053b0:	0a000049 	beq	4054dc <_free_r+0x198>
  4053b4:	e3500000 	cmp	r0, #0
  4053b8:	e59c000c 	ldr	r0, [ip, #12]
  4053bc:	e584000c 	str	r0, [r4, #12]
  4053c0:	e5804008 	str	r4, [r0, #8]
  4053c4:	0a000068 	beq	40556c <_free_r+0x228>
  4053c8:	e3813001 	orr	r3, r1, #1
  4053cc:	e58c3004 	str	r3, [ip, #4]
  4053d0:	e58e1000 	str	r1, [lr]
  4053d4:	e3510c02 	cmp	r1, #512	@ 0x200
  4053d8:	2a000019 	bcs	405444 <_free_r+0x100>
  4053dc:	e3a0e001 	mov	lr, #1
  4053e0:	e1a002a1 	lsr	r0, r1, #5
  4053e4:	e1a031a1 	lsr	r3, r1, #3
  4053e8:	e5921004 	ldr	r1, [r2, #4]
  4053ec:	e2833001 	add	r3, r3, #1
  4053f0:	e181101e 	orr	r1, r1, lr, lsl r0
  4053f4:	e5821004 	str	r1, [r2, #4]
  4053f8:	e7920183 	ldr	r0, [r2, r3, lsl #3]
  4053fc:	e0821183 	add	r1, r2, r3, lsl #3
  405400:	e2411008 	sub	r1, r1, #8
  405404:	e58c100c 	str	r1, [ip, #12]
  405408:	e58c0008 	str	r0, [ip, #8]
  40540c:	e782c183 	str	ip, [r2, r3, lsl #3]
  405410:	e580c00c 	str	ip, [r0, #12]
  405414:	e1a00005 	mov	r0, r5
  405418:	ebfffe64 	bl	404db0 <__malloc_unlock>
  40541c:	e8bd4070 	pop	{r4, r5, r6, lr}
  405420:	e12fff1e 	bx	lr
  405424:	e5900004 	ldr	r0, [r0, #4]
  405428:	e3100001 	tst	r0, #1
  40542c:	0a00001e 	beq	4054ac <_free_r+0x168>
  405430:	e3813001 	orr	r3, r1, #1
  405434:	e3510c02 	cmp	r1, #512	@ 0x200
  405438:	e5043004 	str	r3, [r4, #-4]
  40543c:	e58e1000 	str	r1, [lr]
  405440:	3affffe5 	bcc	4053dc <_free_r+0x98>
  405444:	e3510c0a 	cmp	r1, #2560	@ 0xa00
  405448:	e1a034a1 	lsr	r3, r1, #9
  40544c:	2a000048 	bcs	405574 <_free_r+0x230>
  405450:	e1a03321 	lsr	r3, r1, #6
  405454:	e2830039 	add	r0, r3, #57	@ 0x39
  405458:	e283e038 	add	lr, r3, #56	@ 0x38
  40545c:	e1a00180 	lsl	r0, r0, #3
  405460:	e7923000 	ldr	r3, [r2, r0]
  405464:	e0820000 	add	r0, r2, r0
  405468:	e2400008 	sub	r0, r0, #8
  40546c:	e1500003 	cmp	r0, r3
  405470:	1a000003 	bne	405484 <_free_r+0x140>
  405474:	ea00004b 	b	4055a8 <_free_r+0x264>
  405478:	e5933008 	ldr	r3, [r3, #8]
  40547c:	e1500003 	cmp	r0, r3
  405480:	0a000003 	beq	405494 <_free_r+0x150>
  405484:	e5932004 	ldr	r2, [r3, #4]
  405488:	e3c22003 	bic	r2, r2, #3
  40548c:	e1520001 	cmp	r2, r1
  405490:	8afffff8 	bhi	405478 <_free_r+0x134>
  405494:	e593000c 	ldr	r0, [r3, #12]
  405498:	e58c000c 	str	r0, [ip, #12]
  40549c:	e58c3008 	str	r3, [ip, #8]
  4054a0:	e580c008 	str	ip, [r0, #8]
  4054a4:	e583c00c 	str	ip, [r3, #12]
  4054a8:	eaffffd9 	b	405414 <_free_r+0xd0>
  4054ac:	e0811003 	add	r1, r1, r3
  4054b0:	e2826008 	add	r6, r2, #8
  4054b4:	e59e3008 	ldr	r3, [lr, #8]
  4054b8:	e1530006 	cmp	r3, r6
  4054bc:	0a00003f 	beq	4055c0 <_free_r+0x27c>
  4054c0:	e59e000c 	ldr	r0, [lr, #12]
  4054c4:	e583000c 	str	r0, [r3, #12]
  4054c8:	e5803008 	str	r3, [r0, #8]
  4054cc:	e3813001 	orr	r3, r1, #1
  4054d0:	e58c3004 	str	r3, [ip, #4]
  4054d4:	e78c1001 	str	r1, [ip, r1]
  4054d8:	eaffffbd 	b	4053d4 <_free_r+0x90>
  4054dc:	e3500000 	cmp	r0, #0
  4054e0:	13813001 	orrne	r3, r1, #1
  4054e4:	158c3004 	strne	r3, [ip, #4]
  4054e8:	158e1000 	strne	r1, [lr]
  4054ec:	1affffc8 	bne	405414 <_free_r+0xd0>
  4054f0:	e0833001 	add	r3, r3, r1
  4054f4:	e28e1008 	add	r1, lr, #8
  4054f8:	e8910006 	ldm	r1, {r1, r2}
  4054fc:	e581200c 	str	r2, [r1, #12]
  405500:	e5821008 	str	r1, [r2, #8]
  405504:	e3832001 	orr	r2, r3, #1
  405508:	e58c2004 	str	r2, [ip, #4]
  40550c:	e78c3003 	str	r3, [ip, r3]
  405510:	eaffffbf 	b	405414 <_free_r+0xd0>
  405514:	e3100001 	tst	r0, #1
  405518:	e0813003 	add	r3, r1, r3
  40551c:	1a000006 	bne	40553c <_free_r+0x1f8>
  405520:	e5141008 	ldr	r1, [r4, #-8]
  405524:	e04cc001 	sub	ip, ip, r1
  405528:	e28c0008 	add	r0, ip, #8
  40552c:	e0833001 	add	r3, r3, r1
  405530:	e8900003 	ldm	r0, {r0, r1}
  405534:	e580100c 	str	r1, [r0, #12]
  405538:	e5810008 	str	r0, [r1, #8]
  40553c:	e3831001 	orr	r1, r3, #1
  405540:	e58c1004 	str	r1, [ip, #4]
  405544:	e59f10d4 	ldr	r1, [pc, #212]	@ 405620 <_free_r+0x2dc>
  405548:	e582c008 	str	ip, [r2, #8]
  40554c:	e5912000 	ldr	r2, [r1]
  405550:	e1520003 	cmp	r2, r3
  405554:	8affffae 	bhi	405414 <_free_r+0xd0>
  405558:	e59f30c4 	ldr	r3, [pc, #196]	@ 405624 <_free_r+0x2e0>
  40555c:	e1a00005 	mov	r0, r5
  405560:	e5931000 	ldr	r1, [r3]
  405564:	ebffff31 	bl	405230 <_malloc_trim_r>
  405568:	eaffffa9 	b	405414 <_free_r+0xd0>
  40556c:	e0811003 	add	r1, r1, r3
  405570:	eaffffcf 	b	4054b4 <_free_r+0x170>
  405574:	e3530014 	cmp	r3, #20
  405578:	9a000006 	bls	405598 <_free_r+0x254>
  40557c:	e3530054 	cmp	r3, #84	@ 0x54
  405580:	8a000015 	bhi	4055dc <_free_r+0x298>
  405584:	e1a03621 	lsr	r3, r1, #12
  405588:	e283006f 	add	r0, r3, #111	@ 0x6f
  40558c:	e283e06e 	add	lr, r3, #110	@ 0x6e
  405590:	e1a00180 	lsl	r0, r0, #3
  405594:	eaffffb1 	b	405460 <_free_r+0x11c>
  405598:	e283005c 	add	r0, r3, #92	@ 0x5c
  40559c:	e283e05b 	add	lr, r3, #91	@ 0x5b
  4055a0:	e1a00180 	lsl	r0, r0, #3
  4055a4:	eaffffad 	b	405460 <_free_r+0x11c>
  4055a8:	e3a04001 	mov	r4, #1
  4055ac:	e5921004 	ldr	r1, [r2, #4]
  4055b0:	e1a0e14e 	asr	lr, lr, #2
  4055b4:	e1811e14 	orr	r1, r1, r4, lsl lr
  4055b8:	e5821004 	str	r1, [r2, #4]
  4055bc:	eaffffb5 	b	405498 <_free_r+0x154>
  4055c0:	e3813001 	orr	r3, r1, #1
  4055c4:	e582c014 	str	ip, [r2, #20]
  4055c8:	e582c010 	str	ip, [r2, #16]
  4055cc:	e98c0048 	stmib	ip, {r3, r6}
  4055d0:	e58c600c 	str	r6, [ip, #12]
  4055d4:	e78c1001 	str	r1, [ip, r1]
  4055d8:	eaffff8d 	b	405414 <_free_r+0xd0>
  4055dc:	e3530f55 	cmp	r3, #340	@ 0x154
  4055e0:	8a000004 	bhi	4055f8 <_free_r+0x2b4>
  4055e4:	e1a037a1 	lsr	r3, r1, #15
  4055e8:	e2830078 	add	r0, r3, #120	@ 0x78
  4055ec:	e283e077 	add	lr, r3, #119	@ 0x77
  4055f0:	e1a00180 	lsl	r0, r0, #3
  4055f4:	eaffff99 	b	405460 <_free_r+0x11c>
  4055f8:	e59f0028 	ldr	r0, [pc, #40]	@ 405628 <_free_r+0x2e4>
  4055fc:	e1530000 	cmp	r3, r0
  405600:	91a03921 	lsrls	r3, r1, #18
  405604:	9283007d 	addls	r0, r3, #125	@ 0x7d
  405608:	83a00ffe 	movhi	r0, #1016	@ 0x3f8
  40560c:	83a0e07e 	movhi	lr, #126	@ 0x7e
  405610:	9283e07c 	addls	lr, r3, #124	@ 0x7c
  405614:	91a00180 	lslls	r0, r0, #3
  405618:	eaffff90 	b	405460 <_free_r+0x11c>
  40561c:	004058c8 	subeq	r5, r0, r8, asr #17
  405620:	004058c0 	subeq	r5, r0, r0, asr #17
  405624:	00410410 	subeq	r0, r1, r0, lsl r4
  405628:	00000554 	andeq	r0, r0, r4, asr r5

Disassembly of section .text._lseek_r:

0040562c <_lseek_r>:
  40562c:	e92d4070 	push	{r4, r5, r6, lr}
  405630:	e1a0e001 	mov	lr, r1
  405634:	e1a01002 	mov	r1, r2
  405638:	e3a02000 	mov	r2, #0
  40563c:	e59f502c 	ldr	r5, [pc, #44]	@ 405670 <_lseek_r+0x44>
  405640:	e1a04000 	mov	r4, r0
  405644:	e5852000 	str	r2, [r5]
  405648:	e1a0000e 	mov	r0, lr
  40564c:	e1a02003 	mov	r2, r3
  405650:	eb000030 	bl	405718 <_lseek>
  405654:	e3700001 	cmn	r0, #1
  405658:	1a000002 	bne	405668 <_lseek_r+0x3c>
  40565c:	e5953000 	ldr	r3, [r5]
  405660:	e3530000 	cmp	r3, #0
  405664:	15843000 	strne	r3, [r4]
  405668:	e8bd4070 	pop	{r4, r5, r6, lr}
  40566c:	e12fff1e 	bx	lr
  405670:	00410434 	subeq	r0, r1, r4, lsr r4

Disassembly of section .text._read_r:

00405674 <_read_r>:
  405674:	e92d4070 	push	{r4, r5, r6, lr}
  405678:	e1a0e001 	mov	lr, r1
  40567c:	e1a01002 	mov	r1, r2
  405680:	e3a02000 	mov	r2, #0
  405684:	e59f502c 	ldr	r5, [pc, #44]	@ 4056b8 <_read_r+0x44>
  405688:	e1a04000 	mov	r4, r0
  40568c:	e5852000 	str	r2, [r5]
  405690:	e1a0000e 	mov	r0, lr
  405694:	e1a02003 	mov	r2, r3
  405698:	eb000024 	bl	405730 <_read>
  40569c:	e3700001 	cmn	r0, #1
  4056a0:	1a000002 	bne	4056b0 <_read_r+0x3c>
  4056a4:	e5953000 	ldr	r3, [r5]
  4056a8:	e3530000 	cmp	r3, #0
  4056ac:	15843000 	strne	r3, [r4]
  4056b0:	e8bd4070 	pop	{r4, r5, r6, lr}
  4056b4:	e12fff1e 	bx	lr
  4056b8:	00410434 	subeq	r0, r1, r4, lsr r4

Disassembly of section .text._sbrk_r:

004056bc <_sbrk_r>:
  4056bc:	e3a02000 	mov	r2, #0
  4056c0:	e92d4070 	push	{r4, r5, r6, lr}
  4056c4:	e59f5030 	ldr	r5, [pc, #48]	@ 4056fc <_sbrk_r+0x40>
  4056c8:	e1a04000 	mov	r4, r0
  4056cc:	e1a00001 	mov	r0, r1
  4056d0:	e5852000 	str	r2, [r5]
  4056d4:	eb00001b 	bl	405748 <_sbrk>
  4056d8:	e3700001 	cmn	r0, #1
  4056dc:	0a000001 	beq	4056e8 <_sbrk_r+0x2c>
  4056e0:	e8bd4070 	pop	{r4, r5, r6, lr}
  4056e4:	e12fff1e 	bx	lr
  4056e8:	e5953000 	ldr	r3, [r5]
  4056ec:	e3530000 	cmp	r3, #0
  4056f0:	15843000 	strne	r3, [r4]
  4056f4:	e8bd4070 	pop	{r4, r5, r6, lr}
  4056f8:	e12fff1e 	bx	lr
  4056fc:	00410434 	subeq	r0, r1, r4, lsr r4

Disassembly of section .text._close:

00405700 <_close>:
  405700:	e3a02058 	mov	r2, #88	@ 0x58
  405704:	e59f3008 	ldr	r3, [pc, #8]	@ 405714 <_close+0x14>
  405708:	e3e00000 	mvn	r0, #0
  40570c:	e5832000 	str	r2, [r3]
  405710:	e12fff1e 	bx	lr
  405714:	00410434 	subeq	r0, r1, r4, lsr r4

Disassembly of section .text._lseek:

00405718 <_lseek>:
  405718:	e3a02058 	mov	r2, #88	@ 0x58
  40571c:	e59f3008 	ldr	r3, [pc, #8]	@ 40572c <_lseek+0x14>
  405720:	e3e00000 	mvn	r0, #0
  405724:	e5832000 	str	r2, [r3]
  405728:	e12fff1e 	bx	lr
  40572c:	00410434 	subeq	r0, r1, r4, lsr r4

Disassembly of section .text._read:

00405730 <_read>:
  405730:	e3a02058 	mov	r2, #88	@ 0x58
  405734:	e59f3008 	ldr	r3, [pc, #8]	@ 405744 <_read+0x14>
  405738:	e3e00000 	mvn	r0, #0
  40573c:	e5832000 	str	r2, [r3]
  405740:	e12fff1e 	bx	lr
  405744:	00410434 	subeq	r0, r1, r4, lsr r4

Disassembly of section .text._sbrk:

00405748 <_sbrk>:
  405748:	e59f201c 	ldr	r2, [pc, #28]	@ 40576c <_sbrk+0x24>
  40574c:	e5923000 	ldr	r3, [r2]
  405750:	e59f1018 	ldr	r1, [pc, #24]	@ 405770 <_sbrk+0x28>
  405754:	e3530000 	cmp	r3, #0
  405758:	01a03001 	moveq	r3, r1
  40575c:	e0830000 	add	r0, r3, r0
  405760:	e5820000 	str	r0, [r2]
  405764:	e1a00003 	mov	r0, r3
  405768:	e12fff1e 	bx	lr
  40576c:	00410438 	subeq	r0, r1, r8, lsr r4
  405770:	004102a4 	subeq	r0, r1, r4, lsr #5

Disassembly of section .text._write:

00405774 <_write>:
  405774:	e3a02058 	mov	r2, #88	@ 0x58
  405778:	e59f3008 	ldr	r3, [pc, #8]	@ 405788 <_write+0x14>
  40577c:	e3e00000 	mvn	r0, #0
  405780:	e5832000 	str	r2, [r3]
  405784:	e12fff1e 	bx	lr
  405788:	00410434 	subeq	r0, r1, r4, lsr r4
