
../../bin/Demo.elf:     file format elf32-littlearm


Disassembly of section .image:

00400000 <_vector_table>:
  400000:	e59ff018 	ldr	pc, [pc, #24]	@ 400020 <_excep_handlers>
  400004:	e59ff018 	ldr	pc, [pc, #24]	@ 400024 <_excep_handlers+0x4>
  400008:	e59ff018 	ldr	pc, [pc, #24]	@ 400028 <_excep_handlers+0x8>
  40000c:	e59ff018 	ldr	pc, [pc, #24]	@ 40002c <_excep_handlers+0xc>
  400010:	e59ff018 	ldr	pc, [pc, #24]	@ 400030 <_excep_handlers+0x10>
  400014:	e1a00000 	nop			@ (mov r0, r0)
  400018:	e59ff018 	ldr	pc, [pc, #24]	@ 400038 <_excep_handlers+0x18>
  40001c:	e59ff018 	ldr	pc, [pc, #24]	@ 40003c <_excep_handlers+0x1c>

00400020 <_excep_handlers>:
  400020:	00400080 	subeq	r0, r0, r0, lsl #1
  400024:	00400084 	subeq	r0, r0, r4, lsl #1
  400028:	00400088 	subeq	r0, r0, r8, lsl #1
  40002c:	0040008c 	subeq	r0, r0, ip, lsl #1
  400030:	00400090 	umaaleq	r0, r0, r0, r0
  400034:	e1a00000 	nop			@ (mov r0, r0)
  400038:	00400094 	umaaleq	r0, r0, r4, r0
  40003c:	00400098 	umaaleq	r0, r0, r8, r0
  400040:	79706f43 	ldmdbvc	r0!, {r0, r1, r6, r8, r9, sl, fp, sp, lr}^
  400044:	68676972 	stmdavs	r7!, {r1, r4, r5, r6, r8, fp, sp, lr}^
  400048:	43282074 			@ <UNDEFINED> instruction: 0x43282074
  40004c:	6e552029 	cdpvs	0, 5, cr2, cr5, cr9, {1}
  400050:	72657669 	rsbvc	r7, r5, #110100480	@ 0x6900000
  400054:	61646973 	smcvs	18067	@ 0x4693
  400058:	65642064 	strbvs	r2, [r4, #-100]!	@ 0xffffff9c
  40005c:	61724720 	cmnvs	r2, r0, lsr #14
  400060:	6164616e 	cmnvs	r4, lr, ror #2
  400064:	6c41202e 	mcrrvs	0, 2, r2, r1, cr14
  400068:	6952206c 	ldmdbvs	r2, {r2, r3, r5, r6, sp}^
  40006c:	73746867 	cmnvc	r4, #6750208	@ 0x670000
  400070:	73655220 	cmnvc	r5, #32, 4
  400074:	65767265 	ldrbvs	r7, [r6, #-613]!	@ 0xfffffd9b
  400078:	00002e64 	andeq	r2, r0, r4, ror #28
  40007c:	e1a00000 	nop			@ (mov r0, r0)

00400080 <_soft_reset_handler>:
  400080:	ea000006 	b	4000a0 <_start>

00400084 <_undef_handler>:
  400084:	eafffffe 	b	400084 <_undef_handler>

00400088 <_swi_handler>:
  400088:	e59ff060 	ldr	pc, [pc, #96]	@ 4000f0 <_start+0x50>

0040008c <_pabt_handler>:
  40008c:	eafffffe 	b	40008c <_pabt_handler>

00400090 <_dabt_handler>:
  400090:	eafffffe 	b	400090 <_dabt_handler>

00400094 <_irq_handler>:
  400094:	eafffffe 	b	400094 <_irq_handler>

00400098 <_fiq_handler>:
  400098:	eafffffe 	b	400098 <_fiq_handler>
  40009c:	e1a00000 	nop			@ (mov r0, r0)

004000a0 <_start>:
  4000a0:	e321f0db 	msr	CPSR_c, #219	@ 0xdb
  4000a4:	e59fd048 	ldr	sp, [pc, #72]	@ 4000f4 <_start+0x54>
  4000a8:	e321f0d7 	msr	CPSR_c, #215	@ 0xd7
  4000ac:	e59fd044 	ldr	sp, [pc, #68]	@ 4000f8 <_start+0x58>
  4000b0:	e321f0df 	msr	CPSR_c, #223	@ 0xdf
  4000b4:	e59fd040 	ldr	sp, [pc, #64]	@ 4000fc <_start+0x5c>
  4000b8:	e321f0d1 	msr	CPSR_c, #209	@ 0xd1
  4000bc:	e59fd03c 	ldr	sp, [pc, #60]	@ 400100 <_start+0x60>
  4000c0:	e321f0d2 	msr	CPSR_c, #210	@ 0xd2
  4000c4:	e59fd038 	ldr	sp, [pc, #56]	@ 400104 <_start+0x64>
  4000c8:	e321f0d3 	msr	CPSR_c, #211	@ 0xd3
  4000cc:	e59fd034 	ldr	sp, [pc, #52]	@ 400108 <_start+0x68>
  4000d0:	e59fc034 	ldr	ip, [pc, #52]	@ 40010c <_start+0x6c>
  4000d4:	e1a0e00f 	mov	lr, pc
  4000d8:	e12fff1c 	bx	ip
  4000dc:	e321f013 	msr	CPSR_c, #19
  4000e0:	e59fc028 	ldr	ip, [pc, #40]	@ 400110 <_start+0x70>
  4000e4:	e1a0e00f 	mov	lr, pc
  4000e8:	e12fff1c 	bx	ip
  4000ec:	eafffffe 	b	4000ec <_start+0x4c>
  4000f0:	004021c8 	subeq	r2, r0, r8, asr #3
  4000f4:	00417e00 	subeq	r7, r1, r0, lsl #28
  4000f8:	00417df0 	strdeq	r7, [r1], #-208	@ 0xffffff30
  4000fc:	00417ce0 	subeq	r7, r1, r0, ror #25
  400100:	00418000 	subeq	r8, r1, r0
  400104:	00417f00 	subeq	r7, r1, r0, lsl #30
  400108:	00417de0 	subeq	r7, r1, r0, ror #27
  40010c:	004031dc 	ldrdeq	r3, [r0], #-28	@ 0xffffffe4
  400110:	00400294 	umaaleq	r0, r0, r4, r2

00400114 <led_init>:
  400114:	e92d4800 	push	{fp, lr}
  400118:	e28db004 	add	fp, sp, #4
  40011c:	e3a0002c 	mov	r0, #44	@ 0x2c
  400120:	eb0008f3 	bl	4024f4 <gpio_set_pin_dir_output>
  400124:	e3a0002c 	mov	r0, #44	@ 0x2c
  400128:	eb000915 	bl	402584 <gpio_clear_pin>
  40012c:	e3a0002d 	mov	r0, #45	@ 0x2d
  400130:	eb0008ef 	bl	4024f4 <gpio_set_pin_dir_output>
  400134:	e3a0002d 	mov	r0, #45	@ 0x2d
  400138:	eb000911 	bl	402584 <gpio_clear_pin>
  40013c:	e1a00000 	nop			@ (mov r0, r0)
  400140:	e24bd004 	sub	sp, fp, #4
  400144:	e8bd4800 	pop	{fp, lr}
  400148:	e12fff1e 	bx	lr

0040014c <toggle_led>:
  40014c:	e92d4800 	push	{fp, lr}
  400150:	e28db004 	add	fp, sp, #4
  400154:	e24dd010 	sub	sp, sp, #16
  400158:	e1a03000 	mov	r3, r0
  40015c:	e54b300d 	strb	r3, [fp, #-13]
  400160:	e55b300d 	ldrb	r3, [fp, #-13]
  400164:	e353002c 	cmp	r3, #44	@ 0x2c
  400168:	1a000001 	bne	400174 <toggle_led+0x28>
  40016c:	e59f3068 	ldr	r3, [pc, #104]	@ 4001dc <toggle_led+0x90>
  400170:	ea000000 	b	400178 <toggle_led+0x2c>
  400174:	e59f3064 	ldr	r3, [pc, #100]	@ 4001e0 <toggle_led+0x94>
  400178:	e50b3008 	str	r3, [fp, #-8]
  40017c:	e51b3008 	ldr	r3, [fp, #-8]
  400180:	e5933000 	ldr	r3, [r3]
  400184:	e3530000 	cmp	r3, #0
  400188:	0a000003 	beq	40019c <toggle_led+0x50>
  40018c:	e55b300d 	ldrb	r3, [fp, #-13]
  400190:	e1a00003 	mov	r0, r3
  400194:	eb0008fa 	bl	402584 <gpio_clear_pin>
  400198:	ea000002 	b	4001a8 <toggle_led+0x5c>
  40019c:	e55b300d 	ldrb	r3, [fp, #-13]
  4001a0:	e1a00003 	mov	r0, r3
  4001a4:	eb0008eb 	bl	402558 <gpio_set_pin>
  4001a8:	e51b3008 	ldr	r3, [fp, #-8]
  4001ac:	e5933000 	ldr	r3, [r3]
  4001b0:	e3530000 	cmp	r3, #0
  4001b4:	03a03001 	moveq	r3, #1
  4001b8:	13a03000 	movne	r3, #0
  4001bc:	e20330ff 	and	r3, r3, #255	@ 0xff
  4001c0:	e1a02003 	mov	r2, r3
  4001c4:	e51b3008 	ldr	r3, [fp, #-8]
  4001c8:	e5832000 	str	r2, [r3]
  4001cc:	e1a00000 	nop			@ (mov r0, r0)
  4001d0:	e24bd004 	sub	sp, fp, #4
  4001d4:	e8bd4800 	pop	{fp, lr}
  4001d8:	e12fff1e 	bx	lr
  4001dc:	00405bf0 	strdeq	r5, [r0], #-176	@ 0xffffff50
  4001e0:	00405bf4 	strdeq	r5, [r0], #-180	@ 0xffffff4c

004001e4 <print_str>:
  4001e4:	e92d4800 	push	{fp, lr}
  4001e8:	e28db004 	add	fp, sp, #4
  4001ec:	e24dd008 	sub	sp, sp, #8
  4001f0:	e50b0008 	str	r0, [fp, #-8]
  4001f4:	e51b0008 	ldr	r0, [fp, #-8]
  4001f8:	eb000fcb 	bl	40412c <strlen>
  4001fc:	e1a03000 	mov	r3, r0
  400200:	e1a02003 	mov	r2, r3
  400204:	e51b1008 	ldr	r1, [fp, #-8]
  400208:	e3a00000 	mov	r0, #0
  40020c:	eb000986 	bl	40282c <uart_send>
  400210:	e1a00000 	nop			@ (mov r0, r0)
  400214:	e24bd004 	sub	sp, fp, #4
  400218:	e8bd4800 	pop	{fp, lr}
  40021c:	e12fff1e 	bx	lr

00400220 <vBlinkRed>:
  400220:	e92d4800 	push	{fp, lr}
  400224:	e28db004 	add	fp, sp, #4
  400228:	e24dd008 	sub	sp, sp, #8
  40022c:	e50b0008 	str	r0, [fp, #-8]
  400230:	eb00083a 	bl	402320 <vPortEnterCritical>
  400234:	eb000839 	bl	402320 <vPortEnterCritical>
  400238:	e3a0002c 	mov	r0, #44	@ 0x2c
  40023c:	ebffffc2 	bl	40014c <toggle_led>
  400240:	e59f0010 	ldr	r0, [pc, #16]	@ 400258 <vBlinkRed+0x38>
  400244:	ebffffe6 	bl	4001e4 <print_str>
  400248:	eb00083f 	bl	40234c <vPortExitCritical>
  40024c:	e3a00005 	mov	r0, #5
  400250:	eb0003c0 	bl	401158 <vTaskDelay>
  400254:	eafffff6 	b	400234 <vBlinkRed+0x14>
  400258:	004038f8 	strdeq	r3, [r0], #-136	@ 0xffffff78

0040025c <blinkGreen>:
  40025c:	e92d4800 	push	{fp, lr}
  400260:	e28db004 	add	fp, sp, #4
  400264:	e24dd008 	sub	sp, sp, #8
  400268:	e50b0008 	str	r0, [fp, #-8]
  40026c:	eb00082b 	bl	402320 <vPortEnterCritical>
  400270:	e3a0002d 	mov	r0, #45	@ 0x2d
  400274:	ebffffb4 	bl	40014c <toggle_led>
  400278:	e59f0010 	ldr	r0, [pc, #16]	@ 400290 <blinkGreen+0x34>
  40027c:	ebffffd8 	bl	4001e4 <print_str>
  400280:	eb000831 	bl	40234c <vPortExitCritical>
  400284:	e3a0000a 	mov	r0, #10
  400288:	eb0003b2 	bl	401158 <vTaskDelay>
  40028c:	eafffff6 	b	40026c <blinkGreen+0x10>
  400290:	00403900 	subeq	r3, r0, r0, lsl #18

00400294 <main>:
  400294:	e92d4800 	push	{fp, lr}
  400298:	e28db004 	add	fp, sp, #4
  40029c:	e24dd010 	sub	sp, sp, #16
  4002a0:	e59f0064 	ldr	r0, [pc, #100]	@ 40030c <main+0x78>
  4002a4:	ebffffce 	bl	4001e4 <print_str>
  4002a8:	ebffff99 	bl	400114 <led_init>
  4002ac:	e3a0002d 	mov	r0, #45	@ 0x2d
  4002b0:	eb0008a8 	bl	402558 <gpio_set_pin>
  4002b4:	e51b3008 	ldr	r3, [fp, #-8]
  4002b8:	e58d3004 	str	r3, [sp, #4]
  4002bc:	e3a03004 	mov	r3, #4
  4002c0:	e58d3000 	str	r3, [sp]
  4002c4:	e3a03000 	mov	r3, #0
  4002c8:	e3a02c01 	mov	r2, #256	@ 0x100
  4002cc:	e59f103c 	ldr	r1, [pc, #60]	@ 400310 <main+0x7c>
  4002d0:	e59f003c 	ldr	r0, [pc, #60]	@ 400314 <main+0x80>
  4002d4:	eb000092 	bl	400524 <xTaskCreate>
  4002d8:	e50b000c 	str	r0, [fp, #-12]
  4002dc:	e51b300c 	ldr	r3, [fp, #-12]
  4002e0:	e3530001 	cmp	r3, #1
  4002e4:	0a000002 	beq	4002f4 <main+0x60>
  4002e8:	e3a0002d 	mov	r0, #45	@ 0x2d
  4002ec:	eb0008a4 	bl	402584 <gpio_clear_pin>
  4002f0:	eafffffe 	b	4002f0 <main+0x5c>
  4002f4:	e59f001c 	ldr	r0, [pc, #28]	@ 400318 <main+0x84>
  4002f8:	ebffffb9 	bl	4001e4 <print_str>
  4002fc:	eb000220 	bl	400b84 <vTaskStartScheduler>
  400300:	e3a0002d 	mov	r0, #45	@ 0x2d
  400304:	eb00089e 	bl	402584 <gpio_clear_pin>
  400308:	eafffffe 	b	400308 <main+0x74>
  40030c:	00403908 	subeq	r3, r0, r8, lsl #18
  400310:	00403924 	subeq	r3, r0, r4, lsr #18
  400314:	00400220 	subeq	r0, r0, r0, lsr #4
  400318:	00403930 	subeq	r3, r0, r0, lsr r9

0040031c <prvTaskIsTaskSuspended>:
  40031c:	e5902014 	ldr	r2, [r0, #20]
  400320:	e59f3044 	ldr	r3, [pc, #68]	@ 40036c <prvTaskIsTaskSuspended+0x50>
  400324:	e1520003 	cmp	r2, r3
  400328:	0a000001 	beq	400334 <prvTaskIsTaskSuspended+0x18>
  40032c:	e3a00000 	mov	r0, #0
  400330:	e12fff1e 	bx	lr
  400334:	e5903028 	ldr	r3, [r0, #40]	@ 0x28
  400338:	e59f1030 	ldr	r1, [pc, #48]	@ 400370 <prvTaskIsTaskSuspended+0x54>
  40033c:	e2732001 	rsbs	r2, r3, #1
  400340:	33a02000 	movcc	r2, #0
  400344:	e1530001 	cmp	r3, r1
  400348:	03a02000 	moveq	r2, #0
  40034c:	e3520000 	cmp	r2, #0
  400350:	1a000001 	bne	40035c <prvTaskIsTaskSuspended+0x40>
  400354:	e3a00000 	mov	r0, #0
  400358:	e12fff1e 	bx	lr
  40035c:	e5d00048 	ldrb	r0, [r0, #72]	@ 0x48
  400360:	e2500001 	subs	r0, r0, #1
  400364:	13a00001 	movne	r0, #1
  400368:	e12fff1e 	bx	lr
  40036c:	00405bf8 	strdeq	r5, [r0], #-184	@ 0xffffff48
  400370:	00405c0c 	subeq	r5, r0, ip, lsl #24

00400374 <prvResetNextTaskUnblockTime>:
  400374:	e59f3024 	ldr	r3, [pc, #36]	@ 4003a0 <prvResetNextTaskUnblockTime+0x2c>
  400378:	e5933028 	ldr	r3, [r3, #40]	@ 0x28
  40037c:	e5933000 	ldr	r3, [r3]
  400380:	e3530000 	cmp	r3, #0
  400384:	e59f3014 	ldr	r3, [pc, #20]	@ 4003a0 <prvResetNextTaskUnblockTime+0x2c>
  400388:	03e02000 	mvneq	r2, #0
  40038c:	15932028 	ldrne	r2, [r3, #40]	@ 0x28
  400390:	1592200c 	ldrne	r2, [r2, #12]
  400394:	15922000 	ldrne	r2, [r2]
  400398:	e583202c 	str	r2, [r3, #44]	@ 0x2c
  40039c:	e12fff1e 	bx	lr
  4003a0:	00405bf8 	strdeq	r5, [r0], #-184	@ 0xffffff48

004003a4 <prvCheckTasksWaitingTermination>:
  4003a4:	e59f3064 	ldr	r3, [pc, #100]	@ 400410 <prvCheckTasksWaitingTermination+0x6c>
  4003a8:	e5933030 	ldr	r3, [r3, #48]	@ 0x30
  4003ac:	e3530000 	cmp	r3, #0
  4003b0:	012fff1e 	bxeq	lr
  4003b4:	e92d4070 	push	{r4, r5, r6, lr}
  4003b8:	e59f4050 	ldr	r4, [pc, #80]	@ 400410 <prvCheckTasksWaitingTermination+0x6c>
  4003bc:	eb0007d7 	bl	402320 <vPortEnterCritical>
  4003c0:	e5943040 	ldr	r3, [r4, #64]	@ 0x40
  4003c4:	e593500c 	ldr	r5, [r3, #12]
  4003c8:	e2850004 	add	r0, r5, #4
  4003cc:	eb00081f 	bl	402450 <uxListRemove>
  4003d0:	e5943048 	ldr	r3, [r4, #72]	@ 0x48
  4003d4:	e2433001 	sub	r3, r3, #1
  4003d8:	e5843048 	str	r3, [r4, #72]	@ 0x48
  4003dc:	e5943030 	ldr	r3, [r4, #48]	@ 0x30
  4003e0:	e2433001 	sub	r3, r3, #1
  4003e4:	e5843030 	str	r3, [r4, #48]	@ 0x30
  4003e8:	eb0007d7 	bl	40234c <vPortExitCritical>
  4003ec:	e5950030 	ldr	r0, [r5, #48]	@ 0x30
  4003f0:	eb00070f 	bl	402034 <vPortFree>
  4003f4:	e1a00005 	mov	r0, r5
  4003f8:	eb00070d 	bl	402034 <vPortFree>
  4003fc:	e5943030 	ldr	r3, [r4, #48]	@ 0x30
  400400:	e3530000 	cmp	r3, #0
  400404:	1affffec 	bne	4003bc <prvCheckTasksWaitingTermination+0x18>
  400408:	e8bd4070 	pop	{r4, r5, r6, lr}
  40040c:	e12fff1e 	bx	lr
  400410:	00405bf8 	strdeq	r5, [r0], #-184	@ 0xffffff48

00400414 <prvIdleTask>:
  400414:	e92d4010 	push	{r4, lr}
  400418:	e59f4014 	ldr	r4, [pc, #20]	@ 400434 <prvIdleTask+0x20>
  40041c:	ebffffe0 	bl	4003a4 <prvCheckTasksWaitingTermination>
  400420:	e594304c 	ldr	r3, [r4, #76]	@ 0x4c
  400424:	e3530001 	cmp	r3, #1
  400428:	9afffffb 	bls	40041c <prvIdleTask+0x8>
  40042c:	ef000000 	svc	0x00000000
  400430:	eafffff9 	b	40041c <prvIdleTask+0x8>
  400434:	00405bf8 	strdeq	r5, [r0], #-184	@ 0xffffff48

00400438 <prvAddCurrentTaskToDelayedList>:
  400438:	e92d41f0 	push	{r4, r5, r6, r7, r8, lr}
  40043c:	e1a04000 	mov	r4, r0
  400440:	e1a05001 	mov	r5, r1
  400444:	e59f30d4 	ldr	r3, [pc, #212]	@ 400520 <prvAddCurrentTaskToDelayedList+0xe8>
  400448:	e59360b0 	ldr	r6, [r3, #176]	@ 0xb0
  40044c:	e5937028 	ldr	r7, [r3, #40]	@ 0x28
  400450:	e59380b4 	ldr	r8, [r3, #180]	@ 0xb4
  400454:	e59300b8 	ldr	r0, [r3, #184]	@ 0xb8
  400458:	e2800004 	add	r0, r0, #4
  40045c:	eb0007fb 	bl	402450 <uxListRemove>
  400460:	e2555000 	subs	r5, r5, #0
  400464:	13a05001 	movne	r5, #1
  400468:	e3740001 	cmn	r4, #1
  40046c:	13a05000 	movne	r5, #0
  400470:	e3550000 	cmp	r5, #0
  400474:	0a000013 	beq	4004c8 <prvAddCurrentTaskToDelayedList+0x90>
  400478:	e59f30a0 	ldr	r3, [pc, #160]	@ 400520 <prvAddCurrentTaskToDelayedList+0xe8>
  40047c:	e5932004 	ldr	r2, [r3, #4]
  400480:	e59310b8 	ldr	r1, [r3, #184]	@ 0xb8
  400484:	e5812008 	str	r2, [r1, #8]
  400488:	e59310b8 	ldr	r1, [r3, #184]	@ 0xb8
  40048c:	e5920008 	ldr	r0, [r2, #8]
  400490:	e581000c 	str	r0, [r1, #12]
  400494:	e59310b8 	ldr	r1, [r3, #184]	@ 0xb8
  400498:	e2811004 	add	r1, r1, #4
  40049c:	e5801004 	str	r1, [r0, #4]
  4004a0:	e59310b8 	ldr	r1, [r3, #184]	@ 0xb8
  4004a4:	e2811004 	add	r1, r1, #4
  4004a8:	e5821008 	str	r1, [r2, #8]
  4004ac:	e59320b8 	ldr	r2, [r3, #184]	@ 0xb8
  4004b0:	e5823014 	str	r3, [r2, #20]
  4004b4:	e5932000 	ldr	r2, [r3]
  4004b8:	e2822001 	add	r2, r2, #1
  4004bc:	e5832000 	str	r2, [r3]
  4004c0:	e8bd41f0 	pop	{r4, r5, r6, r7, r8, lr}
  4004c4:	e12fff1e 	bx	lr
  4004c8:	e0864004 	add	r4, r6, r4
  4004cc:	e59f304c 	ldr	r3, [pc, #76]	@ 400520 <prvAddCurrentTaskToDelayedList+0xe8>
  4004d0:	e59330b8 	ldr	r3, [r3, #184]	@ 0xb8
  4004d4:	e5834004 	str	r4, [r3, #4]
  4004d8:	e1560004 	cmp	r6, r4
  4004dc:	9a000005 	bls	4004f8 <prvAddCurrentTaskToDelayedList+0xc0>
  4004e0:	e59f3038 	ldr	r3, [pc, #56]	@ 400520 <prvAddCurrentTaskToDelayedList+0xe8>
  4004e4:	e59310b8 	ldr	r1, [r3, #184]	@ 0xb8
  4004e8:	e2811004 	add	r1, r1, #4
  4004ec:	e1a00008 	mov	r0, r8
  4004f0:	eb0007c0 	bl	4023f8 <vListInsert>
  4004f4:	eafffff1 	b	4004c0 <prvAddCurrentTaskToDelayedList+0x88>
  4004f8:	e59f5020 	ldr	r5, [pc, #32]	@ 400520 <prvAddCurrentTaskToDelayedList+0xe8>
  4004fc:	e59510b8 	ldr	r1, [r5, #184]	@ 0xb8
  400500:	e2811004 	add	r1, r1, #4
  400504:	e1a00007 	mov	r0, r7
  400508:	eb0007ba 	bl	4023f8 <vListInsert>
  40050c:	e595302c 	ldr	r3, [r5, #44]	@ 0x2c
  400510:	e1530004 	cmp	r3, r4
  400514:	81a03005 	movhi	r3, r5
  400518:	8583402c 	strhi	r4, [r3, #44]	@ 0x2c
  40051c:	eaffffe7 	b	4004c0 <prvAddCurrentTaskToDelayedList+0x88>
  400520:	00405bf8 	strdeq	r5, [r0], #-184	@ 0xffffff48

00400524 <xTaskCreate>:
  400524:	e92d47f0 	push	{r4, r5, r6, r7, r8, r9, sl, lr}
  400528:	e1a07000 	mov	r7, r0
  40052c:	e1a09001 	mov	r9, r1
  400530:	e1a08003 	mov	r8, r3
  400534:	e59d6020 	ldr	r6, [sp, #32]
  400538:	e1a05102 	lsl	r5, r2, #2
  40053c:	e1a00005 	mov	r0, r5
  400540:	eb000684 	bl	401f58 <pvPortMalloc>
  400544:	e250a000 	subs	sl, r0, #0
  400548:	0a00006a 	beq	4006f8 <xTaskCreate+0x1d4>
  40054c:	e3a0004c 	mov	r0, #76	@ 0x4c
  400550:	eb000680 	bl	401f58 <pvPortMalloc>
  400554:	e2504000 	subs	r4, r0, #0
  400558:	0a000064 	beq	4006f0 <xTaskCreate+0x1cc>
  40055c:	e3a0204c 	mov	r2, #76	@ 0x4c
  400560:	e3a01000 	mov	r1, #0
  400564:	e1a00004 	mov	r0, r4
  400568:	eb000d98 	bl	403bd0 <memset>
  40056c:	e584a030 	str	sl, [r4, #48]	@ 0x30
  400570:	e2455004 	sub	r5, r5, #4
  400574:	e08a5005 	add	r5, sl, r5
  400578:	e3c55007 	bic	r5, r5, #7
  40057c:	e3590000 	cmp	r9, #0
  400580:	0a00000a 	beq	4005b0 <xTaskCreate+0x8c>
  400584:	e249c001 	sub	ip, r9, #1
  400588:	e2843033 	add	r3, r4, #51	@ 0x33
  40058c:	e289900f 	add	r9, r9, #15
  400590:	e5fce001 	ldrb	lr, [ip, #1]!
  400594:	e5e3e001 	strb	lr, [r3, #1]!
  400598:	e35e0000 	cmp	lr, #0
  40059c:	0a000001 	beq	4005a8 <xTaskCreate+0x84>
  4005a0:	e15c0009 	cmp	ip, r9
  4005a4:	1afffff9 	bne	400590 <xTaskCreate+0x6c>
  4005a8:	e3a03000 	mov	r3, #0
  4005ac:	e5c43043 	strb	r3, [r4, #67]	@ 0x43
  4005b0:	e3560004 	cmp	r6, #4
  4005b4:	23a06004 	movcs	r6, #4
  4005b8:	e584602c 	str	r6, [r4, #44]	@ 0x2c
  4005bc:	e2849004 	add	r9, r4, #4
  4005c0:	e1a00009 	mov	r0, r9
  4005c4:	eb00077d 	bl	4023c0 <vListInitialiseItem>
  4005c8:	e2840018 	add	r0, r4, #24
  4005cc:	eb00077b 	bl	4023c0 <vListInitialiseItem>
  4005d0:	e5844010 	str	r4, [r4, #16]
  4005d4:	e2666005 	rsb	r6, r6, #5
  4005d8:	e5846018 	str	r6, [r4, #24]
  4005dc:	e5844024 	str	r4, [r4, #36]	@ 0x24
  4005e0:	e1a02008 	mov	r2, r8
  4005e4:	e1a01007 	mov	r1, r7
  4005e8:	e1a00005 	mov	r0, r5
  4005ec:	eb0006a1 	bl	402078 <pxPortInitialiseStack>
  4005f0:	e5840000 	str	r0, [r4]
  4005f4:	e59d3024 	ldr	r3, [sp, #36]	@ 0x24
  4005f8:	e3530000 	cmp	r3, #0
  4005fc:	15834000 	strne	r4, [r3]
  400600:	eb000746 	bl	402320 <vPortEnterCritical>
  400604:	e59f316c 	ldr	r3, [pc, #364]	@ 400778 <xTaskCreate+0x254>
  400608:	e5932048 	ldr	r2, [r3, #72]	@ 0x48
  40060c:	e2822001 	add	r2, r2, #1
  400610:	e5832048 	str	r2, [r3, #72]	@ 0x48
  400614:	e59330b8 	ldr	r3, [r3, #184]	@ 0xb8
  400618:	e3530000 	cmp	r3, #0
  40061c:	0a000038 	beq	400704 <xTaskCreate+0x1e0>
  400620:	e59f3150 	ldr	r3, [pc, #336]	@ 400778 <xTaskCreate+0x254>
  400624:	e59330e4 	ldr	r3, [r3, #228]	@ 0xe4
  400628:	e3530000 	cmp	r3, #0
  40062c:	1a000006 	bne	40064c <xTaskCreate+0x128>
  400630:	e59f3140 	ldr	r3, [pc, #320]	@ 400778 <xTaskCreate+0x254>
  400634:	e59330b8 	ldr	r3, [r3, #184]	@ 0xb8
  400638:	e593202c 	ldr	r2, [r3, #44]	@ 0x2c
  40063c:	e594302c 	ldr	r3, [r4, #44]	@ 0x2c
  400640:	e1520003 	cmp	r2, r3
  400644:	959f312c 	ldrls	r3, [pc, #300]	@ 400778 <xTaskCreate+0x254>
  400648:	958340b8 	strls	r4, [r3, #184]	@ 0xb8
  40064c:	e59f2124 	ldr	r2, [pc, #292]	@ 400778 <xTaskCreate+0x254>
  400650:	e59230e8 	ldr	r3, [r2, #232]	@ 0xe8
  400654:	e2833001 	add	r3, r3, #1
  400658:	e58230e8 	str	r3, [r2, #232]	@ 0xe8
  40065c:	e594302c 	ldr	r3, [r4, #44]	@ 0x2c
  400660:	e59220ec 	ldr	r2, [r2, #236]	@ 0xec
  400664:	e1530002 	cmp	r3, r2
  400668:	859f2108 	ldrhi	r2, [pc, #264]	@ 400778 <xTaskCreate+0x254>
  40066c:	858230ec 	strhi	r3, [r2, #236]	@ 0xec
  400670:	e59f5100 	ldr	r5, [pc, #256]	@ 400778 <xTaskCreate+0x254>
  400674:	e0833103 	add	r3, r3, r3, lsl #2
  400678:	e0853103 	add	r3, r5, r3, lsl #2
  40067c:	e5933050 	ldr	r3, [r3, #80]	@ 0x50
  400680:	e5843008 	str	r3, [r4, #8]
  400684:	e5932008 	ldr	r2, [r3, #8]
  400688:	e584200c 	str	r2, [r4, #12]
  40068c:	e5829004 	str	r9, [r2, #4]
  400690:	e5839008 	str	r9, [r3, #8]
  400694:	e594302c 	ldr	r3, [r4, #44]	@ 0x2c
  400698:	e285204c 	add	r2, r5, #76	@ 0x4c
  40069c:	e0831103 	add	r1, r3, r3, lsl #2
  4006a0:	e0822101 	add	r2, r2, r1, lsl #2
  4006a4:	e5842014 	str	r2, [r4, #20]
  4006a8:	e0852101 	add	r2, r5, r1, lsl #2
  4006ac:	e592304c 	ldr	r3, [r2, #76]	@ 0x4c
  4006b0:	e2833001 	add	r3, r3, #1
  4006b4:	e582304c 	str	r3, [r2, #76]	@ 0x4c
  4006b8:	eb000723 	bl	40234c <vPortExitCritical>
  4006bc:	e59530e4 	ldr	r3, [r5, #228]	@ 0xe4
  4006c0:	e3530000 	cmp	r3, #0
  4006c4:	03a00001 	moveq	r0, #1
  4006c8:	0a00000b 	beq	4006fc <xTaskCreate+0x1d8>
  4006cc:	e59530b8 	ldr	r3, [r5, #184]	@ 0xb8
  4006d0:	e593202c 	ldr	r2, [r3, #44]	@ 0x2c
  4006d4:	e594302c 	ldr	r3, [r4, #44]	@ 0x2c
  4006d8:	e1520003 	cmp	r2, r3
  4006dc:	23a00001 	movcs	r0, #1
  4006e0:	2a000005 	bcs	4006fc <xTaskCreate+0x1d8>
  4006e4:	ef000000 	svc	0x00000000
  4006e8:	e3a00001 	mov	r0, #1
  4006ec:	ea000002 	b	4006fc <xTaskCreate+0x1d8>
  4006f0:	e1a0000a 	mov	r0, sl
  4006f4:	eb00064e 	bl	402034 <vPortFree>
  4006f8:	e3e00000 	mvn	r0, #0
  4006fc:	e8bd47f0 	pop	{r4, r5, r6, r7, r8, r9, sl, lr}
  400700:	e12fff1e 	bx	lr
  400704:	e59f306c 	ldr	r3, [pc, #108]	@ 400778 <xTaskCreate+0x254>
  400708:	e58340b8 	str	r4, [r3, #184]	@ 0xb8
  40070c:	e5933048 	ldr	r3, [r3, #72]	@ 0x48
  400710:	e3530001 	cmp	r3, #1
  400714:	1affffcc 	bne	40064c <xTaskCreate+0x128>
  400718:	e59f6058 	ldr	r6, [pc, #88]	@ 400778 <xTaskCreate+0x254>
  40071c:	e286504c 	add	r5, r6, #76	@ 0x4c
  400720:	e28660b0 	add	r6, r6, #176	@ 0xb0
  400724:	e1a00005 	mov	r0, r5
  400728:	eb00071b 	bl	40239c <vListInitialise>
  40072c:	e2855014 	add	r5, r5, #20
  400730:	e1550006 	cmp	r5, r6
  400734:	1afffffa 	bne	400724 <xTaskCreate+0x200>
  400738:	e59f5038 	ldr	r5, [pc, #56]	@ 400778 <xTaskCreate+0x254>
  40073c:	e28570bc 	add	r7, r5, #188	@ 0xbc
  400740:	e1a00007 	mov	r0, r7
  400744:	eb000714 	bl	40239c <vListInitialise>
  400748:	e28560d0 	add	r6, r5, #208	@ 0xd0
  40074c:	e1a00006 	mov	r0, r6
  400750:	eb000711 	bl	40239c <vListInitialise>
  400754:	e2850014 	add	r0, r5, #20
  400758:	eb00070f 	bl	40239c <vListInitialise>
  40075c:	e2850034 	add	r0, r5, #52	@ 0x34
  400760:	eb00070d 	bl	40239c <vListInitialise>
  400764:	e1a00005 	mov	r0, r5
  400768:	eb00070b 	bl	40239c <vListInitialise>
  40076c:	e5857028 	str	r7, [r5, #40]	@ 0x28
  400770:	e58560b4 	str	r6, [r5, #180]	@ 0xb4
  400774:	eaffffb4 	b	40064c <xTaskCreate+0x128>
  400778:	00405bf8 	strdeq	r5, [r0], #-184	@ 0xffffff48

0040077c <vTaskDelete>:
  40077c:	e92d4070 	push	{r4, r5, r6, lr}
  400780:	e1a04000 	mov	r4, r0
  400784:	eb0006e5 	bl	402320 <vPortEnterCritical>
  400788:	e3540000 	cmp	r4, #0
  40078c:	059f30c8 	ldreq	r3, [pc, #200]	@ 40085c <vTaskDelete+0xe0>
  400790:	059340b8 	ldreq	r4, [r3, #184]	@ 0xb8
  400794:	e2845004 	add	r5, r4, #4
  400798:	e1a00005 	mov	r0, r5
  40079c:	eb00072b 	bl	402450 <uxListRemove>
  4007a0:	e5943028 	ldr	r3, [r4, #40]	@ 0x28
  4007a4:	e3530000 	cmp	r3, #0
  4007a8:	12840018 	addne	r0, r4, #24
  4007ac:	1b000727 	blne	402450 <uxListRemove>
  4007b0:	e59f30a4 	ldr	r3, [pc, #164]	@ 40085c <vTaskDelete+0xe0>
  4007b4:	e59320e8 	ldr	r2, [r3, #232]	@ 0xe8
  4007b8:	e2822001 	add	r2, r2, #1
  4007bc:	e58320e8 	str	r2, [r3, #232]	@ 0xe8
  4007c0:	e59320b8 	ldr	r2, [r3, #184]	@ 0xb8
  4007c4:	e59330e4 	ldr	r3, [r3, #228]	@ 0xe4
  4007c8:	e2533000 	subs	r3, r3, #0
  4007cc:	13a03001 	movne	r3, #1
  4007d0:	e1520004 	cmp	r2, r4
  4007d4:	13a03000 	movne	r3, #0
  4007d8:	e3530000 	cmp	r3, #0
  4007dc:	1a000013 	bne	400830 <vTaskDelete+0xb4>
  4007e0:	e59f2074 	ldr	r2, [pc, #116]	@ 40085c <vTaskDelete+0xe0>
  4007e4:	e5923048 	ldr	r3, [r2, #72]	@ 0x48
  4007e8:	e2433001 	sub	r3, r3, #1
  4007ec:	e5823048 	str	r3, [r2, #72]	@ 0x48
  4007f0:	ebfffedf 	bl	400374 <prvResetNextTaskUnblockTime>
  4007f4:	eb0006d4 	bl	40234c <vPortExitCritical>
  4007f8:	e5940030 	ldr	r0, [r4, #48]	@ 0x30
  4007fc:	eb00060c 	bl	402034 <vPortFree>
  400800:	e1a00004 	mov	r0, r4
  400804:	eb00060a 	bl	402034 <vPortFree>
  400808:	e59f304c 	ldr	r3, [pc, #76]	@ 40085c <vTaskDelete+0xe0>
  40080c:	e59330e4 	ldr	r3, [r3, #228]	@ 0xe4
  400810:	e3530000 	cmp	r3, #0
  400814:	0a000003 	beq	400828 <vTaskDelete+0xac>
  400818:	e59f303c 	ldr	r3, [pc, #60]	@ 40085c <vTaskDelete+0xe0>
  40081c:	e59330b8 	ldr	r3, [r3, #184]	@ 0xb8
  400820:	e1530004 	cmp	r3, r4
  400824:	0a00000a 	beq	400854 <vTaskDelete+0xd8>
  400828:	e8bd4070 	pop	{r4, r5, r6, lr}
  40082c:	e12fff1e 	bx	lr
  400830:	e59f6024 	ldr	r6, [pc, #36]	@ 40085c <vTaskDelete+0xe0>
  400834:	e1a01005 	mov	r1, r5
  400838:	e2860034 	add	r0, r6, #52	@ 0x34
  40083c:	eb0006e2 	bl	4023cc <vListInsertEnd>
  400840:	e5963030 	ldr	r3, [r6, #48]	@ 0x30
  400844:	e2833001 	add	r3, r3, #1
  400848:	e5863030 	str	r3, [r6, #48]	@ 0x30
  40084c:	eb0006be 	bl	40234c <vPortExitCritical>
  400850:	eaffffec 	b	400808 <vTaskDelete+0x8c>
  400854:	ef000000 	svc	0x00000000
  400858:	eafffff2 	b	400828 <vTaskDelete+0xac>
  40085c:	00405bf8 	strdeq	r5, [r0], #-184	@ 0xffffff48

00400860 <uxTaskPriorityGet>:
  400860:	e92d4010 	push	{r4, lr}
  400864:	e1a04000 	mov	r4, r0
  400868:	eb0006ac 	bl	402320 <vPortEnterCritical>
  40086c:	e3540000 	cmp	r4, #0
  400870:	059f3014 	ldreq	r3, [pc, #20]	@ 40088c <uxTaskPriorityGet+0x2c>
  400874:	059340b8 	ldreq	r4, [r3, #184]	@ 0xb8
  400878:	e594402c 	ldr	r4, [r4, #44]	@ 0x2c
  40087c:	eb0006b2 	bl	40234c <vPortExitCritical>
  400880:	e1a00004 	mov	r0, r4
  400884:	e8bd4010 	pop	{r4, lr}
  400888:	e12fff1e 	bx	lr
  40088c:	00405bf8 	strdeq	r5, [r0], #-184	@ 0xffffff48

00400890 <uxTaskPriorityGetFromISR>:
  400890:	e3500000 	cmp	r0, #0
  400894:	059f3008 	ldreq	r3, [pc, #8]	@ 4008a4 <uxTaskPriorityGetFromISR+0x14>
  400898:	059300b8 	ldreq	r0, [r3, #184]	@ 0xb8
  40089c:	e590002c 	ldr	r0, [r0, #44]	@ 0x2c
  4008a0:	e12fff1e 	bx	lr
  4008a4:	00405bf8 	strdeq	r5, [r0], #-184	@ 0xffffff48

004008a8 <vTaskPrioritySet>:
  4008a8:	e92d4070 	push	{r4, r5, r6, lr}
  4008ac:	e1a04000 	mov	r4, r0
  4008b0:	e3510004 	cmp	r1, #4
  4008b4:	31a05001 	movcc	r5, r1
  4008b8:	23a05004 	movcs	r5, #4
  4008bc:	eb000697 	bl	402320 <vPortEnterCritical>
  4008c0:	e3540000 	cmp	r4, #0
  4008c4:	059f3108 	ldreq	r3, [pc, #264]	@ 4009d4 <vTaskPrioritySet+0x12c>
  4008c8:	059340b8 	ldreq	r4, [r3, #184]	@ 0xb8
  4008cc:	e594302c 	ldr	r3, [r4, #44]	@ 0x2c
  4008d0:	e1550003 	cmp	r5, r3
  4008d4:	0a00001f 	beq	400958 <vTaskPrioritySet+0xb0>
  4008d8:	9a00000b 	bls	40090c <vTaskPrioritySet+0x64>
  4008dc:	e59f20f0 	ldr	r2, [pc, #240]	@ 4009d4 <vTaskPrioritySet+0x12c>
  4008e0:	e59220b8 	ldr	r2, [r2, #184]	@ 0xb8
  4008e4:	e1520004 	cmp	r2, r4
  4008e8:	03a06000 	moveq	r6, #0
  4008ec:	0a00000b 	beq	400920 <vTaskPrioritySet+0x78>
  4008f0:	e59f20dc 	ldr	r2, [pc, #220]	@ 4009d4 <vTaskPrioritySet+0x12c>
  4008f4:	e59220b8 	ldr	r2, [r2, #184]	@ 0xb8
  4008f8:	e592602c 	ldr	r6, [r2, #44]	@ 0x2c
  4008fc:	e1560005 	cmp	r6, r5
  400900:	23a06000 	movcs	r6, #0
  400904:	33a06001 	movcc	r6, #1
  400908:	ea000004 	b	400920 <vTaskPrioritySet+0x78>
  40090c:	e59f20c0 	ldr	r2, [pc, #192]	@ 4009d4 <vTaskPrioritySet+0x12c>
  400910:	e59260b8 	ldr	r6, [r2, #184]	@ 0xb8
  400914:	e1560004 	cmp	r6, r4
  400918:	13a06000 	movne	r6, #0
  40091c:	03a06001 	moveq	r6, #1
  400920:	e584502c 	str	r5, [r4, #44]	@ 0x2c
  400924:	e5942018 	ldr	r2, [r4, #24]
  400928:	e3520000 	cmp	r2, #0
  40092c:	a2655005 	rsbge	r5, r5, #5
  400930:	a5845018 	strge	r5, [r4, #24]
  400934:	e0833103 	add	r3, r3, r3, lsl #2
  400938:	e59f2098 	ldr	r2, [pc, #152]	@ 4009d8 <vTaskPrioritySet+0x130>
  40093c:	e0823103 	add	r3, r2, r3, lsl #2
  400940:	e5942014 	ldr	r2, [r4, #20]
  400944:	e1520003 	cmp	r2, r3
  400948:	0a000005 	beq	400964 <vTaskPrioritySet+0xbc>
  40094c:	e3560000 	cmp	r6, #0
  400950:	0a000000 	beq	400958 <vTaskPrioritySet+0xb0>
  400954:	ef000000 	svc	0x00000000
  400958:	eb00067b 	bl	40234c <vPortExitCritical>
  40095c:	e8bd4070 	pop	{r4, r5, r6, lr}
  400960:	e12fff1e 	bx	lr
  400964:	e2845004 	add	r5, r4, #4
  400968:	e1a00005 	mov	r0, r5
  40096c:	eb0006b7 	bl	402450 <uxListRemove>
  400970:	e594302c 	ldr	r3, [r4, #44]	@ 0x2c
  400974:	e59f2058 	ldr	r2, [pc, #88]	@ 4009d4 <vTaskPrioritySet+0x12c>
  400978:	e59220ec 	ldr	r2, [r2, #236]	@ 0xec
  40097c:	e1530002 	cmp	r3, r2
  400980:	859f204c 	ldrhi	r2, [pc, #76]	@ 4009d4 <vTaskPrioritySet+0x12c>
  400984:	858230ec 	strhi	r3, [r2, #236]	@ 0xec
  400988:	e59f2044 	ldr	r2, [pc, #68]	@ 4009d4 <vTaskPrioritySet+0x12c>
  40098c:	e0833103 	add	r3, r3, r3, lsl #2
  400990:	e0823103 	add	r3, r2, r3, lsl #2
  400994:	e5933050 	ldr	r3, [r3, #80]	@ 0x50
  400998:	e5843008 	str	r3, [r4, #8]
  40099c:	e5931008 	ldr	r1, [r3, #8]
  4009a0:	e584100c 	str	r1, [r4, #12]
  4009a4:	e5815004 	str	r5, [r1, #4]
  4009a8:	e5835008 	str	r5, [r3, #8]
  4009ac:	e594302c 	ldr	r3, [r4, #44]	@ 0x2c
  4009b0:	e282104c 	add	r1, r2, #76	@ 0x4c
  4009b4:	e0830103 	add	r0, r3, r3, lsl #2
  4009b8:	e0811100 	add	r1, r1, r0, lsl #2
  4009bc:	e5841014 	str	r1, [r4, #20]
  4009c0:	e0821100 	add	r1, r2, r0, lsl #2
  4009c4:	e591304c 	ldr	r3, [r1, #76]	@ 0x4c
  4009c8:	e2833001 	add	r3, r3, #1
  4009cc:	e581304c 	str	r3, [r1, #76]	@ 0x4c
  4009d0:	eaffffdd 	b	40094c <vTaskPrioritySet+0xa4>
  4009d4:	00405bf8 	strdeq	r5, [r0], #-184	@ 0xffffff48
  4009d8:	00405c44 	subeq	r5, r0, r4, asr #24

004009dc <vTaskResume>:
  4009dc:	e59f30bc 	ldr	r3, [pc, #188]	@ 400aa0 <vTaskResume+0xc4>
  4009e0:	e59330b8 	ldr	r3, [r3, #184]	@ 0xb8
  4009e4:	e3500000 	cmp	r0, #0
  4009e8:	11530000 	cmpne	r3, r0
  4009ec:	012fff1e 	bxeq	lr
  4009f0:	e92d4070 	push	{r4, r5, r6, lr}
  4009f4:	e1a04000 	mov	r4, r0
  4009f8:	eb000648 	bl	402320 <vPortEnterCritical>
  4009fc:	e1a00004 	mov	r0, r4
  400a00:	ebfffe45 	bl	40031c <prvTaskIsTaskSuspended>
  400a04:	e3500000 	cmp	r0, #0
  400a08:	1a000002 	bne	400a18 <vTaskResume+0x3c>
  400a0c:	eb00064e 	bl	40234c <vPortExitCritical>
  400a10:	e8bd4070 	pop	{r4, r5, r6, lr}
  400a14:	e12fff1e 	bx	lr
  400a18:	e2845004 	add	r5, r4, #4
  400a1c:	e1a00005 	mov	r0, r5
  400a20:	eb00068a 	bl	402450 <uxListRemove>
  400a24:	e594302c 	ldr	r3, [r4, #44]	@ 0x2c
  400a28:	e59f2070 	ldr	r2, [pc, #112]	@ 400aa0 <vTaskResume+0xc4>
  400a2c:	e59220ec 	ldr	r2, [r2, #236]	@ 0xec
  400a30:	e1530002 	cmp	r3, r2
  400a34:	859f2064 	ldrhi	r2, [pc, #100]	@ 400aa0 <vTaskResume+0xc4>
  400a38:	858230ec 	strhi	r3, [r2, #236]	@ 0xec
  400a3c:	e59f205c 	ldr	r2, [pc, #92]	@ 400aa0 <vTaskResume+0xc4>
  400a40:	e0833103 	add	r3, r3, r3, lsl #2
  400a44:	e0823103 	add	r3, r2, r3, lsl #2
  400a48:	e5933050 	ldr	r3, [r3, #80]	@ 0x50
  400a4c:	e5843008 	str	r3, [r4, #8]
  400a50:	e5931008 	ldr	r1, [r3, #8]
  400a54:	e584100c 	str	r1, [r4, #12]
  400a58:	e5815004 	str	r5, [r1, #4]
  400a5c:	e5835008 	str	r5, [r3, #8]
  400a60:	e594302c 	ldr	r3, [r4, #44]	@ 0x2c
  400a64:	e282104c 	add	r1, r2, #76	@ 0x4c
  400a68:	e0830103 	add	r0, r3, r3, lsl #2
  400a6c:	e0811100 	add	r1, r1, r0, lsl #2
  400a70:	e5841014 	str	r1, [r4, #20]
  400a74:	e0821100 	add	r1, r2, r0, lsl #2
  400a78:	e591304c 	ldr	r3, [r1, #76]	@ 0x4c
  400a7c:	e2833001 	add	r3, r3, #1
  400a80:	e581304c 	str	r3, [r1, #76]	@ 0x4c
  400a84:	e59230b8 	ldr	r3, [r2, #184]	@ 0xb8
  400a88:	e593202c 	ldr	r2, [r3, #44]	@ 0x2c
  400a8c:	e594302c 	ldr	r3, [r4, #44]	@ 0x2c
  400a90:	e1520003 	cmp	r2, r3
  400a94:	2affffdc 	bcs	400a0c <vTaskResume+0x30>
  400a98:	ef000000 	svc	0x00000000
  400a9c:	eaffffda 	b	400a0c <vTaskResume+0x30>
  400aa0:	00405bf8 	strdeq	r5, [r0], #-184	@ 0xffffff48

00400aa4 <xTaskResumeFromISR>:
  400aa4:	e92d4070 	push	{r4, r5, r6, lr}
  400aa8:	e1a04000 	mov	r4, r0
  400aac:	ebfffe1a 	bl	40031c <prvTaskIsTaskSuspended>
  400ab0:	e2505000 	subs	r5, r0, #0
  400ab4:	0a000028 	beq	400b5c <xTaskResumeFromISR+0xb8>
  400ab8:	e59f30bc 	ldr	r3, [pc, #188]	@ 400b7c <xTaskResumeFromISR+0xd8>
  400abc:	e59330f0 	ldr	r3, [r3, #240]	@ 0xf0
  400ac0:	e3530000 	cmp	r3, #0
  400ac4:	1a000027 	bne	400b68 <xTaskResumeFromISR+0xc4>
  400ac8:	e59f30ac 	ldr	r3, [pc, #172]	@ 400b7c <xTaskResumeFromISR+0xd8>
  400acc:	e59330b8 	ldr	r3, [r3, #184]	@ 0xb8
  400ad0:	e594202c 	ldr	r2, [r4, #44]	@ 0x2c
  400ad4:	e593302c 	ldr	r3, [r3, #44]	@ 0x2c
  400ad8:	e1520003 	cmp	r2, r3
  400adc:	83a00001 	movhi	r0, #1
  400ae0:	859f3094 	ldrhi	r3, [pc, #148]	@ 400b7c <xTaskResumeFromISR+0xd8>
  400ae4:	858300f4 	strhi	r0, [r3, #244]	@ 0xf4
  400ae8:	81a05000 	movhi	r5, r0
  400aec:	93a05000 	movls	r5, #0
  400af0:	e2846004 	add	r6, r4, #4
  400af4:	e1a00006 	mov	r0, r6
  400af8:	eb000654 	bl	402450 <uxListRemove>
  400afc:	e594302c 	ldr	r3, [r4, #44]	@ 0x2c
  400b00:	e59f2074 	ldr	r2, [pc, #116]	@ 400b7c <xTaskResumeFromISR+0xd8>
  400b04:	e59220ec 	ldr	r2, [r2, #236]	@ 0xec
  400b08:	e1530002 	cmp	r3, r2
  400b0c:	859f2068 	ldrhi	r2, [pc, #104]	@ 400b7c <xTaskResumeFromISR+0xd8>
  400b10:	858230ec 	strhi	r3, [r2, #236]	@ 0xec
  400b14:	e59f2060 	ldr	r2, [pc, #96]	@ 400b7c <xTaskResumeFromISR+0xd8>
  400b18:	e0833103 	add	r3, r3, r3, lsl #2
  400b1c:	e0823103 	add	r3, r2, r3, lsl #2
  400b20:	e5933050 	ldr	r3, [r3, #80]	@ 0x50
  400b24:	e5843008 	str	r3, [r4, #8]
  400b28:	e5931008 	ldr	r1, [r3, #8]
  400b2c:	e584100c 	str	r1, [r4, #12]
  400b30:	e5816004 	str	r6, [r1, #4]
  400b34:	e5836008 	str	r6, [r3, #8]
  400b38:	e594302c 	ldr	r3, [r4, #44]	@ 0x2c
  400b3c:	e282104c 	add	r1, r2, #76	@ 0x4c
  400b40:	e0830103 	add	r0, r3, r3, lsl #2
  400b44:	e0811100 	add	r1, r1, r0, lsl #2
  400b48:	e5841014 	str	r1, [r4, #20]
  400b4c:	e0821100 	add	r1, r2, r0, lsl #2
  400b50:	e591304c 	ldr	r3, [r1, #76]	@ 0x4c
  400b54:	e2833001 	add	r3, r3, #1
  400b58:	e581304c 	str	r3, [r1, #76]	@ 0x4c
  400b5c:	e1a00005 	mov	r0, r5
  400b60:	e8bd4070 	pop	{r4, r5, r6, lr}
  400b64:	e12fff1e 	bx	lr
  400b68:	e2841018 	add	r1, r4, #24
  400b6c:	e59f000c 	ldr	r0, [pc, #12]	@ 400b80 <xTaskResumeFromISR+0xdc>
  400b70:	eb000615 	bl	4023cc <vListInsertEnd>
  400b74:	e3a05000 	mov	r5, #0
  400b78:	eafffff7 	b	400b5c <xTaskResumeFromISR+0xb8>
  400b7c:	00405bf8 	strdeq	r5, [r0], #-184	@ 0xffffff48
  400b80:	00405c0c 	subeq	r5, r0, ip, lsl #24

00400b84 <vTaskStartScheduler>:
  400b84:	e52de004 	push	{lr}		@ (str lr, [sp, #-4]!)
  400b88:	e24dd01c 	sub	sp, sp, #28
  400b8c:	e59f108c 	ldr	r1, [pc, #140]	@ 400c20 <vTaskStartScheduler+0x9c>
  400b90:	e28d2008 	add	r2, sp, #8
  400b94:	e4d13001 	ldrb	r3, [r1], #1
  400b98:	e4c23001 	strb	r3, [r2], #1
  400b9c:	e3530000 	cmp	r3, #0
  400ba0:	1afffffb 	bne	400b94 <vTaskStartScheduler+0x10>
  400ba4:	e59f3078 	ldr	r3, [pc, #120]	@ 400c24 <vTaskStartScheduler+0xa0>
  400ba8:	e58d3004 	str	r3, [sp, #4]
  400bac:	e3a03000 	mov	r3, #0
  400bb0:	e58d3000 	str	r3, [sp]
  400bb4:	e3a02c01 	mov	r2, #256	@ 0x100
  400bb8:	e28d1008 	add	r1, sp, #8
  400bbc:	e59f0064 	ldr	r0, [pc, #100]	@ 400c28 <vTaskStartScheduler+0xa4>
  400bc0:	ebfffe57 	bl	400524 <xTaskCreate>
  400bc4:	e3500000 	cmp	r0, #0
  400bc8:	0a000001 	beq	400bd4 <vTaskStartScheduler+0x50>
  400bcc:	e3500001 	cmp	r0, #1
  400bd0:	0a000004 	beq	400be8 <vTaskStartScheduler+0x64>
  400bd4:	e59f3050 	ldr	r3, [pc, #80]	@ 400c2c <vTaskStartScheduler+0xa8>
  400bd8:	e5933000 	ldr	r3, [r3]
  400bdc:	e28dd01c 	add	sp, sp, #28
  400be0:	e49de004 	pop	{lr}		@ (ldr lr, [sp], #4)
  400be4:	e12fff1e 	bx	lr
  400be8:	e92d0001 	stmfd	sp!, {r0}
  400bec:	e10f0000 	mrs	r0, CPSR
  400bf0:	e38000c0 	orr	r0, r0, #192	@ 0xc0
  400bf4:	e129f000 	msr	CPSR_fc, r0
  400bf8:	e8bd0001 	ldmfd	sp!, {r0}
  400bfc:	e59f302c 	ldr	r3, [pc, #44]	@ 400c30 <vTaskStartScheduler+0xac>
  400c00:	e3e02000 	mvn	r2, #0
  400c04:	e583202c 	str	r2, [r3, #44]	@ 0x2c
  400c08:	e3a02001 	mov	r2, #1
  400c0c:	e58320e4 	str	r2, [r3, #228]	@ 0xe4
  400c10:	e3a02000 	mov	r2, #0
  400c14:	e58320b0 	str	r2, [r3, #176]	@ 0xb0
  400c18:	eb000548 	bl	402140 <xPortStartScheduler>
  400c1c:	eaffffec 	b	400bd4 <vTaskStartScheduler+0x50>
  400c20:	00403954 	subeq	r3, r0, r4, asr r9
  400c24:	00405cf0 	strdeq	r5, [r0], #-192	@ 0xffffff40
  400c28:	00400414 	subeq	r0, r0, r4, lsl r4
  400c2c:	00403998 	umaaleq	r3, r0, r8, r9
  400c30:	00405bf8 	strdeq	r5, [r0], #-184	@ 0xffffff48

00400c34 <vTaskEndScheduler>:
  400c34:	e92d4010 	push	{r4, lr}
  400c38:	e59f4030 	ldr	r4, [pc, #48]	@ 400c70 <vTaskEndScheduler+0x3c>
  400c3c:	e59400f8 	ldr	r0, [r4, #248]	@ 0xf8
  400c40:	ebfffecd 	bl	40077c <vTaskDelete>
  400c44:	ebfffdd6 	bl	4003a4 <prvCheckTasksWaitingTermination>
  400c48:	e92d0001 	stmfd	sp!, {r0}
  400c4c:	e10f0000 	mrs	r0, CPSR
  400c50:	e38000c0 	orr	r0, r0, #192	@ 0xc0
  400c54:	e129f000 	msr	CPSR_fc, r0
  400c58:	e8bd0001 	ldmfd	sp!, {r0}
  400c5c:	e3a03000 	mov	r3, #0
  400c60:	e58430e4 	str	r3, [r4, #228]	@ 0xe4
  400c64:	eb000543 	bl	402178 <vPortEndScheduler>
  400c68:	e8bd4010 	pop	{r4, lr}
  400c6c:	e12fff1e 	bx	lr
  400c70:	00405bf8 	strdeq	r5, [r0], #-184	@ 0xffffff48

00400c74 <vTaskSuspendAll>:
  400c74:	e59f200c 	ldr	r2, [pc, #12]	@ 400c88 <vTaskSuspendAll+0x14>
  400c78:	e59230f0 	ldr	r3, [r2, #240]	@ 0xf0
  400c7c:	e2833001 	add	r3, r3, #1
  400c80:	e58230f0 	str	r3, [r2, #240]	@ 0xf0
  400c84:	e12fff1e 	bx	lr
  400c88:	00405bf8 	strdeq	r5, [r0], #-184	@ 0xffffff48

00400c8c <xTaskGetTickCount>:
  400c8c:	e92d4010 	push	{r4, lr}
  400c90:	eb0005a2 	bl	402320 <vPortEnterCritical>
  400c94:	e59f3010 	ldr	r3, [pc, #16]	@ 400cac <xTaskGetTickCount+0x20>
  400c98:	e59340b0 	ldr	r4, [r3, #176]	@ 0xb0
  400c9c:	eb0005aa 	bl	40234c <vPortExitCritical>
  400ca0:	e1a00004 	mov	r0, r4
  400ca4:	e8bd4010 	pop	{r4, lr}
  400ca8:	e12fff1e 	bx	lr
  400cac:	00405bf8 	strdeq	r5, [r0], #-184	@ 0xffffff48

00400cb0 <xTaskGetTickCountFromISR>:
  400cb0:	e59f3004 	ldr	r3, [pc, #4]	@ 400cbc <xTaskGetTickCountFromISR+0xc>
  400cb4:	e59300b0 	ldr	r0, [r3, #176]	@ 0xb0
  400cb8:	e12fff1e 	bx	lr
  400cbc:	00405bf8 	strdeq	r5, [r0], #-184	@ 0xffffff48

00400cc0 <uxTaskGetNumberOfTasks>:
  400cc0:	e59f3004 	ldr	r3, [pc, #4]	@ 400ccc <uxTaskGetNumberOfTasks+0xc>
  400cc4:	e5930048 	ldr	r0, [r3, #72]	@ 0x48
  400cc8:	e12fff1e 	bx	lr
  400ccc:	00405bf8 	strdeq	r5, [r0], #-184	@ 0xffffff48

00400cd0 <pcTaskGetName>:
  400cd0:	e3500000 	cmp	r0, #0
  400cd4:	059f3008 	ldreq	r3, [pc, #8]	@ 400ce4 <pcTaskGetName+0x14>
  400cd8:	059300b8 	ldreq	r0, [r3, #184]	@ 0xb8
  400cdc:	e2800034 	add	r0, r0, #52	@ 0x34
  400ce0:	e12fff1e 	bx	lr
  400ce4:	00405bf8 	strdeq	r5, [r0], #-184	@ 0xffffff48

00400ce8 <xTaskIncrementTick>:
  400ce8:	e59f3204 	ldr	r3, [pc, #516]	@ 400ef4 <xTaskIncrementTick+0x20c>
  400cec:	e59330f0 	ldr	r3, [r3, #240]	@ 0xf0
  400cf0:	e3530000 	cmp	r3, #0
  400cf4:	1a000078 	bne	400edc <xTaskIncrementTick+0x1f4>
  400cf8:	e92d41f0 	push	{r4, r5, r6, r7, r8, lr}
  400cfc:	e59f31f0 	ldr	r3, [pc, #496]	@ 400ef4 <xTaskIncrementTick+0x20c>
  400d00:	e59340b0 	ldr	r4, [r3, #176]	@ 0xb0
  400d04:	e2844001 	add	r4, r4, #1
  400d08:	e58340b0 	str	r4, [r3, #176]	@ 0xb0
  400d0c:	e3540000 	cmp	r4, #0
  400d10:	0a00000e 	beq	400d50 <xTaskIncrementTick+0x68>
  400d14:	e59f31d8 	ldr	r3, [pc, #472]	@ 400ef4 <xTaskIncrementTick+0x20c>
  400d18:	e593302c 	ldr	r3, [r3, #44]	@ 0x2c
  400d1c:	e1530004 	cmp	r3, r4
  400d20:	83a00000 	movhi	r0, #0
  400d24:	8a000016 	bhi	400d84 <xTaskIncrementTick+0x9c>
  400d28:	e59f31c4 	ldr	r3, [pc, #452]	@ 400ef4 <xTaskIncrementTick+0x20c>
  400d2c:	e5933028 	ldr	r3, [r3, #40]	@ 0x28
  400d30:	e5933000 	ldr	r3, [r3]
  400d34:	e3530000 	cmp	r3, #0
  400d38:	0a00000d 	beq	400d74 <xTaskIncrementTick+0x8c>
  400d3c:	e3a00000 	mov	r0, #0
  400d40:	e59f11ac 	ldr	r1, [pc, #428]	@ 400ef4 <xTaskIncrementTick+0x20c>
  400d44:	e1a0c000 	mov	ip, r0
  400d48:	e281e04c 	add	lr, r1, #76	@ 0x4c
  400d4c:	ea000049 	b	400e78 <xTaskIncrementTick+0x190>
  400d50:	e5932028 	ldr	r2, [r3, #40]	@ 0x28
  400d54:	e59310b4 	ldr	r1, [r3, #180]	@ 0xb4
  400d58:	e5831028 	str	r1, [r3, #40]	@ 0x28
  400d5c:	e58320b4 	str	r2, [r3, #180]	@ 0xb4
  400d60:	e59320fc 	ldr	r2, [r3, #252]	@ 0xfc
  400d64:	e2822001 	add	r2, r2, #1
  400d68:	e58320fc 	str	r2, [r3, #252]	@ 0xfc
  400d6c:	ebfffd80 	bl	400374 <prvResetNextTaskUnblockTime>
  400d70:	eaffffe7 	b	400d14 <xTaskIncrementTick+0x2c>
  400d74:	e3a00000 	mov	r0, #0
  400d78:	e59f3174 	ldr	r3, [pc, #372]	@ 400ef4 <xTaskIncrementTick+0x20c>
  400d7c:	e3e02000 	mvn	r2, #0
  400d80:	e583202c 	str	r2, [r3, #44]	@ 0x2c
  400d84:	e59f3168 	ldr	r3, [pc, #360]	@ 400ef4 <xTaskIncrementTick+0x20c>
  400d88:	e59320b8 	ldr	r2, [r3, #184]	@ 0xb8
  400d8c:	e592202c 	ldr	r2, [r2, #44]	@ 0x2c
  400d90:	e0822102 	add	r2, r2, r2, lsl #2
  400d94:	e0833102 	add	r3, r3, r2, lsl #2
  400d98:	e593304c 	ldr	r3, [r3, #76]	@ 0x4c
  400d9c:	e3530002 	cmp	r3, #2
  400da0:	23a00001 	movcs	r0, #1
  400da4:	e59f3148 	ldr	r3, [pc, #328]	@ 400ef4 <xTaskIncrementTick+0x20c>
  400da8:	e59330f4 	ldr	r3, [r3, #244]	@ 0xf4
  400dac:	e3530000 	cmp	r3, #0
  400db0:	13a00001 	movne	r0, #1
  400db4:	e8bd41f0 	pop	{r4, r5, r6, r7, r8, lr}
  400db8:	e12fff1e 	bx	lr
  400dbc:	e59f3130 	ldr	r3, [pc, #304]	@ 400ef4 <xTaskIncrementTick+0x20c>
  400dc0:	e583202c 	str	r2, [r3, #44]	@ 0x2c
  400dc4:	eaffffee 	b	400d84 <xTaskIncrementTick+0x9c>
  400dc8:	e5936020 	ldr	r6, [r3, #32]
  400dcc:	e593701c 	ldr	r7, [r3, #28]
  400dd0:	e5876008 	str	r6, [r7, #8]
  400dd4:	e593701c 	ldr	r7, [r3, #28]
  400dd8:	e5867004 	str	r7, [r6, #4]
  400ddc:	e2836018 	add	r6, r3, #24
  400de0:	e5927004 	ldr	r7, [r2, #4]
  400de4:	e1570006 	cmp	r7, r6
  400de8:	05936020 	ldreq	r6, [r3, #32]
  400dec:	05826004 	streq	r6, [r2, #4]
  400df0:	e583c028 	str	ip, [r3, #40]	@ 0x28
  400df4:	e5926000 	ldr	r6, [r2]
  400df8:	e2466001 	sub	r6, r6, #1
  400dfc:	e5826000 	str	r6, [r2]
  400e00:	e593202c 	ldr	r2, [r3, #44]	@ 0x2c
  400e04:	e59160ec 	ldr	r6, [r1, #236]	@ 0xec
  400e08:	e1520006 	cmp	r2, r6
  400e0c:	858120ec 	strhi	r2, [r1, #236]	@ 0xec
  400e10:	e0822102 	add	r2, r2, r2, lsl #2
  400e14:	e0812102 	add	r2, r1, r2, lsl #2
  400e18:	e5922050 	ldr	r2, [r2, #80]	@ 0x50
  400e1c:	e5832008 	str	r2, [r3, #8]
  400e20:	e5926008 	ldr	r6, [r2, #8]
  400e24:	e583600c 	str	r6, [r3, #12]
  400e28:	e5865004 	str	r5, [r6, #4]
  400e2c:	e5825008 	str	r5, [r2, #8]
  400e30:	e593202c 	ldr	r2, [r3, #44]	@ 0x2c
  400e34:	e0825102 	add	r5, r2, r2, lsl #2
  400e38:	e08e5105 	add	r5, lr, r5, lsl #2
  400e3c:	e5835014 	str	r5, [r3, #20]
  400e40:	e0825102 	add	r5, r2, r2, lsl #2
  400e44:	e0815105 	add	r5, r1, r5, lsl #2
  400e48:	e595204c 	ldr	r2, [r5, #76]	@ 0x4c
  400e4c:	e2822001 	add	r2, r2, #1
  400e50:	e585204c 	str	r2, [r5, #76]	@ 0x4c
  400e54:	e59150b8 	ldr	r5, [r1, #184]	@ 0xb8
  400e58:	e593202c 	ldr	r2, [r3, #44]	@ 0x2c
  400e5c:	e595302c 	ldr	r3, [r5, #44]	@ 0x2c
  400e60:	e1520003 	cmp	r2, r3
  400e64:	83a00001 	movhi	r0, #1
  400e68:	e5913028 	ldr	r3, [r1, #40]	@ 0x28
  400e6c:	e5933000 	ldr	r3, [r3]
  400e70:	e3530000 	cmp	r3, #0
  400e74:	0affffbf 	beq	400d78 <xTaskIncrementTick+0x90>
  400e78:	e5913028 	ldr	r3, [r1, #40]	@ 0x28
  400e7c:	e593300c 	ldr	r3, [r3, #12]
  400e80:	e593300c 	ldr	r3, [r3, #12]
  400e84:	e5932004 	ldr	r2, [r3, #4]
  400e88:	e1540002 	cmp	r4, r2
  400e8c:	3affffca 	bcc	400dbc <xTaskIncrementTick+0xd4>
  400e90:	e5932014 	ldr	r2, [r3, #20]
  400e94:	e5936008 	ldr	r6, [r3, #8]
  400e98:	e593500c 	ldr	r5, [r3, #12]
  400e9c:	e5865008 	str	r5, [r6, #8]
  400ea0:	e5936008 	ldr	r6, [r3, #8]
  400ea4:	e5856004 	str	r6, [r5, #4]
  400ea8:	e2835004 	add	r5, r3, #4
  400eac:	e5926004 	ldr	r6, [r2, #4]
  400eb0:	e1560005 	cmp	r6, r5
  400eb4:	0593600c 	ldreq	r6, [r3, #12]
  400eb8:	05826004 	streq	r6, [r2, #4]
  400ebc:	e583c014 	str	ip, [r3, #20]
  400ec0:	e5926000 	ldr	r6, [r2]
  400ec4:	e2466001 	sub	r6, r6, #1
  400ec8:	e5826000 	str	r6, [r2]
  400ecc:	e5932028 	ldr	r2, [r3, #40]	@ 0x28
  400ed0:	e3520000 	cmp	r2, #0
  400ed4:	1affffbb 	bne	400dc8 <xTaskIncrementTick+0xe0>
  400ed8:	eaffffc8 	b	400e00 <xTaskIncrementTick+0x118>
  400edc:	e59f2010 	ldr	r2, [pc, #16]	@ 400ef4 <xTaskIncrementTick+0x20c>
  400ee0:	e5923100 	ldr	r3, [r2, #256]	@ 0x100
  400ee4:	e2833001 	add	r3, r3, #1
  400ee8:	e5823100 	str	r3, [r2, #256]	@ 0x100
  400eec:	e3a00000 	mov	r0, #0
  400ef0:	e12fff1e 	bx	lr
  400ef4:	00405bf8 	strdeq	r5, [r0], #-184	@ 0xffffff48

00400ef8 <xTaskResumeAll>:
  400ef8:	e92d4070 	push	{r4, r5, r6, lr}
  400efc:	eb000507 	bl	402320 <vPortEnterCritical>
  400f00:	e59f31a8 	ldr	r3, [pc, #424]	@ 4010b0 <xTaskResumeAll+0x1b8>
  400f04:	e59320f0 	ldr	r2, [r3, #240]	@ 0xf0
  400f08:	e2422001 	sub	r2, r2, #1
  400f0c:	e58320f0 	str	r2, [r3, #240]	@ 0xf0
  400f10:	e59330f0 	ldr	r3, [r3, #240]	@ 0xf0
  400f14:	e3530000 	cmp	r3, #0
  400f18:	13a04000 	movne	r4, #0
  400f1c:	1a00005f 	bne	4010a0 <xTaskResumeAll+0x1a8>
  400f20:	e59f3188 	ldr	r3, [pc, #392]	@ 4010b0 <xTaskResumeAll+0x1b8>
  400f24:	e5933048 	ldr	r3, [r3, #72]	@ 0x48
  400f28:	e3530000 	cmp	r3, #0
  400f2c:	03a04000 	moveq	r4, #0
  400f30:	0a00005a 	beq	4010a0 <xTaskResumeAll+0x1a8>
  400f34:	e59f3174 	ldr	r3, [pc, #372]	@ 4010b0 <xTaskResumeAll+0x1b8>
  400f38:	e5933014 	ldr	r3, [r3, #20]
  400f3c:	e3530000 	cmp	r3, #0
  400f40:	0a000041 	beq	40104c <xTaskResumeAll+0x154>
  400f44:	e59f1164 	ldr	r1, [pc, #356]	@ 4010b0 <xTaskResumeAll+0x1b8>
  400f48:	e3a0c000 	mov	ip, #0
  400f4c:	e281e04c 	add	lr, r1, #76	@ 0x4c
  400f50:	e3a04001 	mov	r4, #1
  400f54:	e5913020 	ldr	r3, [r1, #32]
  400f58:	e593300c 	ldr	r3, [r3, #12]
  400f5c:	e5932028 	ldr	r2, [r3, #40]	@ 0x28
  400f60:	e593501c 	ldr	r5, [r3, #28]
  400f64:	e5930020 	ldr	r0, [r3, #32]
  400f68:	e5850008 	str	r0, [r5, #8]
  400f6c:	e593501c 	ldr	r5, [r3, #28]
  400f70:	e5805004 	str	r5, [r0, #4]
  400f74:	e2830018 	add	r0, r3, #24
  400f78:	e5925004 	ldr	r5, [r2, #4]
  400f7c:	e1550000 	cmp	r5, r0
  400f80:	05930020 	ldreq	r0, [r3, #32]
  400f84:	05820004 	streq	r0, [r2, #4]
  400f88:	e583c028 	str	ip, [r3, #40]	@ 0x28
  400f8c:	e5920000 	ldr	r0, [r2]
  400f90:	e2400001 	sub	r0, r0, #1
  400f94:	e5820000 	str	r0, [r2]
  400f98:	e5932014 	ldr	r2, [r3, #20]
  400f9c:	e5935008 	ldr	r5, [r3, #8]
  400fa0:	e593000c 	ldr	r0, [r3, #12]
  400fa4:	e5850008 	str	r0, [r5, #8]
  400fa8:	e5935008 	ldr	r5, [r3, #8]
  400fac:	e5805004 	str	r5, [r0, #4]
  400fb0:	e2830004 	add	r0, r3, #4
  400fb4:	e5925004 	ldr	r5, [r2, #4]
  400fb8:	e1550000 	cmp	r5, r0
  400fbc:	0593500c 	ldreq	r5, [r3, #12]
  400fc0:	05825004 	streq	r5, [r2, #4]
  400fc4:	e583c014 	str	ip, [r3, #20]
  400fc8:	e5925000 	ldr	r5, [r2]
  400fcc:	e2455001 	sub	r5, r5, #1
  400fd0:	e5825000 	str	r5, [r2]
  400fd4:	e593202c 	ldr	r2, [r3, #44]	@ 0x2c
  400fd8:	e59150ec 	ldr	r5, [r1, #236]	@ 0xec
  400fdc:	e1520005 	cmp	r2, r5
  400fe0:	858120ec 	strhi	r2, [r1, #236]	@ 0xec
  400fe4:	e0822102 	add	r2, r2, r2, lsl #2
  400fe8:	e0812102 	add	r2, r1, r2, lsl #2
  400fec:	e5922050 	ldr	r2, [r2, #80]	@ 0x50
  400ff0:	e5832008 	str	r2, [r3, #8]
  400ff4:	e5925008 	ldr	r5, [r2, #8]
  400ff8:	e583500c 	str	r5, [r3, #12]
  400ffc:	e5850004 	str	r0, [r5, #4]
  401000:	e5820008 	str	r0, [r2, #8]
  401004:	e593202c 	ldr	r2, [r3, #44]	@ 0x2c
  401008:	e0820102 	add	r0, r2, r2, lsl #2
  40100c:	e08e0100 	add	r0, lr, r0, lsl #2
  401010:	e5830014 	str	r0, [r3, #20]
  401014:	e0820102 	add	r0, r2, r2, lsl #2
  401018:	e0810100 	add	r0, r1, r0, lsl #2
  40101c:	e590204c 	ldr	r2, [r0, #76]	@ 0x4c
  401020:	e2822001 	add	r2, r2, #1
  401024:	e580204c 	str	r2, [r0, #76]	@ 0x4c
  401028:	e59100b8 	ldr	r0, [r1, #184]	@ 0xb8
  40102c:	e593202c 	ldr	r2, [r3, #44]	@ 0x2c
  401030:	e590302c 	ldr	r3, [r0, #44]	@ 0x2c
  401034:	e1520003 	cmp	r2, r3
  401038:	858140f4 	strhi	r4, [r1, #244]	@ 0xf4
  40103c:	e5913014 	ldr	r3, [r1, #20]
  401040:	e3530000 	cmp	r3, #0
  401044:	1affffc2 	bne	400f54 <xTaskResumeAll+0x5c>
  401048:	ebfffcc9 	bl	400374 <prvResetNextTaskUnblockTime>
  40104c:	e59f305c 	ldr	r3, [pc, #92]	@ 4010b0 <xTaskResumeAll+0x1b8>
  401050:	e5934100 	ldr	r4, [r3, #256]	@ 0x100
  401054:	e3540000 	cmp	r4, #0
  401058:	0a000009 	beq	401084 <xTaskResumeAll+0x18c>
  40105c:	e1a06003 	mov	r6, r3
  401060:	e3a05001 	mov	r5, #1
  401064:	ebffff1f 	bl	400ce8 <xTaskIncrementTick>
  401068:	e3500000 	cmp	r0, #0
  40106c:	158650f4 	strne	r5, [r6, #244]	@ 0xf4
  401070:	e2544001 	subs	r4, r4, #1
  401074:	1afffffa 	bne	401064 <xTaskResumeAll+0x16c>
  401078:	e59f3030 	ldr	r3, [pc, #48]	@ 4010b0 <xTaskResumeAll+0x1b8>
  40107c:	e3a02000 	mov	r2, #0
  401080:	e5832100 	str	r2, [r3, #256]	@ 0x100
  401084:	e59f3024 	ldr	r3, [pc, #36]	@ 4010b0 <xTaskResumeAll+0x1b8>
  401088:	e59340f4 	ldr	r4, [r3, #244]	@ 0xf4
  40108c:	e3540000 	cmp	r4, #0
  401090:	0a000002 	beq	4010a0 <xTaskResumeAll+0x1a8>
  401094:	e59330b8 	ldr	r3, [r3, #184]	@ 0xb8
  401098:	ef000000 	svc	0x00000000
  40109c:	e3a04001 	mov	r4, #1
  4010a0:	eb0004a9 	bl	40234c <vPortExitCritical>
  4010a4:	e1a00004 	mov	r0, r4
  4010a8:	e8bd4070 	pop	{r4, r5, r6, lr}
  4010ac:	e12fff1e 	bx	lr
  4010b0:	00405bf8 	strdeq	r5, [r0], #-184	@ 0xffffff48

004010b4 <xTaskDelayUntil>:
  4010b4:	e92d4070 	push	{r4, r5, r6, lr}
  4010b8:	e1a05000 	mov	r5, r0
  4010bc:	e1a04001 	mov	r4, r1
  4010c0:	ebfffeeb 	bl	400c74 <vTaskSuspendAll>
  4010c4:	e59f3088 	ldr	r3, [pc, #136]	@ 401154 <xTaskDelayUntil+0xa0>
  4010c8:	e59300b0 	ldr	r0, [r3, #176]	@ 0xb0
  4010cc:	e5952000 	ldr	r2, [r5]
  4010d0:	e0824004 	add	r4, r2, r4
  4010d4:	e1520000 	cmp	r2, r0
  4010d8:	9a000008 	bls	401100 <xTaskDelayUntil+0x4c>
  4010dc:	e1520004 	cmp	r2, r4
  4010e0:	95854000 	strls	r4, [r5]
  4010e4:	93a04000 	movls	r4, #0
  4010e8:	9a000012 	bls	401138 <xTaskDelayUntil+0x84>
  4010ec:	e1500004 	cmp	r0, r4
  4010f0:	25854000 	strcs	r4, [r5]
  4010f4:	23a04000 	movcs	r4, #0
  4010f8:	2a00000e 	bcs	401138 <xTaskDelayUntil+0x84>
  4010fc:	ea000008 	b	401124 <xTaskDelayUntil+0x70>
  401100:	e1520004 	cmp	r2, r4
  401104:	93a02000 	movls	r2, #0
  401108:	83a02001 	movhi	r2, #1
  40110c:	e1500004 	cmp	r0, r4
  401110:	33822001 	orrcc	r2, r2, #1
  401114:	e3520000 	cmp	r2, #0
  401118:	05854000 	streq	r4, [r5]
  40111c:	03a04000 	moveq	r4, #0
  401120:	0a000004 	beq	401138 <xTaskDelayUntil+0x84>
  401124:	e5854000 	str	r4, [r5]
  401128:	e3a01000 	mov	r1, #0
  40112c:	e0440000 	sub	r0, r4, r0
  401130:	ebfffcc0 	bl	400438 <prvAddCurrentTaskToDelayedList>
  401134:	e3a04001 	mov	r4, #1
  401138:	ebffff6e 	bl	400ef8 <xTaskResumeAll>
  40113c:	e3500000 	cmp	r0, #0
  401140:	1a000000 	bne	401148 <xTaskDelayUntil+0x94>
  401144:	ef000000 	svc	0x00000000
  401148:	e1a00004 	mov	r0, r4
  40114c:	e8bd4070 	pop	{r4, r5, r6, lr}
  401150:	e12fff1e 	bx	lr
  401154:	00405bf8 	strdeq	r5, [r0], #-184	@ 0xffffff48

00401158 <vTaskDelay>:
  401158:	e92d4010 	push	{r4, lr}
  40115c:	e2504000 	subs	r4, r0, #0
  401160:	1a000002 	bne	401170 <vTaskDelay+0x18>
  401164:	ef000000 	svc	0x00000000
  401168:	e8bd4010 	pop	{r4, lr}
  40116c:	e12fff1e 	bx	lr
  401170:	ebfffebf 	bl	400c74 <vTaskSuspendAll>
  401174:	e3a01000 	mov	r1, #0
  401178:	e1a00004 	mov	r0, r4
  40117c:	ebfffcad 	bl	400438 <prvAddCurrentTaskToDelayedList>
  401180:	ebffff5c 	bl	400ef8 <xTaskResumeAll>
  401184:	e3500000 	cmp	r0, #0
  401188:	1afffff6 	bne	401168 <vTaskDelay+0x10>
  40118c:	eafffff4 	b	401164 <vTaskDelay+0xc>

00401190 <xTaskCatchUpTicks>:
  401190:	e92d4010 	push	{r4, lr}
  401194:	e1a04000 	mov	r4, r0
  401198:	ebfffeb5 	bl	400c74 <vTaskSuspendAll>
  40119c:	eb00045f 	bl	402320 <vPortEnterCritical>
  4011a0:	e59f2018 	ldr	r2, [pc, #24]	@ 4011c0 <xTaskCatchUpTicks+0x30>
  4011a4:	e5923100 	ldr	r3, [r2, #256]	@ 0x100
  4011a8:	e0830004 	add	r0, r3, r4
  4011ac:	e5820100 	str	r0, [r2, #256]	@ 0x100
  4011b0:	eb000465 	bl	40234c <vPortExitCritical>
  4011b4:	ebffff4f 	bl	400ef8 <xTaskResumeAll>
  4011b8:	e8bd4010 	pop	{r4, lr}
  4011bc:	e12fff1e 	bx	lr
  4011c0:	00405bf8 	strdeq	r5, [r0], #-184	@ 0xffffff48

004011c4 <vTaskSwitchContext>:
  4011c4:	e59f30b0 	ldr	r3, [pc, #176]	@ 40127c <vTaskSwitchContext+0xb8>
  4011c8:	e59330f0 	ldr	r3, [r3, #240]	@ 0xf0
  4011cc:	e3530000 	cmp	r3, #0
  4011d0:	0a000003 	beq	4011e4 <vTaskSwitchContext+0x20>
  4011d4:	e59f30a0 	ldr	r3, [pc, #160]	@ 40127c <vTaskSwitchContext+0xb8>
  4011d8:	e3a02001 	mov	r2, #1
  4011dc:	e58320f4 	str	r2, [r3, #244]	@ 0xf4
  4011e0:	e12fff1e 	bx	lr
  4011e4:	e59f2090 	ldr	r2, [pc, #144]	@ 40127c <vTaskSwitchContext+0xb8>
  4011e8:	e3a03000 	mov	r3, #0
  4011ec:	e58230f4 	str	r3, [r2, #244]	@ 0xf4
  4011f0:	e59230ec 	ldr	r3, [r2, #236]	@ 0xec
  4011f4:	e0831103 	add	r1, r3, r3, lsl #2
  4011f8:	e0822101 	add	r2, r2, r1, lsl #2
  4011fc:	e592204c 	ldr	r2, [r2, #76]	@ 0x4c
  401200:	e3520000 	cmp	r2, #0
  401204:	1a000005 	bne	401220 <vTaskSwitchContext+0x5c>
  401208:	e59f2070 	ldr	r2, [pc, #112]	@ 401280 <vTaskSwitchContext+0xbc>
  40120c:	e0822101 	add	r2, r2, r1, lsl #2
  401210:	e2433001 	sub	r3, r3, #1
  401214:	e5321014 	ldr	r1, [r2, #-20]!	@ 0xffffffec
  401218:	e3510000 	cmp	r1, #0
  40121c:	0afffffb 	beq	401210 <vTaskSwitchContext+0x4c>
  401220:	e59f2054 	ldr	r2, [pc, #84]	@ 40127c <vTaskSwitchContext+0xb8>
  401224:	e0831103 	add	r1, r3, r3, lsl #2
  401228:	e0821101 	add	r1, r2, r1, lsl #2
  40122c:	e5910050 	ldr	r0, [r1, #80]	@ 0x50
  401230:	e5900004 	ldr	r0, [r0, #4]
  401234:	e5810050 	str	r0, [r1, #80]	@ 0x50
  401238:	e0831103 	add	r1, r3, r3, lsl #2
  40123c:	e0822101 	add	r2, r2, r1, lsl #2
  401240:	e2822054 	add	r2, r2, #84	@ 0x54
  401244:	e1500002 	cmp	r0, r2
  401248:	059f202c 	ldreq	r2, [pc, #44]	@ 40127c <vTaskSwitchContext+0xb8>
  40124c:	00822101 	addeq	r2, r2, r1, lsl #2
  401250:	05921058 	ldreq	r1, [r2, #88]	@ 0x58
  401254:	05821050 	streq	r1, [r2, #80]	@ 0x50
  401258:	e59f201c 	ldr	r2, [pc, #28]	@ 40127c <vTaskSwitchContext+0xb8>
  40125c:	e0831103 	add	r1, r3, r3, lsl #2
  401260:	e0821101 	add	r1, r2, r1, lsl #2
  401264:	e5911050 	ldr	r1, [r1, #80]	@ 0x50
  401268:	e591100c 	ldr	r1, [r1, #12]
  40126c:	e58210b8 	str	r1, [r2, #184]	@ 0xb8
  401270:	e58230ec 	str	r3, [r2, #236]	@ 0xec
  401274:	e59230b8 	ldr	r3, [r2, #184]	@ 0xb8
  401278:	e12fff1e 	bx	lr
  40127c:	00405bf8 	strdeq	r5, [r0], #-184	@ 0xffffff48
  401280:	00405c44 	subeq	r5, r0, r4, asr #24

00401284 <vTaskSuspend>:
  401284:	e92d4070 	push	{r4, r5, r6, lr}
  401288:	e1a04000 	mov	r4, r0
  40128c:	eb000423 	bl	402320 <vPortEnterCritical>
  401290:	e3540000 	cmp	r4, #0
  401294:	059f30b4 	ldreq	r3, [pc, #180]	@ 401350 <vTaskSuspend+0xcc>
  401298:	059340b8 	ldreq	r4, [r3, #184]	@ 0xb8
  40129c:	e2845004 	add	r5, r4, #4
  4012a0:	e1a00005 	mov	r0, r5
  4012a4:	eb000469 	bl	402450 <uxListRemove>
  4012a8:	e5943028 	ldr	r3, [r4, #40]	@ 0x28
  4012ac:	e3530000 	cmp	r3, #0
  4012b0:	12840018 	addne	r0, r4, #24
  4012b4:	1b000465 	blne	402450 <uxListRemove>
  4012b8:	e1a01005 	mov	r1, r5
  4012bc:	e59f008c 	ldr	r0, [pc, #140]	@ 401350 <vTaskSuspend+0xcc>
  4012c0:	eb000441 	bl	4023cc <vListInsertEnd>
  4012c4:	e5d43048 	ldrb	r3, [r4, #72]	@ 0x48
  4012c8:	e3530001 	cmp	r3, #1
  4012cc:	03a03000 	moveq	r3, #0
  4012d0:	05c43048 	strbeq	r3, [r4, #72]	@ 0x48
  4012d4:	eb00041c 	bl	40234c <vPortExitCritical>
  4012d8:	e59f3070 	ldr	r3, [pc, #112]	@ 401350 <vTaskSuspend+0xcc>
  4012dc:	e59330e4 	ldr	r3, [r3, #228]	@ 0xe4
  4012e0:	e3530000 	cmp	r3, #0
  4012e4:	1a000005 	bne	401300 <vTaskSuspend+0x7c>
  4012e8:	e59f3060 	ldr	r3, [pc, #96]	@ 401350 <vTaskSuspend+0xcc>
  4012ec:	e59330b8 	ldr	r3, [r3, #184]	@ 0xb8
  4012f0:	e1530004 	cmp	r3, r4
  4012f4:	0a000005 	beq	401310 <vTaskSuspend+0x8c>
  4012f8:	e8bd4070 	pop	{r4, r5, r6, lr}
  4012fc:	e12fff1e 	bx	lr
  401300:	eb000406 	bl	402320 <vPortEnterCritical>
  401304:	ebfffc1a 	bl	400374 <prvResetNextTaskUnblockTime>
  401308:	eb00040f 	bl	40234c <vPortExitCritical>
  40130c:	eafffff5 	b	4012e8 <vTaskSuspend+0x64>
  401310:	e59f3038 	ldr	r3, [pc, #56]	@ 401350 <vTaskSuspend+0xcc>
  401314:	e59330e4 	ldr	r3, [r3, #228]	@ 0xe4
  401318:	e3530000 	cmp	r3, #0
  40131c:	0a000001 	beq	401328 <vTaskSuspend+0xa4>
  401320:	ef000000 	svc	0x00000000
  401324:	eafffff3 	b	4012f8 <vTaskSuspend+0x74>
  401328:	e59f3020 	ldr	r3, [pc, #32]	@ 401350 <vTaskSuspend+0xcc>
  40132c:	e5932048 	ldr	r2, [r3, #72]	@ 0x48
  401330:	e5933000 	ldr	r3, [r3]
  401334:	e1520003 	cmp	r2, r3
  401338:	059f3010 	ldreq	r3, [pc, #16]	@ 401350 <vTaskSuspend+0xcc>
  40133c:	03a02000 	moveq	r2, #0
  401340:	058320b8 	streq	r2, [r3, #184]	@ 0xb8
  401344:	0affffeb 	beq	4012f8 <vTaskSuspend+0x74>
  401348:	ebffff9d 	bl	4011c4 <vTaskSwitchContext>
  40134c:	eaffffe9 	b	4012f8 <vTaskSuspend+0x74>
  401350:	00405bf8 	strdeq	r5, [r0], #-184	@ 0xffffff48

00401354 <vTaskPlaceOnEventList>:
  401354:	e92d4010 	push	{r4, lr}
  401358:	e1a04001 	mov	r4, r1
  40135c:	e59f301c 	ldr	r3, [pc, #28]	@ 401380 <vTaskPlaceOnEventList+0x2c>
  401360:	e59310b8 	ldr	r1, [r3, #184]	@ 0xb8
  401364:	e2811018 	add	r1, r1, #24
  401368:	eb000422 	bl	4023f8 <vListInsert>
  40136c:	e3a01001 	mov	r1, #1
  401370:	e1a00004 	mov	r0, r4
  401374:	ebfffc2f 	bl	400438 <prvAddCurrentTaskToDelayedList>
  401378:	e8bd4010 	pop	{r4, lr}
  40137c:	e12fff1e 	bx	lr
  401380:	00405bf8 	strdeq	r5, [r0], #-184	@ 0xffffff48

00401384 <vTaskPlaceOnUnorderedEventList>:
  401384:	e92d4010 	push	{r4, lr}
  401388:	e1a03000 	mov	r3, r0
  40138c:	e59fc060 	ldr	ip, [pc, #96]	@ 4013f4 <vTaskPlaceOnUnorderedEventList+0x70>
  401390:	e59c00b8 	ldr	r0, [ip, #184]	@ 0xb8
  401394:	e3811102 	orr	r1, r1, #-2147483648	@ 0x80000000
  401398:	e5801018 	str	r1, [r0, #24]
  40139c:	e5931004 	ldr	r1, [r3, #4]
  4013a0:	e59c00b8 	ldr	r0, [ip, #184]	@ 0xb8
  4013a4:	e580101c 	str	r1, [r0, #28]
  4013a8:	e59c00b8 	ldr	r0, [ip, #184]	@ 0xb8
  4013ac:	e5914008 	ldr	r4, [r1, #8]
  4013b0:	e5804020 	str	r4, [r0, #32]
  4013b4:	e59ce0b8 	ldr	lr, [ip, #184]	@ 0xb8
  4013b8:	e28ee018 	add	lr, lr, #24
  4013bc:	e584e004 	str	lr, [r4, #4]
  4013c0:	e59ce0b8 	ldr	lr, [ip, #184]	@ 0xb8
  4013c4:	e28ee018 	add	lr, lr, #24
  4013c8:	e581e008 	str	lr, [r1, #8]
  4013cc:	e59c10b8 	ldr	r1, [ip, #184]	@ 0xb8
  4013d0:	e5813028 	str	r3, [r1, #40]	@ 0x28
  4013d4:	e5931000 	ldr	r1, [r3]
  4013d8:	e2811001 	add	r1, r1, #1
  4013dc:	e5831000 	str	r1, [r3]
  4013e0:	e3a01001 	mov	r1, #1
  4013e4:	e1a00002 	mov	r0, r2
  4013e8:	ebfffc12 	bl	400438 <prvAddCurrentTaskToDelayedList>
  4013ec:	e8bd4010 	pop	{r4, lr}
  4013f0:	e12fff1e 	bx	lr
  4013f4:	00405bf8 	strdeq	r5, [r0], #-184	@ 0xffffff48

004013f8 <xTaskRemoveFromEventList>:
  4013f8:	e590300c 	ldr	r3, [r0, #12]
  4013fc:	e593300c 	ldr	r3, [r3, #12]
  401400:	e5932028 	ldr	r2, [r3, #40]	@ 0x28
  401404:	e593001c 	ldr	r0, [r3, #28]
  401408:	e5931020 	ldr	r1, [r3, #32]
  40140c:	e5801008 	str	r1, [r0, #8]
  401410:	e593001c 	ldr	r0, [r3, #28]
  401414:	e5810004 	str	r0, [r1, #4]
  401418:	e2830018 	add	r0, r3, #24
  40141c:	e5921004 	ldr	r1, [r2, #4]
  401420:	e1510000 	cmp	r1, r0
  401424:	05931020 	ldreq	r1, [r3, #32]
  401428:	05821004 	streq	r1, [r2, #4]
  40142c:	e3a01000 	mov	r1, #0
  401430:	e5831028 	str	r1, [r3, #40]	@ 0x28
  401434:	e5921000 	ldr	r1, [r2]
  401438:	e2411001 	sub	r1, r1, #1
  40143c:	e5821000 	str	r1, [r2]
  401440:	e59f2104 	ldr	r2, [pc, #260]	@ 40154c <xTaskRemoveFromEventList+0x154>
  401444:	e59220f0 	ldr	r2, [r2, #240]	@ 0xf0
  401448:	e3520000 	cmp	r2, #0
  40144c:	1a000031 	bne	401518 <xTaskRemoveFromEventList+0x120>
  401450:	e5932014 	ldr	r2, [r3, #20]
  401454:	e5930008 	ldr	r0, [r3, #8]
  401458:	e593100c 	ldr	r1, [r3, #12]
  40145c:	e5801008 	str	r1, [r0, #8]
  401460:	e5930008 	ldr	r0, [r3, #8]
  401464:	e5810004 	str	r0, [r1, #4]
  401468:	e2830004 	add	r0, r3, #4
  40146c:	e5921004 	ldr	r1, [r2, #4]
  401470:	e1510000 	cmp	r1, r0
  401474:	0593100c 	ldreq	r1, [r3, #12]
  401478:	05821004 	streq	r1, [r2, #4]
  40147c:	e3a01000 	mov	r1, #0
  401480:	e5831014 	str	r1, [r3, #20]
  401484:	e5921000 	ldr	r1, [r2]
  401488:	e2411001 	sub	r1, r1, #1
  40148c:	e5821000 	str	r1, [r2]
  401490:	e593202c 	ldr	r2, [r3, #44]	@ 0x2c
  401494:	e59f10b0 	ldr	r1, [pc, #176]	@ 40154c <xTaskRemoveFromEventList+0x154>
  401498:	e59110ec 	ldr	r1, [r1, #236]	@ 0xec
  40149c:	e1520001 	cmp	r2, r1
  4014a0:	859f10a4 	ldrhi	r1, [pc, #164]	@ 40154c <xTaskRemoveFromEventList+0x154>
  4014a4:	858120ec 	strhi	r2, [r1, #236]	@ 0xec
  4014a8:	e59f109c 	ldr	r1, [pc, #156]	@ 40154c <xTaskRemoveFromEventList+0x154>
  4014ac:	e0822102 	add	r2, r2, r2, lsl #2
  4014b0:	e0812102 	add	r2, r1, r2, lsl #2
  4014b4:	e5922050 	ldr	r2, [r2, #80]	@ 0x50
  4014b8:	e5832008 	str	r2, [r3, #8]
  4014bc:	e592c008 	ldr	ip, [r2, #8]
  4014c0:	e583c00c 	str	ip, [r3, #12]
  4014c4:	e58c0004 	str	r0, [ip, #4]
  4014c8:	e5820008 	str	r0, [r2, #8]
  4014cc:	e593202c 	ldr	r2, [r3, #44]	@ 0x2c
  4014d0:	e281004c 	add	r0, r1, #76	@ 0x4c
  4014d4:	e082c102 	add	ip, r2, r2, lsl #2
  4014d8:	e080010c 	add	r0, r0, ip, lsl #2
  4014dc:	e5830014 	str	r0, [r3, #20]
  4014e0:	e081010c 	add	r0, r1, ip, lsl #2
  4014e4:	e590204c 	ldr	r2, [r0, #76]	@ 0x4c
  4014e8:	e2822001 	add	r2, r2, #1
  4014ec:	e580204c 	str	r2, [r0, #76]	@ 0x4c
  4014f0:	e59f2054 	ldr	r2, [pc, #84]	@ 40154c <xTaskRemoveFromEventList+0x154>
  4014f4:	e59210b8 	ldr	r1, [r2, #184]	@ 0xb8
  4014f8:	e593202c 	ldr	r2, [r3, #44]	@ 0x2c
  4014fc:	e591302c 	ldr	r3, [r1, #44]	@ 0x2c
  401500:	e1520003 	cmp	r2, r3
  401504:	83a00001 	movhi	r0, #1
  401508:	859f303c 	ldrhi	r3, [pc, #60]	@ 40154c <xTaskRemoveFromEventList+0x154>
  40150c:	858300f4 	strhi	r0, [r3, #244]	@ 0xf4
  401510:	93a00000 	movls	r0, #0
  401514:	e12fff1e 	bx	lr
  401518:	e59f202c 	ldr	r2, [pc, #44]	@ 40154c <xTaskRemoveFromEventList+0x154>
  40151c:	e5921018 	ldr	r1, [r2, #24]
  401520:	e583101c 	str	r1, [r3, #28]
  401524:	e591c008 	ldr	ip, [r1, #8]
  401528:	e583c020 	str	ip, [r3, #32]
  40152c:	e58c0004 	str	r0, [ip, #4]
  401530:	e5810008 	str	r0, [r1, #8]
  401534:	e2821014 	add	r1, r2, #20
  401538:	e5831028 	str	r1, [r3, #40]	@ 0x28
  40153c:	e5921014 	ldr	r1, [r2, #20]
  401540:	e2811001 	add	r1, r1, #1
  401544:	e5821014 	str	r1, [r2, #20]
  401548:	eaffffe8 	b	4014f0 <xTaskRemoveFromEventList+0xf8>
  40154c:	00405bf8 	strdeq	r5, [r0], #-184	@ 0xffffff48

00401550 <vTaskRemoveFromUnorderedEventList>:
  401550:	e3811102 	orr	r1, r1, #-2147483648	@ 0x80000000
  401554:	e5801000 	str	r1, [r0]
  401558:	e590300c 	ldr	r3, [r0, #12]
  40155c:	e5902010 	ldr	r2, [r0, #16]
  401560:	e590c004 	ldr	ip, [r0, #4]
  401564:	e5901008 	ldr	r1, [r0, #8]
  401568:	e58c1008 	str	r1, [ip, #8]
  40156c:	e590c004 	ldr	ip, [r0, #4]
  401570:	e581c004 	str	ip, [r1, #4]
  401574:	e5921004 	ldr	r1, [r2, #4]
  401578:	e1510000 	cmp	r1, r0
  40157c:	05901008 	ldreq	r1, [r0, #8]
  401580:	05821004 	streq	r1, [r2, #4]
  401584:	e3a01000 	mov	r1, #0
  401588:	e5801010 	str	r1, [r0, #16]
  40158c:	e5921000 	ldr	r1, [r2]
  401590:	e2411001 	sub	r1, r1, #1
  401594:	e5821000 	str	r1, [r2]
  401598:	e5932014 	ldr	r2, [r3, #20]
  40159c:	e5930008 	ldr	r0, [r3, #8]
  4015a0:	e593100c 	ldr	r1, [r3, #12]
  4015a4:	e5801008 	str	r1, [r0, #8]
  4015a8:	e5930008 	ldr	r0, [r3, #8]
  4015ac:	e5810004 	str	r0, [r1, #4]
  4015b0:	e2830004 	add	r0, r3, #4
  4015b4:	e5921004 	ldr	r1, [r2, #4]
  4015b8:	e1510000 	cmp	r1, r0
  4015bc:	0593100c 	ldreq	r1, [r3, #12]
  4015c0:	05821004 	streq	r1, [r2, #4]
  4015c4:	e3a01000 	mov	r1, #0
  4015c8:	e5831014 	str	r1, [r3, #20]
  4015cc:	e5921000 	ldr	r1, [r2]
  4015d0:	e2411001 	sub	r1, r1, #1
  4015d4:	e5821000 	str	r1, [r2]
  4015d8:	e593202c 	ldr	r2, [r3, #44]	@ 0x2c
  4015dc:	e59f1074 	ldr	r1, [pc, #116]	@ 401658 <vTaskRemoveFromUnorderedEventList+0x108>
  4015e0:	e59110ec 	ldr	r1, [r1, #236]	@ 0xec
  4015e4:	e1520001 	cmp	r2, r1
  4015e8:	859f1068 	ldrhi	r1, [pc, #104]	@ 401658 <vTaskRemoveFromUnorderedEventList+0x108>
  4015ec:	858120ec 	strhi	r2, [r1, #236]	@ 0xec
  4015f0:	e59f1060 	ldr	r1, [pc, #96]	@ 401658 <vTaskRemoveFromUnorderedEventList+0x108>
  4015f4:	e0822102 	add	r2, r2, r2, lsl #2
  4015f8:	e0812102 	add	r2, r1, r2, lsl #2
  4015fc:	e5922050 	ldr	r2, [r2, #80]	@ 0x50
  401600:	e5832008 	str	r2, [r3, #8]
  401604:	e592c008 	ldr	ip, [r2, #8]
  401608:	e583c00c 	str	ip, [r3, #12]
  40160c:	e58c0004 	str	r0, [ip, #4]
  401610:	e5820008 	str	r0, [r2, #8]
  401614:	e593202c 	ldr	r2, [r3, #44]	@ 0x2c
  401618:	e281004c 	add	r0, r1, #76	@ 0x4c
  40161c:	e082c102 	add	ip, r2, r2, lsl #2
  401620:	e080010c 	add	r0, r0, ip, lsl #2
  401624:	e5830014 	str	r0, [r3, #20]
  401628:	e081010c 	add	r0, r1, ip, lsl #2
  40162c:	e590204c 	ldr	r2, [r0, #76]	@ 0x4c
  401630:	e2822001 	add	r2, r2, #1
  401634:	e580204c 	str	r2, [r0, #76]	@ 0x4c
  401638:	e59110b8 	ldr	r1, [r1, #184]	@ 0xb8
  40163c:	e593202c 	ldr	r2, [r3, #44]	@ 0x2c
  401640:	e591302c 	ldr	r3, [r1, #44]	@ 0x2c
  401644:	e1520003 	cmp	r2, r3
  401648:	859f3008 	ldrhi	r3, [pc, #8]	@ 401658 <vTaskRemoveFromUnorderedEventList+0x108>
  40164c:	83a02001 	movhi	r2, #1
  401650:	858320f4 	strhi	r2, [r3, #244]	@ 0xf4
  401654:	e12fff1e 	bx	lr
  401658:	00405bf8 	strdeq	r5, [r0], #-184	@ 0xffffff48

0040165c <vTaskSetTimeOutState>:
  40165c:	e92d4010 	push	{r4, lr}
  401660:	e1a04000 	mov	r4, r0
  401664:	eb00032d 	bl	402320 <vPortEnterCritical>
  401668:	e59f3018 	ldr	r3, [pc, #24]	@ 401688 <vTaskSetTimeOutState+0x2c>
  40166c:	e59320fc 	ldr	r2, [r3, #252]	@ 0xfc
  401670:	e5842000 	str	r2, [r4]
  401674:	e59330b0 	ldr	r3, [r3, #176]	@ 0xb0
  401678:	e5843004 	str	r3, [r4, #4]
  40167c:	eb000332 	bl	40234c <vPortExitCritical>
  401680:	e8bd4010 	pop	{r4, lr}
  401684:	e12fff1e 	bx	lr
  401688:	00405bf8 	strdeq	r5, [r0], #-184	@ 0xffffff48

0040168c <vTaskInternalSetTimeOutState>:
  40168c:	e59f3010 	ldr	r3, [pc, #16]	@ 4016a4 <vTaskInternalSetTimeOutState+0x18>
  401690:	e59320fc 	ldr	r2, [r3, #252]	@ 0xfc
  401694:	e5802000 	str	r2, [r0]
  401698:	e59330b0 	ldr	r3, [r3, #176]	@ 0xb0
  40169c:	e5803004 	str	r3, [r0, #4]
  4016a0:	e12fff1e 	bx	lr
  4016a4:	00405bf8 	strdeq	r5, [r0], #-184	@ 0xffffff48

004016a8 <xTaskCheckForTimeOut>:
  4016a8:	e92d4070 	push	{r4, r5, r6, lr}
  4016ac:	e1a05000 	mov	r5, r0
  4016b0:	e1a04001 	mov	r4, r1
  4016b4:	eb000319 	bl	402320 <vPortEnterCritical>
  4016b8:	e59f3088 	ldr	r3, [pc, #136]	@ 401748 <xTaskCheckForTimeOut+0xa0>
  4016bc:	e59310b0 	ldr	r1, [r3, #176]	@ 0xb0
  4016c0:	e5943000 	ldr	r3, [r4]
  4016c4:	e3730001 	cmn	r3, #1
  4016c8:	03a04000 	moveq	r4, #0
  4016cc:	0a000012 	beq	40171c <xTaskCheckForTimeOut+0x74>
  4016d0:	e5950004 	ldr	r0, [r5, #4]
  4016d4:	e59f206c 	ldr	r2, [pc, #108]	@ 401748 <xTaskCheckForTimeOut+0xa0>
  4016d8:	e592c0fc 	ldr	ip, [r2, #252]	@ 0xfc
  4016dc:	e5952000 	ldr	r2, [r5]
  4016e0:	e052200c 	subs	r2, r2, ip
  4016e4:	13a02001 	movne	r2, #1
  4016e8:	e1500001 	cmp	r0, r1
  4016ec:	83a02000 	movhi	r2, #0
  4016f0:	e3520000 	cmp	r2, #0
  4016f4:	13a03000 	movne	r3, #0
  4016f8:	15843000 	strne	r3, [r4]
  4016fc:	13a04001 	movne	r4, #1
  401700:	1a000005 	bne	40171c <xTaskCheckForTimeOut+0x74>
  401704:	e0412000 	sub	r2, r1, r0
  401708:	e1530002 	cmp	r3, r2
  40170c:	93a03000 	movls	r3, #0
  401710:	95843000 	strls	r3, [r4]
  401714:	93a04001 	movls	r4, #1
  401718:	8a000003 	bhi	40172c <xTaskCheckForTimeOut+0x84>
  40171c:	eb00030a 	bl	40234c <vPortExitCritical>
  401720:	e1a00004 	mov	r0, r4
  401724:	e8bd4070 	pop	{r4, r5, r6, lr}
  401728:	e12fff1e 	bx	lr
  40172c:	e0433001 	sub	r3, r3, r1
  401730:	e0833000 	add	r3, r3, r0
  401734:	e5843000 	str	r3, [r4]
  401738:	e1a00005 	mov	r0, r5
  40173c:	ebffffd2 	bl	40168c <vTaskInternalSetTimeOutState>
  401740:	e3a04000 	mov	r4, #0
  401744:	eafffff4 	b	40171c <xTaskCheckForTimeOut+0x74>
  401748:	00405bf8 	strdeq	r5, [r0], #-184	@ 0xffffff48

0040174c <vTaskMissedYield>:
  40174c:	e59f3008 	ldr	r3, [pc, #8]	@ 40175c <vTaskMissedYield+0x10>
  401750:	e3a02001 	mov	r2, #1
  401754:	e58320f4 	str	r2, [r3, #244]	@ 0xf4
  401758:	e12fff1e 	bx	lr
  40175c:	00405bf8 	strdeq	r5, [r0], #-184	@ 0xffffff48

00401760 <xTaskGetCurrentTaskHandle>:
  401760:	e59f3004 	ldr	r3, [pc, #4]	@ 40176c <xTaskGetCurrentTaskHandle+0xc>
  401764:	e59300b8 	ldr	r0, [r3, #184]	@ 0xb8
  401768:	e12fff1e 	bx	lr
  40176c:	00405bf8 	strdeq	r5, [r0], #-184	@ 0xffffff48

00401770 <xTaskGetCurrentTaskHandleForCore>:
  401770:	e3500000 	cmp	r0, #0
  401774:	059f3008 	ldreq	r3, [pc, #8]	@ 401784 <xTaskGetCurrentTaskHandleForCore+0x14>
  401778:	059300b8 	ldreq	r0, [r3, #184]	@ 0xb8
  40177c:	13a00000 	movne	r0, #0
  401780:	e12fff1e 	bx	lr
  401784:	00405bf8 	strdeq	r5, [r0], #-184	@ 0xffffff48

00401788 <uxTaskResetEventItemValue>:
  401788:	e59f301c 	ldr	r3, [pc, #28]	@ 4017ac <uxTaskResetEventItemValue+0x24>
  40178c:	e59320b8 	ldr	r2, [r3, #184]	@ 0xb8
  401790:	e5920018 	ldr	r0, [r2, #24]
  401794:	e59310b8 	ldr	r1, [r3, #184]	@ 0xb8
  401798:	e59320b8 	ldr	r2, [r3, #184]	@ 0xb8
  40179c:	e591302c 	ldr	r3, [r1, #44]	@ 0x2c
  4017a0:	e2633005 	rsb	r3, r3, #5
  4017a4:	e5823018 	str	r3, [r2, #24]
  4017a8:	e12fff1e 	bx	lr
  4017ac:	00405bf8 	strdeq	r5, [r0], #-184	@ 0xffffff48

004017b0 <ulTaskGenericNotifyTake>:
  4017b0:	e92d4070 	push	{r4, r5, r6, lr}
  4017b4:	e1a04000 	mov	r4, r0
  4017b8:	e1a06001 	mov	r6, r1
  4017bc:	e1a05002 	mov	r5, r2
  4017c0:	ebfffd2b 	bl	400c74 <vTaskSuspendAll>
  4017c4:	eb0002d5 	bl	402320 <vPortEnterCritical>
  4017c8:	e59f30cc 	ldr	r3, [pc, #204]	@ 40189c <ulTaskGenericNotifyTake+0xec>
  4017cc:	e59330b8 	ldr	r3, [r3, #184]	@ 0xb8
  4017d0:	e2842010 	add	r2, r4, #16
  4017d4:	e0833102 	add	r3, r3, r2, lsl #2
  4017d8:	e5933004 	ldr	r3, [r3, #4]
  4017dc:	e3530000 	cmp	r3, #0
  4017e0:	1a000009 	bne	40180c <ulTaskGenericNotifyTake+0x5c>
  4017e4:	e59f30b0 	ldr	r3, [pc, #176]	@ 40189c <ulTaskGenericNotifyTake+0xec>
  4017e8:	e59330b8 	ldr	r3, [r3, #184]	@ 0xb8
  4017ec:	e0833004 	add	r3, r3, r4
  4017f0:	e3a02001 	mov	r2, #1
  4017f4:	e5c32048 	strb	r2, [r3, #72]	@ 0x48
  4017f8:	e3550000 	cmp	r5, #0
  4017fc:	1a000004 	bne	401814 <ulTaskGenericNotifyTake+0x64>
  401800:	eb0002d1 	bl	40234c <vPortExitCritical>
  401804:	ebfffdbb 	bl	400ef8 <xTaskResumeAll>
  401808:	ea000009 	b	401834 <ulTaskGenericNotifyTake+0x84>
  40180c:	eb0002ce 	bl	40234c <vPortExitCritical>
  401810:	eafffffb 	b	401804 <ulTaskGenericNotifyTake+0x54>
  401814:	eb0002cc 	bl	40234c <vPortExitCritical>
  401818:	e3a01001 	mov	r1, #1
  40181c:	e1a00005 	mov	r0, r5
  401820:	ebfffb04 	bl	400438 <prvAddCurrentTaskToDelayedList>
  401824:	ebfffdb3 	bl	400ef8 <xTaskResumeAll>
  401828:	e3500000 	cmp	r0, #0
  40182c:	1a000000 	bne	401834 <ulTaskGenericNotifyTake+0x84>
  401830:	ef000000 	svc	0x00000000
  401834:	eb0002b9 	bl	402320 <vPortEnterCritical>
  401838:	e59f305c 	ldr	r3, [pc, #92]	@ 40189c <ulTaskGenericNotifyTake+0xec>
  40183c:	e59330b8 	ldr	r3, [r3, #184]	@ 0xb8
  401840:	e2842010 	add	r2, r4, #16
  401844:	e0833102 	add	r3, r3, r2, lsl #2
  401848:	e5935004 	ldr	r5, [r3, #4]
  40184c:	e3550000 	cmp	r5, #0
  401850:	0a000008 	beq	401878 <ulTaskGenericNotifyTake+0xc8>
  401854:	e3560000 	cmp	r6, #0
  401858:	e59f303c 	ldr	r3, [pc, #60]	@ 40189c <ulTaskGenericNotifyTake+0xec>
  40185c:	e59330b8 	ldr	r3, [r3, #184]	@ 0xb8
  401860:	10833102 	addne	r3, r3, r2, lsl #2
  401864:	13a02000 	movne	r2, #0
  401868:	02452001 	subeq	r2, r5, #1
  40186c:	02841010 	addeq	r1, r4, #16
  401870:	00833101 	addeq	r3, r3, r1, lsl #2
  401874:	e5832004 	str	r2, [r3, #4]
  401878:	e59f301c 	ldr	r3, [pc, #28]	@ 40189c <ulTaskGenericNotifyTake+0xec>
  40187c:	e59330b8 	ldr	r3, [r3, #184]	@ 0xb8
  401880:	e0833004 	add	r3, r3, r4
  401884:	e3a02000 	mov	r2, #0
  401888:	e5c32048 	strb	r2, [r3, #72]	@ 0x48
  40188c:	eb0002ae 	bl	40234c <vPortExitCritical>
  401890:	e1a00005 	mov	r0, r5
  401894:	e8bd4070 	pop	{r4, r5, r6, lr}
  401898:	e12fff1e 	bx	lr
  40189c:	00405bf8 	strdeq	r5, [r0], #-184	@ 0xffffff48

004018a0 <xTaskGenericNotifyWait>:
  4018a0:	e92d41f0 	push	{r4, r5, r6, r7, r8, lr}
  4018a4:	e1a04000 	mov	r4, r0
  4018a8:	e1a07001 	mov	r7, r1
  4018ac:	e1a06002 	mov	r6, r2
  4018b0:	e1a05003 	mov	r5, r3
  4018b4:	e59d8018 	ldr	r8, [sp, #24]
  4018b8:	ebfffced 	bl	400c74 <vTaskSuspendAll>
  4018bc:	eb000297 	bl	402320 <vPortEnterCritical>
  4018c0:	e59f30f0 	ldr	r3, [pc, #240]	@ 4019b8 <xTaskGenericNotifyWait+0x118>
  4018c4:	e59330b8 	ldr	r3, [r3, #184]	@ 0xb8
  4018c8:	e0833004 	add	r3, r3, r4
  4018cc:	e5d33048 	ldrb	r3, [r3, #72]	@ 0x48
  4018d0:	e3530002 	cmp	r3, #2
  4018d4:	0a00000e 	beq	401914 <xTaskGenericNotifyWait+0x74>
  4018d8:	e59f10d8 	ldr	r1, [pc, #216]	@ 4019b8 <xTaskGenericNotifyWait+0x118>
  4018dc:	e59130b8 	ldr	r3, [r1, #184]	@ 0xb8
  4018e0:	e0833104 	add	r3, r3, r4, lsl #2
  4018e4:	e5932044 	ldr	r2, [r3, #68]	@ 0x44
  4018e8:	e1c22007 	bic	r2, r2, r7
  4018ec:	e5832044 	str	r2, [r3, #68]	@ 0x44
  4018f0:	e59130b8 	ldr	r3, [r1, #184]	@ 0xb8
  4018f4:	e0833004 	add	r3, r3, r4
  4018f8:	e3a02001 	mov	r2, #1
  4018fc:	e5c32048 	strb	r2, [r3, #72]	@ 0x48
  401900:	e3580000 	cmp	r8, #0
  401904:	1a000004 	bne	40191c <xTaskGenericNotifyWait+0x7c>
  401908:	eb00028f 	bl	40234c <vPortExitCritical>
  40190c:	ebfffd79 	bl	400ef8 <xTaskResumeAll>
  401910:	ea000009 	b	40193c <xTaskGenericNotifyWait+0x9c>
  401914:	eb00028c 	bl	40234c <vPortExitCritical>
  401918:	eafffffb 	b	40190c <xTaskGenericNotifyWait+0x6c>
  40191c:	eb00028a 	bl	40234c <vPortExitCritical>
  401920:	e3a01001 	mov	r1, #1
  401924:	e1a00008 	mov	r0, r8
  401928:	ebfffac2 	bl	400438 <prvAddCurrentTaskToDelayedList>
  40192c:	ebfffd71 	bl	400ef8 <xTaskResumeAll>
  401930:	e3500000 	cmp	r0, #0
  401934:	1a000000 	bne	40193c <xTaskGenericNotifyWait+0x9c>
  401938:	ef000000 	svc	0x00000000
  40193c:	eb000277 	bl	402320 <vPortEnterCritical>
  401940:	e3550000 	cmp	r5, #0
  401944:	0a000005 	beq	401960 <xTaskGenericNotifyWait+0xc0>
  401948:	e59f3068 	ldr	r3, [pc, #104]	@ 4019b8 <xTaskGenericNotifyWait+0x118>
  40194c:	e59330b8 	ldr	r3, [r3, #184]	@ 0xb8
  401950:	e2842010 	add	r2, r4, #16
  401954:	e0833102 	add	r3, r3, r2, lsl #2
  401958:	e5933004 	ldr	r3, [r3, #4]
  40195c:	e5853000 	str	r3, [r5]
  401960:	e59f3050 	ldr	r3, [pc, #80]	@ 4019b8 <xTaskGenericNotifyWait+0x118>
  401964:	e59330b8 	ldr	r3, [r3, #184]	@ 0xb8
  401968:	e0833004 	add	r3, r3, r4
  40196c:	e5d33048 	ldrb	r3, [r3, #72]	@ 0x48
  401970:	e3530002 	cmp	r3, #2
  401974:	059f303c 	ldreq	r3, [pc, #60]	@ 4019b8 <xTaskGenericNotifyWait+0x118>
  401978:	059330b8 	ldreq	r3, [r3, #184]	@ 0xb8
  40197c:	00833104 	addeq	r3, r3, r4, lsl #2
  401980:	05932044 	ldreq	r2, [r3, #68]	@ 0x44
  401984:	01c22006 	biceq	r2, r2, r6
  401988:	05832044 	streq	r2, [r3, #68]	@ 0x44
  40198c:	03a05001 	moveq	r5, #1
  401990:	13a05000 	movne	r5, #0
  401994:	e59f301c 	ldr	r3, [pc, #28]	@ 4019b8 <xTaskGenericNotifyWait+0x118>
  401998:	e59330b8 	ldr	r3, [r3, #184]	@ 0xb8
  40199c:	e0833004 	add	r3, r3, r4
  4019a0:	e3a02000 	mov	r2, #0
  4019a4:	e5c32048 	strb	r2, [r3, #72]	@ 0x48
  4019a8:	eb000267 	bl	40234c <vPortExitCritical>
  4019ac:	e1a00005 	mov	r0, r5
  4019b0:	e8bd41f0 	pop	{r4, r5, r6, r7, r8, lr}
  4019b4:	e12fff1e 	bx	lr
  4019b8:	00405bf8 	strdeq	r5, [r0], #-184	@ 0xffffff48

004019bc <xTaskGenericNotify>:
  4019bc:	e92d41f0 	push	{r4, r5, r6, r7, r8, lr}
  4019c0:	e1a04000 	mov	r4, r0
  4019c4:	e1a05001 	mov	r5, r1
  4019c8:	e1a07002 	mov	r7, r2
  4019cc:	e1a06003 	mov	r6, r3
  4019d0:	e59d8018 	ldr	r8, [sp, #24]
  4019d4:	eb000251 	bl	402320 <vPortEnterCritical>
  4019d8:	e3580000 	cmp	r8, #0
  4019dc:	12853010 	addne	r3, r5, #16
  4019e0:	10843103 	addne	r3, r4, r3, lsl #2
  4019e4:	15933004 	ldrne	r3, [r3, #4]
  4019e8:	15883000 	strne	r3, [r8]
  4019ec:	e0843005 	add	r3, r4, r5
  4019f0:	e5d31048 	ldrb	r1, [r3, #72]	@ 0x48
  4019f4:	e20110ff 	and	r1, r1, #255	@ 0xff
  4019f8:	e3a02002 	mov	r2, #2
  4019fc:	e5c32048 	strb	r2, [r3, #72]	@ 0x48
  401a00:	e2463001 	sub	r3, r6, #1
  401a04:	e3530003 	cmp	r3, #3
  401a08:	979ff103 	ldrls	pc, [pc, r3, lsl #2]
  401a0c:	ea000007 	b	401a30 <xTaskGenericNotify+0x74>
  401a10:	00401a20 	subeq	r1, r0, r0, lsr #20
  401a14:	00401a4c 	subeq	r1, r0, ip, asr #20
  401a18:	00401a60 	subeq	r1, r0, r0, ror #20
  401a1c:	00401a70 	subeq	r1, r0, r0, ror sl
  401a20:	e0845105 	add	r5, r4, r5, lsl #2
  401a24:	e5953044 	ldr	r3, [r5, #68]	@ 0x44
  401a28:	e1833007 	orr	r3, r3, r7
  401a2c:	e5853044 	str	r3, [r5, #68]	@ 0x44
  401a30:	e3510001 	cmp	r1, #1
  401a34:	13a04001 	movne	r4, #1
  401a38:	0a000013 	beq	401a8c <xTaskGenericNotify+0xd0>
  401a3c:	eb000242 	bl	40234c <vPortExitCritical>
  401a40:	e1a00004 	mov	r0, r4
  401a44:	e8bd41f0 	pop	{r4, r5, r6, r7, r8, lr}
  401a48:	e12fff1e 	bx	lr
  401a4c:	e0845105 	add	r5, r4, r5, lsl #2
  401a50:	e5953044 	ldr	r3, [r5, #68]	@ 0x44
  401a54:	e2833001 	add	r3, r3, #1
  401a58:	e5853044 	str	r3, [r5, #68]	@ 0x44
  401a5c:	eafffff3 	b	401a30 <xTaskGenericNotify+0x74>
  401a60:	e2855010 	add	r5, r5, #16
  401a64:	e0845105 	add	r5, r4, r5, lsl #2
  401a68:	e5857004 	str	r7, [r5, #4]
  401a6c:	eaffffef 	b	401a30 <xTaskGenericNotify+0x74>
  401a70:	e3510002 	cmp	r1, #2
  401a74:	03a04000 	moveq	r4, #0
  401a78:	0affffef 	beq	401a3c <xTaskGenericNotify+0x80>
  401a7c:	e2855010 	add	r5, r5, #16
  401a80:	e0845105 	add	r5, r4, r5, lsl #2
  401a84:	e5857004 	str	r7, [r5, #4]
  401a88:	eaffffe8 	b	401a30 <xTaskGenericNotify+0x74>
  401a8c:	e5943014 	ldr	r3, [r4, #20]
  401a90:	e5941008 	ldr	r1, [r4, #8]
  401a94:	e594200c 	ldr	r2, [r4, #12]
  401a98:	e5812008 	str	r2, [r1, #8]
  401a9c:	e5941008 	ldr	r1, [r4, #8]
  401aa0:	e5821004 	str	r1, [r2, #4]
  401aa4:	e2841004 	add	r1, r4, #4
  401aa8:	e5932004 	ldr	r2, [r3, #4]
  401aac:	e1520001 	cmp	r2, r1
  401ab0:	0594200c 	ldreq	r2, [r4, #12]
  401ab4:	05832004 	streq	r2, [r3, #4]
  401ab8:	e3a02000 	mov	r2, #0
  401abc:	e5842014 	str	r2, [r4, #20]
  401ac0:	e5932000 	ldr	r2, [r3]
  401ac4:	e2422001 	sub	r2, r2, #1
  401ac8:	e5832000 	str	r2, [r3]
  401acc:	e594302c 	ldr	r3, [r4, #44]	@ 0x2c
  401ad0:	e59f2078 	ldr	r2, [pc, #120]	@ 401b50 <xTaskGenericNotify+0x194>
  401ad4:	e59220ec 	ldr	r2, [r2, #236]	@ 0xec
  401ad8:	e1530002 	cmp	r3, r2
  401adc:	859f206c 	ldrhi	r2, [pc, #108]	@ 401b50 <xTaskGenericNotify+0x194>
  401ae0:	858230ec 	strhi	r3, [r2, #236]	@ 0xec
  401ae4:	e59f2064 	ldr	r2, [pc, #100]	@ 401b50 <xTaskGenericNotify+0x194>
  401ae8:	e0833103 	add	r3, r3, r3, lsl #2
  401aec:	e0823103 	add	r3, r2, r3, lsl #2
  401af0:	e5933050 	ldr	r3, [r3, #80]	@ 0x50
  401af4:	e5843008 	str	r3, [r4, #8]
  401af8:	e5930008 	ldr	r0, [r3, #8]
  401afc:	e584000c 	str	r0, [r4, #12]
  401b00:	e5801004 	str	r1, [r0, #4]
  401b04:	e5831008 	str	r1, [r3, #8]
  401b08:	e594302c 	ldr	r3, [r4, #44]	@ 0x2c
  401b0c:	e282104c 	add	r1, r2, #76	@ 0x4c
  401b10:	e0830103 	add	r0, r3, r3, lsl #2
  401b14:	e0811100 	add	r1, r1, r0, lsl #2
  401b18:	e5841014 	str	r1, [r4, #20]
  401b1c:	e0821100 	add	r1, r2, r0, lsl #2
  401b20:	e591304c 	ldr	r3, [r1, #76]	@ 0x4c
  401b24:	e2833001 	add	r3, r3, #1
  401b28:	e581304c 	str	r3, [r1, #76]	@ 0x4c
  401b2c:	e59230b8 	ldr	r3, [r2, #184]	@ 0xb8
  401b30:	e593202c 	ldr	r2, [r3, #44]	@ 0x2c
  401b34:	e594302c 	ldr	r3, [r4, #44]	@ 0x2c
  401b38:	e1520003 	cmp	r2, r3
  401b3c:	23a04001 	movcs	r4, #1
  401b40:	2affffbd 	bcs	401a3c <xTaskGenericNotify+0x80>
  401b44:	ef000000 	svc	0x00000000
  401b48:	e3a04001 	mov	r4, #1
  401b4c:	eaffffba 	b	401a3c <xTaskGenericNotify+0x80>
  401b50:	00405bf8 	strdeq	r5, [r0], #-184	@ 0xffffff48

00401b54 <xTaskGenericNotifyFromISR>:
  401b54:	e92d4010 	push	{r4, lr}
  401b58:	e59de008 	ldr	lr, [sp, #8]
  401b5c:	e35e0000 	cmp	lr, #0
  401b60:	1281c010 	addne	ip, r1, #16
  401b64:	1080c10c 	addne	ip, r0, ip, lsl #2
  401b68:	159cc004 	ldrne	ip, [ip, #4]
  401b6c:	158ec000 	strne	ip, [lr]
  401b70:	e080e001 	add	lr, r0, r1
  401b74:	e5dec048 	ldrb	ip, [lr, #72]	@ 0x48
  401b78:	e20cc0ff 	and	ip, ip, #255	@ 0xff
  401b7c:	e3a04002 	mov	r4, #2
  401b80:	e5ce4048 	strb	r4, [lr, #72]	@ 0x48
  401b84:	e2433001 	sub	r3, r3, #1
  401b88:	e3530003 	cmp	r3, #3
  401b8c:	979ff103 	ldrls	pc, [pc, r3, lsl #2]
  401b90:	ea000007 	b	401bb4 <xTaskGenericNotifyFromISR+0x60>
  401b94:	00401ba4 	subeq	r1, r0, r4, lsr #23
  401b98:	00401bc8 	subeq	r1, r0, r8, asr #23
  401b9c:	00401bdc 	ldrdeq	r1, [r0], #-188	@ 0xffffff44
  401ba0:	00401bec 	subeq	r1, r0, ip, ror #23
  401ba4:	e0801101 	add	r1, r0, r1, lsl #2
  401ba8:	e5913044 	ldr	r3, [r1, #68]	@ 0x44
  401bac:	e1833002 	orr	r3, r3, r2
  401bb0:	e5813044 	str	r3, [r1, #68]	@ 0x44
  401bb4:	e35c0001 	cmp	ip, #1
  401bb8:	13a00001 	movne	r0, #1
  401bbc:	0a000011 	beq	401c08 <xTaskGenericNotifyFromISR+0xb4>
  401bc0:	e8bd4010 	pop	{r4, lr}
  401bc4:	e12fff1e 	bx	lr
  401bc8:	e0801101 	add	r1, r0, r1, lsl #2
  401bcc:	e5913044 	ldr	r3, [r1, #68]	@ 0x44
  401bd0:	e2833001 	add	r3, r3, #1
  401bd4:	e5813044 	str	r3, [r1, #68]	@ 0x44
  401bd8:	eafffff5 	b	401bb4 <xTaskGenericNotifyFromISR+0x60>
  401bdc:	e2811010 	add	r1, r1, #16
  401be0:	e0801101 	add	r1, r0, r1, lsl #2
  401be4:	e5812004 	str	r2, [r1, #4]
  401be8:	eafffff1 	b	401bb4 <xTaskGenericNotifyFromISR+0x60>
  401bec:	e35c0002 	cmp	ip, #2
  401bf0:	03a00000 	moveq	r0, #0
  401bf4:	0afffff1 	beq	401bc0 <xTaskGenericNotifyFromISR+0x6c>
  401bf8:	e2811010 	add	r1, r1, #16
  401bfc:	e0801101 	add	r1, r0, r1, lsl #2
  401c00:	e5812004 	str	r2, [r1, #4]
  401c04:	eaffffea 	b	401bb4 <xTaskGenericNotifyFromISR+0x60>
  401c08:	e59f3120 	ldr	r3, [pc, #288]	@ 401d30 <xTaskGenericNotifyFromISR+0x1dc>
  401c0c:	e59330f0 	ldr	r3, [r3, #240]	@ 0xf0
  401c10:	e3530000 	cmp	r3, #0
  401c14:	1a000037 	bne	401cf8 <xTaskGenericNotifyFromISR+0x1a4>
  401c18:	e5903014 	ldr	r3, [r0, #20]
  401c1c:	e5901008 	ldr	r1, [r0, #8]
  401c20:	e590200c 	ldr	r2, [r0, #12]
  401c24:	e5812008 	str	r2, [r1, #8]
  401c28:	e5901008 	ldr	r1, [r0, #8]
  401c2c:	e5821004 	str	r1, [r2, #4]
  401c30:	e2801004 	add	r1, r0, #4
  401c34:	e5932004 	ldr	r2, [r3, #4]
  401c38:	e1520001 	cmp	r2, r1
  401c3c:	0590200c 	ldreq	r2, [r0, #12]
  401c40:	05832004 	streq	r2, [r3, #4]
  401c44:	e3a02000 	mov	r2, #0
  401c48:	e5802014 	str	r2, [r0, #20]
  401c4c:	e5932000 	ldr	r2, [r3]
  401c50:	e2422001 	sub	r2, r2, #1
  401c54:	e5832000 	str	r2, [r3]
  401c58:	e590302c 	ldr	r3, [r0, #44]	@ 0x2c
  401c5c:	e59f20cc 	ldr	r2, [pc, #204]	@ 401d30 <xTaskGenericNotifyFromISR+0x1dc>
  401c60:	e59220ec 	ldr	r2, [r2, #236]	@ 0xec
  401c64:	e1530002 	cmp	r3, r2
  401c68:	859f20c0 	ldrhi	r2, [pc, #192]	@ 401d30 <xTaskGenericNotifyFromISR+0x1dc>
  401c6c:	858230ec 	strhi	r3, [r2, #236]	@ 0xec
  401c70:	e59f20b8 	ldr	r2, [pc, #184]	@ 401d30 <xTaskGenericNotifyFromISR+0x1dc>
  401c74:	e0833103 	add	r3, r3, r3, lsl #2
  401c78:	e0823103 	add	r3, r2, r3, lsl #2
  401c7c:	e5933050 	ldr	r3, [r3, #80]	@ 0x50
  401c80:	e5803008 	str	r3, [r0, #8]
  401c84:	e593c008 	ldr	ip, [r3, #8]
  401c88:	e580c00c 	str	ip, [r0, #12]
  401c8c:	e58c1004 	str	r1, [ip, #4]
  401c90:	e5831008 	str	r1, [r3, #8]
  401c94:	e590302c 	ldr	r3, [r0, #44]	@ 0x2c
  401c98:	e282104c 	add	r1, r2, #76	@ 0x4c
  401c9c:	e083c103 	add	ip, r3, r3, lsl #2
  401ca0:	e081110c 	add	r1, r1, ip, lsl #2
  401ca4:	e5801014 	str	r1, [r0, #20]
  401ca8:	e082110c 	add	r1, r2, ip, lsl #2
  401cac:	e591304c 	ldr	r3, [r1, #76]	@ 0x4c
  401cb0:	e2833001 	add	r3, r3, #1
  401cb4:	e581304c 	str	r3, [r1, #76]	@ 0x4c
  401cb8:	e59f3070 	ldr	r3, [pc, #112]	@ 401d30 <xTaskGenericNotifyFromISR+0x1dc>
  401cbc:	e59330b8 	ldr	r3, [r3, #184]	@ 0xb8
  401cc0:	e590202c 	ldr	r2, [r0, #44]	@ 0x2c
  401cc4:	e593302c 	ldr	r3, [r3, #44]	@ 0x2c
  401cc8:	e1520003 	cmp	r2, r3
  401ccc:	93a00001 	movls	r0, #1
  401cd0:	9affffba 	bls	401bc0 <xTaskGenericNotifyFromISR+0x6c>
  401cd4:	e59d300c 	ldr	r3, [sp, #12]
  401cd8:	e3530000 	cmp	r3, #0
  401cdc:	13a03001 	movne	r3, #1
  401ce0:	159d200c 	ldrne	r2, [sp, #12]
  401ce4:	15823000 	strne	r3, [r2]
  401ce8:	e3a00001 	mov	r0, #1
  401cec:	e59f303c 	ldr	r3, [pc, #60]	@ 401d30 <xTaskGenericNotifyFromISR+0x1dc>
  401cf0:	e58300f4 	str	r0, [r3, #244]	@ 0xf4
  401cf4:	eaffffb1 	b	401bc0 <xTaskGenericNotifyFromISR+0x6c>
  401cf8:	e59f3030 	ldr	r3, [pc, #48]	@ 401d30 <xTaskGenericNotifyFromISR+0x1dc>
  401cfc:	e5932018 	ldr	r2, [r3, #24]
  401d00:	e580201c 	str	r2, [r0, #28]
  401d04:	e592c008 	ldr	ip, [r2, #8]
  401d08:	e580c020 	str	ip, [r0, #32]
  401d0c:	e2801018 	add	r1, r0, #24
  401d10:	e58c1004 	str	r1, [ip, #4]
  401d14:	e5821008 	str	r1, [r2, #8]
  401d18:	e2832014 	add	r2, r3, #20
  401d1c:	e5802028 	str	r2, [r0, #40]	@ 0x28
  401d20:	e5932014 	ldr	r2, [r3, #20]
  401d24:	e2822001 	add	r2, r2, #1
  401d28:	e5832014 	str	r2, [r3, #20]
  401d2c:	eaffffe1 	b	401cb8 <xTaskGenericNotifyFromISR+0x164>
  401d30:	00405bf8 	strdeq	r5, [r0], #-184	@ 0xffffff48

00401d34 <vTaskGenericNotifyGiveFromISR>:
  401d34:	e52de004 	push	{lr}		@ (str lr, [sp, #-4]!)
  401d38:	e0803001 	add	r3, r0, r1
  401d3c:	e5d3c048 	ldrb	ip, [r3, #72]	@ 0x48
  401d40:	e3a0e002 	mov	lr, #2
  401d44:	e5c3e048 	strb	lr, [r3, #72]	@ 0x48
  401d48:	e0801e11 	add	r1, r0, r1, lsl lr
  401d4c:	e5913044 	ldr	r3, [r1, #68]	@ 0x44
  401d50:	e2833001 	add	r3, r3, #1
  401d54:	e5813044 	str	r3, [r1, #68]	@ 0x44
  401d58:	e35c0001 	cmp	ip, #1
  401d5c:	0a000001 	beq	401d68 <vTaskGenericNotifyGiveFromISR+0x34>
  401d60:	e49de004 	pop	{lr}		@ (ldr lr, [sp], #4)
  401d64:	e12fff1e 	bx	lr
  401d68:	e59f3114 	ldr	r3, [pc, #276]	@ 401e84 <vTaskGenericNotifyGiveFromISR+0x150>
  401d6c:	e59330f0 	ldr	r3, [r3, #240]	@ 0xf0
  401d70:	e3530000 	cmp	r3, #0
  401d74:	1a000034 	bne	401e4c <vTaskGenericNotifyGiveFromISR+0x118>
  401d78:	e5903014 	ldr	r3, [r0, #20]
  401d7c:	e590c008 	ldr	ip, [r0, #8]
  401d80:	e590100c 	ldr	r1, [r0, #12]
  401d84:	e58c1008 	str	r1, [ip, #8]
  401d88:	e590c008 	ldr	ip, [r0, #8]
  401d8c:	e581c004 	str	ip, [r1, #4]
  401d90:	e280c004 	add	ip, r0, #4
  401d94:	e5931004 	ldr	r1, [r3, #4]
  401d98:	e151000c 	cmp	r1, ip
  401d9c:	0590100c 	ldreq	r1, [r0, #12]
  401da0:	05831004 	streq	r1, [r3, #4]
  401da4:	e3a01000 	mov	r1, #0
  401da8:	e5801014 	str	r1, [r0, #20]
  401dac:	e5931000 	ldr	r1, [r3]
  401db0:	e2411001 	sub	r1, r1, #1
  401db4:	e5831000 	str	r1, [r3]
  401db8:	e590302c 	ldr	r3, [r0, #44]	@ 0x2c
  401dbc:	e59f10c0 	ldr	r1, [pc, #192]	@ 401e84 <vTaskGenericNotifyGiveFromISR+0x150>
  401dc0:	e59110ec 	ldr	r1, [r1, #236]	@ 0xec
  401dc4:	e1530001 	cmp	r3, r1
  401dc8:	859f10b4 	ldrhi	r1, [pc, #180]	@ 401e84 <vTaskGenericNotifyGiveFromISR+0x150>
  401dcc:	858130ec 	strhi	r3, [r1, #236]	@ 0xec
  401dd0:	e59f10ac 	ldr	r1, [pc, #172]	@ 401e84 <vTaskGenericNotifyGiveFromISR+0x150>
  401dd4:	e0833103 	add	r3, r3, r3, lsl #2
  401dd8:	e0813103 	add	r3, r1, r3, lsl #2
  401ddc:	e5933050 	ldr	r3, [r3, #80]	@ 0x50
  401de0:	e5803008 	str	r3, [r0, #8]
  401de4:	e593e008 	ldr	lr, [r3, #8]
  401de8:	e580e00c 	str	lr, [r0, #12]
  401dec:	e58ec004 	str	ip, [lr, #4]
  401df0:	e583c008 	str	ip, [r3, #8]
  401df4:	e590302c 	ldr	r3, [r0, #44]	@ 0x2c
  401df8:	e281c04c 	add	ip, r1, #76	@ 0x4c
  401dfc:	e083e103 	add	lr, r3, r3, lsl #2
  401e00:	e08cc10e 	add	ip, ip, lr, lsl #2
  401e04:	e580c014 	str	ip, [r0, #20]
  401e08:	e081c10e 	add	ip, r1, lr, lsl #2
  401e0c:	e59c304c 	ldr	r3, [ip, #76]	@ 0x4c
  401e10:	e2833001 	add	r3, r3, #1
  401e14:	e58c304c 	str	r3, [ip, #76]	@ 0x4c
  401e18:	e59f3064 	ldr	r3, [pc, #100]	@ 401e84 <vTaskGenericNotifyGiveFromISR+0x150>
  401e1c:	e59330b8 	ldr	r3, [r3, #184]	@ 0xb8
  401e20:	e590102c 	ldr	r1, [r0, #44]	@ 0x2c
  401e24:	e593302c 	ldr	r3, [r3, #44]	@ 0x2c
  401e28:	e1510003 	cmp	r1, r3
  401e2c:	9affffcb 	bls	401d60 <vTaskGenericNotifyGiveFromISR+0x2c>
  401e30:	e3520000 	cmp	r2, #0
  401e34:	13a03001 	movne	r3, #1
  401e38:	15823000 	strne	r3, [r2]
  401e3c:	e59f3040 	ldr	r3, [pc, #64]	@ 401e84 <vTaskGenericNotifyGiveFromISR+0x150>
  401e40:	e3a02001 	mov	r2, #1
  401e44:	e58320f4 	str	r2, [r3, #244]	@ 0xf4
  401e48:	eaffffc4 	b	401d60 <vTaskGenericNotifyGiveFromISR+0x2c>
  401e4c:	e59f3030 	ldr	r3, [pc, #48]	@ 401e84 <vTaskGenericNotifyGiveFromISR+0x150>
  401e50:	e5931018 	ldr	r1, [r3, #24]
  401e54:	e580101c 	str	r1, [r0, #28]
  401e58:	e591e008 	ldr	lr, [r1, #8]
  401e5c:	e580e020 	str	lr, [r0, #32]
  401e60:	e280c018 	add	ip, r0, #24
  401e64:	e58ec004 	str	ip, [lr, #4]
  401e68:	e581c008 	str	ip, [r1, #8]
  401e6c:	e2831014 	add	r1, r3, #20
  401e70:	e5801028 	str	r1, [r0, #40]	@ 0x28
  401e74:	e5931014 	ldr	r1, [r3, #20]
  401e78:	e2811001 	add	r1, r1, #1
  401e7c:	e5831014 	str	r1, [r3, #20]
  401e80:	eaffffe4 	b	401e18 <vTaskGenericNotifyGiveFromISR+0xe4>
  401e84:	00405bf8 	strdeq	r5, [r0], #-184	@ 0xffffff48

00401e88 <xTaskGenericNotifyStateClear>:
  401e88:	e92d4070 	push	{r4, r5, r6, lr}
  401e8c:	e1a05001 	mov	r5, r1
  401e90:	e2504000 	subs	r4, r0, #0
  401e94:	059f3034 	ldreq	r3, [pc, #52]	@ 401ed0 <xTaskGenericNotifyStateClear+0x48>
  401e98:	059340b8 	ldreq	r4, [r3, #184]	@ 0xb8
  401e9c:	eb00011f 	bl	402320 <vPortEnterCritical>
  401ea0:	e0843005 	add	r3, r4, r5
  401ea4:	e5d33048 	ldrb	r3, [r3, #72]	@ 0x48
  401ea8:	e3530002 	cmp	r3, #2
  401eac:	00840005 	addeq	r0, r4, r5
  401eb0:	03a03000 	moveq	r3, #0
  401eb4:	05c03048 	strbeq	r3, [r0, #72]	@ 0x48
  401eb8:	03a04001 	moveq	r4, #1
  401ebc:	13a04000 	movne	r4, #0
  401ec0:	eb000121 	bl	40234c <vPortExitCritical>
  401ec4:	e1a00004 	mov	r0, r4
  401ec8:	e8bd4070 	pop	{r4, r5, r6, lr}
  401ecc:	e12fff1e 	bx	lr
  401ed0:	00405bf8 	strdeq	r5, [r0], #-184	@ 0xffffff48

00401ed4 <ulTaskGenericNotifyValueClear>:
  401ed4:	e92d4070 	push	{r4, r5, r6, lr}
  401ed8:	e1a06001 	mov	r6, r1
  401edc:	e1a05002 	mov	r5, r2
  401ee0:	e2504000 	subs	r4, r0, #0
  401ee4:	059f3028 	ldreq	r3, [pc, #40]	@ 401f14 <ulTaskGenericNotifyValueClear+0x40>
  401ee8:	059340b8 	ldreq	r4, [r3, #184]	@ 0xb8
  401eec:	eb00010b 	bl	402320 <vPortEnterCritical>
  401ef0:	e0841106 	add	r1, r4, r6, lsl #2
  401ef4:	e5914044 	ldr	r4, [r1, #68]	@ 0x44
  401ef8:	e5913044 	ldr	r3, [r1, #68]	@ 0x44
  401efc:	e1c32005 	bic	r2, r3, r5
  401f00:	e5812044 	str	r2, [r1, #68]	@ 0x44
  401f04:	eb000110 	bl	40234c <vPortExitCritical>
  401f08:	e1a00004 	mov	r0, r4
  401f0c:	e8bd4070 	pop	{r4, r5, r6, lr}
  401f10:	e12fff1e 	bx	lr
  401f14:	00405bf8 	strdeq	r5, [r0], #-184	@ 0xffffff48

00401f18 <vTaskResetState>:
  401f18:	e59f3034 	ldr	r3, [pc, #52]	@ 401f54 <vTaskResetState+0x3c>
  401f1c:	e3a02000 	mov	r2, #0
  401f20:	e58320b8 	str	r2, [r3, #184]	@ 0xb8
  401f24:	e5832030 	str	r2, [r3, #48]	@ 0x30
  401f28:	e5832048 	str	r2, [r3, #72]	@ 0x48
  401f2c:	e58320b0 	str	r2, [r3, #176]	@ 0xb0
  401f30:	e58320ec 	str	r2, [r3, #236]	@ 0xec
  401f34:	e58320e4 	str	r2, [r3, #228]	@ 0xe4
  401f38:	e5832100 	str	r2, [r3, #256]	@ 0x100
  401f3c:	e58320f4 	str	r2, [r3, #244]	@ 0xf4
  401f40:	e58320fc 	str	r2, [r3, #252]	@ 0xfc
  401f44:	e58320e8 	str	r2, [r3, #232]	@ 0xe8
  401f48:	e583202c 	str	r2, [r3, #44]	@ 0x2c
  401f4c:	e58320f0 	str	r2, [r3, #240]	@ 0xf0
  401f50:	e12fff1e 	bx	lr
  401f54:	00405bf8 	strdeq	r5, [r0], #-184	@ 0xffffff48

00401f58 <pvPortMalloc>:
  401f58:	e92d4070 	push	{r4, r5, r6, lr}
  401f5c:	e1a04000 	mov	r4, r0
  401f60:	e3100007 	tst	r0, #7
  401f64:	0a00000a 	beq	401f94 <pvPortMalloc+0x3c>
  401f68:	e3c05007 	bic	r5, r0, #7
  401f6c:	e2855008 	add	r5, r5, #8
  401f70:	e1550000 	cmp	r5, r0
  401f74:	8a000023 	bhi	402008 <pvPortMalloc+0xb0>
  401f78:	ebfffb3d 	bl	400c74 <vTaskSuspendAll>
  401f7c:	e59f30a4 	ldr	r3, [pc, #164]	@ 402028 <pvPortMalloc+0xd0>
  401f80:	e5933000 	ldr	r3, [r3]
  401f84:	e3530000 	cmp	r3, #0
  401f88:	0a000018 	beq	401ff0 <pvPortMalloc+0x98>
  401f8c:	e3a05000 	mov	r5, #0
  401f90:	ea000012 	b	401fe0 <pvPortMalloc+0x88>
  401f94:	ebfffb36 	bl	400c74 <vTaskSuspendAll>
  401f98:	e59f3088 	ldr	r3, [pc, #136]	@ 402028 <pvPortMalloc+0xd0>
  401f9c:	e5933000 	ldr	r3, [r3]
  401fa0:	e3530000 	cmp	r3, #0
  401fa4:	0a000012 	beq	401ff4 <pvPortMalloc+0x9c>
  401fa8:	e3540000 	cmp	r4, #0
  401fac:	03a05000 	moveq	r5, #0
  401fb0:	0a00000a 	beq	401fe0 <pvPortMalloc+0x88>
  401fb4:	e59f306c 	ldr	r3, [pc, #108]	@ 402028 <pvPortMalloc+0xd0>
  401fb8:	e5933004 	ldr	r3, [r3, #4]
  401fbc:	e0834004 	add	r4, r3, r4
  401fc0:	e59f2064 	ldr	r2, [pc, #100]	@ 40202c <pvPortMalloc+0xd4>
  401fc4:	e1540002 	cmp	r4, r2
  401fc8:	91530004 	cmpls	r3, r4
  401fcc:	359f2054 	ldrcc	r2, [pc, #84]	@ 402028 <pvPortMalloc+0xd0>
  401fd0:	35925000 	ldrcc	r5, [r2]
  401fd4:	30855003 	addcc	r5, r5, r3
  401fd8:	35824004 	strcc	r4, [r2, #4]
  401fdc:	23a05000 	movcs	r5, #0
  401fe0:	ebfffbc4 	bl	400ef8 <xTaskResumeAll>
  401fe4:	e1a00005 	mov	r0, r5
  401fe8:	e8bd4070 	pop	{r4, r5, r6, lr}
  401fec:	e12fff1e 	bx	lr
  401ff0:	e3a04000 	mov	r4, #0
  401ff4:	e59f202c 	ldr	r2, [pc, #44]	@ 402028 <pvPortMalloc+0xd0>
  401ff8:	e59f3030 	ldr	r3, [pc, #48]	@ 402030 <pvPortMalloc+0xd8>
  401ffc:	e3c33007 	bic	r3, r3, #7
  402000:	e5823000 	str	r3, [r2]
  402004:	eaffffe7 	b	401fa8 <pvPortMalloc+0x50>
  402008:	ebfffb19 	bl	400c74 <vTaskSuspendAll>
  40200c:	e59f3014 	ldr	r3, [pc, #20]	@ 402028 <pvPortMalloc+0xd0>
  402010:	e5933000 	ldr	r3, [r3]
  402014:	e3530000 	cmp	r3, #0
  402018:	11a04005 	movne	r4, r5
  40201c:	1affffe4 	bne	401fb4 <pvPortMalloc+0x5c>
  402020:	e1a04005 	mov	r4, r5
  402024:	eafffff2 	b	401ff4 <pvPortMalloc+0x9c>
  402028:	00405cfc 	strdeq	r5, [r0], #-204	@ 0xffffff34
  40202c:	00008ff7 	strdeq	r8, [r0], -r7
  402030:	00405d0b 	subeq	r5, r0, fp, lsl #26

00402034 <vPortFree>:
  402034:	e12fff1e 	bx	lr

00402038 <vPortInitialiseBlocks>:
  402038:	e59f3008 	ldr	r3, [pc, #8]	@ 402048 <vPortInitialiseBlocks+0x10>
  40203c:	e3a02000 	mov	r2, #0
  402040:	e5832004 	str	r2, [r3, #4]
  402044:	e12fff1e 	bx	lr
  402048:	00405cfc 	strdeq	r5, [r0], #-204	@ 0xffffff34

0040204c <xPortGetFreeHeapSize>:
  40204c:	e59f300c 	ldr	r3, [pc, #12]	@ 402060 <xPortGetFreeHeapSize+0x14>
  402050:	e5930004 	ldr	r0, [r3, #4]
  402054:	e2600c8f 	rsb	r0, r0, #36608	@ 0x8f00
  402058:	e28000f8 	add	r0, r0, #248	@ 0xf8
  40205c:	e12fff1e 	bx	lr
  402060:	00405cfc 	strdeq	r5, [r0], #-204	@ 0xffffff34

00402064 <vPortHeapResetState>:
  402064:	e59f3008 	ldr	r3, [pc, #8]	@ 402074 <vPortHeapResetState+0x10>
  402068:	e3a02000 	mov	r2, #0
  40206c:	e5832004 	str	r2, [r3, #4]
  402070:	e12fff1e 	bx	lr
  402074:	00405cfc 	strdeq	r5, [r0], #-204	@ 0xffffff34

00402078 <pxPortInitialiseStack>:
  402078:	e2813004 	add	r3, r1, #4
  40207c:	e5003004 	str	r3, [r0, #-4]
  402080:	e59f3084 	ldr	r3, [pc, #132]	@ 40210c <pxPortInitialiseStack+0x94>
  402084:	e5003008 	str	r3, [r0, #-8]
  402088:	e500000c 	str	r0, [r0, #-12]
  40208c:	e59f307c 	ldr	r3, [pc, #124]	@ 402110 <pxPortInitialiseStack+0x98>
  402090:	e5003010 	str	r3, [r0, #-16]
  402094:	e59f3078 	ldr	r3, [pc, #120]	@ 402114 <pxPortInitialiseStack+0x9c>
  402098:	e5003014 	str	r3, [r0, #-20]	@ 0xffffffec
  40209c:	e59f3074 	ldr	r3, [pc, #116]	@ 402118 <pxPortInitialiseStack+0xa0>
  4020a0:	e5003018 	str	r3, [r0, #-24]	@ 0xffffffe8
  4020a4:	e59f3070 	ldr	r3, [pc, #112]	@ 40211c <pxPortInitialiseStack+0xa4>
  4020a8:	e500301c 	str	r3, [r0, #-28]	@ 0xffffffe4
  4020ac:	e59f306c 	ldr	r3, [pc, #108]	@ 402120 <pxPortInitialiseStack+0xa8>
  4020b0:	e5003020 	str	r3, [r0, #-32]	@ 0xffffffe0
  4020b4:	e59f3068 	ldr	r3, [pc, #104]	@ 402124 <pxPortInitialiseStack+0xac>
  4020b8:	e5003024 	str	r3, [r0, #-36]	@ 0xffffffdc
  4020bc:	e59f3064 	ldr	r3, [pc, #100]	@ 402128 <pxPortInitialiseStack+0xb0>
  4020c0:	e5003028 	str	r3, [r0, #-40]	@ 0xffffffd8
  4020c4:	e59f3060 	ldr	r3, [pc, #96]	@ 40212c <pxPortInitialiseStack+0xb4>
  4020c8:	e500302c 	str	r3, [r0, #-44]	@ 0xffffffd4
  4020cc:	e59f305c 	ldr	r3, [pc, #92]	@ 402130 <pxPortInitialiseStack+0xb8>
  4020d0:	e5003030 	str	r3, [r0, #-48]	@ 0xffffffd0
  4020d4:	e59f3058 	ldr	r3, [pc, #88]	@ 402134 <pxPortInitialiseStack+0xbc>
  4020d8:	e5003034 	str	r3, [r0, #-52]	@ 0xffffffcc
  4020dc:	e59f3054 	ldr	r3, [pc, #84]	@ 402138 <pxPortInitialiseStack+0xc0>
  4020e0:	e5003038 	str	r3, [r0, #-56]	@ 0xffffffc8
  4020e4:	e59f3050 	ldr	r3, [pc, #80]	@ 40213c <pxPortInitialiseStack+0xc4>
  4020e8:	e500303c 	str	r3, [r0, #-60]	@ 0xffffffc4
  4020ec:	e5002040 	str	r2, [r0, #-64]	@ 0xffffffc0
  4020f0:	e3110001 	tst	r1, #1
  4020f4:	03a0301f 	moveq	r3, #31
  4020f8:	13a0303f 	movne	r3, #63	@ 0x3f
  4020fc:	e5003044 	str	r3, [r0, #-68]	@ 0xffffffbc
  402100:	e3a03000 	mov	r3, #0
  402104:	e5203048 	str	r3, [r0, #-72]!	@ 0xffffffb8
  402108:	e12fff1e 	bx	lr
  40210c:	aaaaaaaa 	bge	feeacbbc <_fiq_stack_top+0xfea94bbc>
  402110:	12121212 	andsne	r1, r2, #536870913	@ 0x20000001
  402114:	11111111 	tstne	r1, r1, lsl r1
  402118:	10101010 	andsne	r1, r0, r0, lsl r0
  40211c:	09090909 	stmdbeq	r9, {r0, r3, r8, fp}
  402120:	08080808 	stmdaeq	r8, {r3, fp}
  402124:	07070707 	streq	r0, [r7, -r7, lsl #14]
  402128:	06060606 	streq	r0, [r6], -r6, lsl #12
  40212c:	05050505 	streq	r0, [r5, #-1285]	@ 0xfffffafb
  402130:	04040404 	streq	r0, [r4], #-1028	@ 0xfffffbfc
  402134:	03030303 	movweq	r0, #13059	@ 0x3303
  402138:	02020202 	andeq	r0, r2, #536870912	@ 0x20000000
  40213c:	01010101 	tsteq	r1, r1, lsl #2

00402140 <xPortStartScheduler>:
  402140:	e92d4010 	push	{r4, lr}
  402144:	e59f1028 	ldr	r1, [pc, #40]	@ 402174 <xPortStartScheduler+0x34>
  402148:	e3a00005 	mov	r0, #5
  40214c:	eb000183 	bl	402760 <itc_set_handler>
  402150:	e3a00005 	mov	r0, #5
  402154:	eb000190 	bl	40279c <itc_enable_interrupt>
  402158:	e3a0100a 	mov	r1, #10
  40215c:	e3a00000 	mov	r0, #0
  402160:	eb000376 	bl	402f40 <TimerInt_Init>
  402164:	eb000004 	bl	40217c <vPortISRStartFirstTask>
  402168:	e3a00000 	mov	r0, #0
  40216c:	e8bd4010 	pop	{r4, lr}
  402170:	e12fff1e 	bx	lr
  402174:	0040226c 	subeq	r2, r0, ip, ror #4

00402178 <vPortEndScheduler>:
  402178:	e12fff1e 	bx	lr

0040217c <vPortISRStartFirstTask>:
  40217c:	e59f0210 	ldr	r0, [pc, #528]	@ 402394 <vPortExitCritical+0x48>
  402180:	e5900000 	ldr	r0, [r0]
  402184:	e590e000 	ldr	lr, [r0]
  402188:	e59f0208 	ldr	r0, [pc, #520]	@ 402398 <vPortExitCritical+0x4c>
  40218c:	e8be0002 	ldm	lr!, {r1}
  402190:	e5801000 	str	r1, [r0]
  402194:	e8be0001 	ldm	lr!, {r0}
  402198:	e169f000 	msr	SPSR_fc, r0
  40219c:	e8de7fff 	ldm	lr, {r0, r1, r2, r3, r4, r5, r6, r7, r8, r9, sl, fp, ip, sp, lr}^
  4021a0:	e1a00000 	nop			@ (mov r0, r0)
  4021a4:	e59ee03c 	ldr	lr, [lr, #60]	@ 0x3c
  4021a8:	e25ef004 	subs	pc, lr, #4
  4021ac:	e59f300c 	ldr	r3, [pc, #12]	@ 4021c0 <vPortISRStartFirstTask+0x44>
  4021b0:	e5933000 	ldr	r3, [r3]
  4021b4:	e59f3008 	ldr	r3, [pc, #8]	@ 4021c4 <vPortISRStartFirstTask+0x48>
  4021b8:	e5933000 	ldr	r3, [r3]
  4021bc:	e12fff1e 	bx	lr
  4021c0:	0040399c 	umaaleq	r3, r0, ip, r9
  4021c4:	00405cb0 	strheq	r5, [r0], #-192	@ 0xffffff40

004021c8 <vPortYieldProcessor>:
  4021c8:	e28ee004 	add	lr, lr, #4
  4021cc:	e92d0001 	stmfd	sp!, {r0}
  4021d0:	e94d2000 	stmdb	sp, {sp}^
  4021d4:	e1a00000 	nop			@ (mov r0, r0)
  4021d8:	e24dd004 	sub	sp, sp, #4
  4021dc:	e8bd0001 	ldmfd	sp!, {r0}
  4021e0:	e9204000 	stmdb	r0!, {lr}
  4021e4:	e1a0e000 	mov	lr, r0
  4021e8:	e8bd0001 	ldmfd	sp!, {r0}
  4021ec:	e94e7fff 	stmdb	lr, {r0, r1, r2, r3, r4, r5, r6, r7, r8, r9, sl, fp, ip, sp, lr}^
  4021f0:	e1a00000 	nop			@ (mov r0, r0)
  4021f4:	e24ee03c 	sub	lr, lr, #60	@ 0x3c
  4021f8:	e14f0000 	mrs	r0, SPSR
  4021fc:	e92e0001 	stmdb	lr!, {r0}
  402200:	e59f0190 	ldr	r0, [pc, #400]	@ 402398 <vPortExitCritical+0x4c>
  402204:	e5900000 	ldr	r0, [r0]
  402208:	e92e0001 	stmdb	lr!, {r0}
  40220c:	e59f0180 	ldr	r0, [pc, #384]	@ 402394 <vPortExitCritical+0x48>
  402210:	e5900000 	ldr	r0, [r0]
  402214:	e580e000 	str	lr, [r0]
  402218:	e59f2044 	ldr	r2, [pc, #68]	@ 402264 <vPortYieldProcessor+0x9c>
  40221c:	e5923000 	ldr	r3, [r2]
  402220:	e59f3040 	ldr	r3, [pc, #64]	@ 402268 <vPortYieldProcessor+0xa0>
  402224:	e5931000 	ldr	r1, [r3]
  402228:	ebfffbe5 	bl	4011c4 <vTaskSwitchContext>
  40222c:	e59f0160 	ldr	r0, [pc, #352]	@ 402394 <vPortExitCritical+0x48>
  402230:	e5900000 	ldr	r0, [r0]
  402234:	e590e000 	ldr	lr, [r0]
  402238:	e59f0158 	ldr	r0, [pc, #344]	@ 402398 <vPortExitCritical+0x4c>
  40223c:	e8be0002 	ldm	lr!, {r1}
  402240:	e5801000 	str	r1, [r0]
  402244:	e8be0001 	ldm	lr!, {r0}
  402248:	e169f000 	msr	SPSR_fc, r0
  40224c:	e8de7fff 	ldm	lr, {r0, r1, r2, r3, r4, r5, r6, r7, r8, r9, sl, fp, ip, sp, lr}^
  402250:	e1a00000 	nop			@ (mov r0, r0)
  402254:	e59ee03c 	ldr	lr, [lr, #60]	@ 0x3c
  402258:	e25ef004 	subs	pc, lr, #4
  40225c:	e5922000 	ldr	r2, [r2]
  402260:	e5933000 	ldr	r3, [r3]
  402264:	0040399c 	umaaleq	r3, r0, ip, r9
  402268:	00405cb0 	strheq	r5, [r0], #-192	@ 0xffffff40

0040226c <vTickISR>:
  40226c:	e92d0001 	stmfd	sp!, {r0}
  402270:	e94d2000 	stmdb	sp, {sp}^
  402274:	e1a00000 	nop			@ (mov r0, r0)
  402278:	e24dd004 	sub	sp, sp, #4
  40227c:	e8bd0001 	ldmfd	sp!, {r0}
  402280:	e9204000 	stmdb	r0!, {lr}
  402284:	e1a0e000 	mov	lr, r0
  402288:	e8bd0001 	ldmfd	sp!, {r0}
  40228c:	e94e7fff 	stmdb	lr, {r0, r1, r2, r3, r4, r5, r6, r7, r8, r9, sl, fp, ip, sp, lr}^
  402290:	e1a00000 	nop			@ (mov r0, r0)
  402294:	e24ee03c 	sub	lr, lr, #60	@ 0x3c
  402298:	e14f0000 	mrs	r0, SPSR
  40229c:	e92e0001 	stmdb	lr!, {r0}
  4022a0:	e59f00f0 	ldr	r0, [pc, #240]	@ 402398 <vPortExitCritical+0x4c>
  4022a4:	e5900000 	ldr	r0, [r0]
  4022a8:	e92e0001 	stmdb	lr!, {r0}
  4022ac:	e59f00e0 	ldr	r0, [pc, #224]	@ 402394 <vPortExitCritical+0x48>
  4022b0:	e5900000 	ldr	r0, [r0]
  4022b4:	e580e000 	str	lr, [r0]
  4022b8:	e59f5058 	ldr	r5, [pc, #88]	@ 402318 <SkipContextSwitch+0x40>
  4022bc:	e5953000 	ldr	r3, [r5]
  4022c0:	e59f4054 	ldr	r4, [pc, #84]	@ 40231c <SkipContextSwitch+0x44>
  4022c4:	e5943000 	ldr	r3, [r4]
  4022c8:	ebfffa86 	bl	400ce8 <xTaskIncrementTick>
  4022cc:	e3500000 	cmp	r0, #0
  4022d0:	0a000000 	beq	4022d8 <SkipContextSwitch>
  4022d4:	ebfffbba 	bl	4011c4 <vTaskSwitchContext>

004022d8 <SkipContextSwitch>:
  4022d8:	eb000372 	bl	4030a8 <getIntTmr>
  4022dc:	eb000362 	bl	40306c <clearInt>
  4022e0:	e59f00ac 	ldr	r0, [pc, #172]	@ 402394 <vPortExitCritical+0x48>
  4022e4:	e5900000 	ldr	r0, [r0]
  4022e8:	e590e000 	ldr	lr, [r0]
  4022ec:	e59f00a4 	ldr	r0, [pc, #164]	@ 402398 <vPortExitCritical+0x4c>
  4022f0:	e8be0002 	ldm	lr!, {r1}
  4022f4:	e5801000 	str	r1, [r0]
  4022f8:	e8be0001 	ldm	lr!, {r0}
  4022fc:	e169f000 	msr	SPSR_fc, r0
  402300:	e8de7fff 	ldm	lr, {r0, r1, r2, r3, r4, r5, r6, r7, r8, r9, sl, fp, ip, sp, lr}^
  402304:	e1a00000 	nop			@ (mov r0, r0)
  402308:	e59ee03c 	ldr	lr, [lr, #60]	@ 0x3c
  40230c:	e25ef004 	subs	pc, lr, #4
  402310:	e5953000 	ldr	r3, [r5]
  402314:	e5943000 	ldr	r3, [r4]
  402318:	0040399c 	umaaleq	r3, r0, ip, r9
  40231c:	00405cb0 	strheq	r5, [r0], #-192	@ 0xffffff40

00402320 <vPortEnterCritical>:
  402320:	e92d0001 	stmfd	sp!, {r0}
  402324:	e10f0000 	mrs	r0, CPSR
  402328:	e38000c0 	orr	r0, r0, #192	@ 0xc0
  40232c:	e129f000 	msr	CPSR_fc, r0
  402330:	e8bd0001 	ldmfd	sp!, {r0}
  402334:	e59f200c 	ldr	r2, [pc, #12]	@ 402348 <vPortEnterCritical+0x28>
  402338:	e5923000 	ldr	r3, [r2]
  40233c:	e2833001 	add	r3, r3, #1
  402340:	e5823000 	str	r3, [r2]
  402344:	e12fff1e 	bx	lr
  402348:	0040399c 	umaaleq	r3, r0, ip, r9

0040234c <vPortExitCritical>:
  40234c:	e59f303c 	ldr	r3, [pc, #60]	@ 402390 <vPortExitCritical+0x44>
  402350:	e5933000 	ldr	r3, [r3]
  402354:	e3530000 	cmp	r3, #0
  402358:	012fff1e 	bxeq	lr
  40235c:	e59f302c 	ldr	r3, [pc, #44]	@ 402390 <vPortExitCritical+0x44>
  402360:	e5932000 	ldr	r2, [r3]
  402364:	e2422001 	sub	r2, r2, #1
  402368:	e5832000 	str	r2, [r3]
  40236c:	e5933000 	ldr	r3, [r3]
  402370:	e3530000 	cmp	r3, #0
  402374:	112fff1e 	bxne	lr
  402378:	e92d0001 	stmfd	sp!, {r0}
  40237c:	e10f0000 	mrs	r0, CPSR
  402380:	e3c000c0 	bic	r0, r0, #192	@ 0xc0
  402384:	e129f000 	msr	CPSR_fc, r0
  402388:	e8bd0001 	ldmfd	sp!, {r0}
  40238c:	e12fff1e 	bx	lr
  402390:	0040399c 	umaaleq	r3, r0, ip, r9
  402394:	00405cb0 	strheq	r5, [r0], #-192	@ 0xffffff40
  402398:	0040399c 	umaaleq	r3, r0, ip, r9

0040239c <vListInitialise>:
  40239c:	e2803008 	add	r3, r0, #8
  4023a0:	e5803004 	str	r3, [r0, #4]
  4023a4:	e3e02000 	mvn	r2, #0
  4023a8:	e5802008 	str	r2, [r0, #8]
  4023ac:	e580300c 	str	r3, [r0, #12]
  4023b0:	e5803010 	str	r3, [r0, #16]
  4023b4:	e3a03000 	mov	r3, #0
  4023b8:	e5803000 	str	r3, [r0]
  4023bc:	e12fff1e 	bx	lr

004023c0 <vListInitialiseItem>:
  4023c0:	e3a03000 	mov	r3, #0
  4023c4:	e5803010 	str	r3, [r0, #16]
  4023c8:	e12fff1e 	bx	lr

004023cc <vListInsertEnd>:
  4023cc:	e5903004 	ldr	r3, [r0, #4]
  4023d0:	e5813004 	str	r3, [r1, #4]
  4023d4:	e5932008 	ldr	r2, [r3, #8]
  4023d8:	e5812008 	str	r2, [r1, #8]
  4023dc:	e5821004 	str	r1, [r2, #4]
  4023e0:	e5831008 	str	r1, [r3, #8]
  4023e4:	e5810010 	str	r0, [r1, #16]
  4023e8:	e5903000 	ldr	r3, [r0]
  4023ec:	e2833001 	add	r3, r3, #1
  4023f0:	e5803000 	str	r3, [r0]
  4023f4:	e12fff1e 	bx	lr

004023f8 <vListInsert>:
  4023f8:	e52de004 	push	{lr}		@ (str lr, [sp, #-4]!)
  4023fc:	e591e000 	ldr	lr, [r1]
  402400:	e37e0001 	cmn	lr, #1
  402404:	0590c010 	ldreq	ip, [r0, #16]
  402408:	0a000005 	beq	402424 <vListInsert+0x2c>
  40240c:	e2803008 	add	r3, r0, #8
  402410:	e1a0c003 	mov	ip, r3
  402414:	e5933004 	ldr	r3, [r3, #4]
  402418:	e5932000 	ldr	r2, [r3]
  40241c:	e152000e 	cmp	r2, lr
  402420:	9afffffa 	bls	402410 <vListInsert+0x18>
  402424:	e59c3004 	ldr	r3, [ip, #4]
  402428:	e5813004 	str	r3, [r1, #4]
  40242c:	e5831008 	str	r1, [r3, #8]
  402430:	e581c008 	str	ip, [r1, #8]
  402434:	e58c1004 	str	r1, [ip, #4]
  402438:	e5810010 	str	r0, [r1, #16]
  40243c:	e5903000 	ldr	r3, [r0]
  402440:	e2833001 	add	r3, r3, #1
  402444:	e5803000 	str	r3, [r0]
  402448:	e49de004 	pop	{lr}		@ (ldr lr, [sp], #4)
  40244c:	e12fff1e 	bx	lr

00402450 <uxListRemove>:
  402450:	e5903010 	ldr	r3, [r0, #16]
  402454:	e5901004 	ldr	r1, [r0, #4]
  402458:	e5902008 	ldr	r2, [r0, #8]
  40245c:	e5812008 	str	r2, [r1, #8]
  402460:	e5901004 	ldr	r1, [r0, #4]
  402464:	e5821004 	str	r1, [r2, #4]
  402468:	e5932004 	ldr	r2, [r3, #4]
  40246c:	e1520000 	cmp	r2, r0
  402470:	05902008 	ldreq	r2, [r0, #8]
  402474:	05832004 	streq	r2, [r3, #4]
  402478:	e3a02000 	mov	r2, #0
  40247c:	e5802010 	str	r2, [r0, #16]
  402480:	e5930000 	ldr	r0, [r3]
  402484:	e2400001 	sub	r0, r0, #1
  402488:	e5830000 	str	r0, [r3]
  40248c:	e12fff1e 	bx	lr

00402490 <gpio_set_port_dir_input>:
  402490:	e3500001 	cmp	r0, #1
  402494:	93a02102 	movls	r2, #-2147483648	@ 0x80000000
  402498:	92803018 	addls	r3, r0, #24
  40249c:	97821103 	strls	r1, [r2, r3, lsl #2]
  4024a0:	93a00000 	movls	r0, #0
  4024a4:	83a00001 	movhi	r0, #1
  4024a8:	e12fff1e 	bx	lr

004024ac <gpio_set_port_dir_output>:
  4024ac:	e3500001 	cmp	r0, #1
  4024b0:	93a02102 	movls	r2, #-2147483648	@ 0x80000000
  4024b4:	92803016 	addls	r3, r0, #22
  4024b8:	97821103 	strls	r1, [r2, r3, lsl #2]
  4024bc:	93a00000 	movls	r0, #0
  4024c0:	83a00001 	movhi	r0, #1
  4024c4:	e12fff1e 	bx	lr

004024c8 <gpio_set_pin_dir_input>:
  4024c8:	e350003f 	cmp	r0, #63	@ 0x3f
  4024cc:	93a01001 	movls	r1, #1
  4024d0:	93a0c102 	movls	ip, #-2147483648	@ 0x80000000
  4024d4:	91a022a0 	lsrls	r2, r0, #5
  4024d8:	9200301f 	andls	r3, r0, #31
  4024dc:	92822018 	addls	r2, r2, #24
  4024e0:	91a03311 	lslls	r3, r1, r3
  4024e4:	93a00000 	movls	r0, #0
  4024e8:	978c3102 	strls	r3, [ip, r2, lsl #2]
  4024ec:	83a00001 	movhi	r0, #1
  4024f0:	e12fff1e 	bx	lr

004024f4 <gpio_set_pin_dir_output>:
  4024f4:	e350003f 	cmp	r0, #63	@ 0x3f
  4024f8:	93a01001 	movls	r1, #1
  4024fc:	93a0c102 	movls	ip, #-2147483648	@ 0x80000000
  402500:	91a022a0 	lsrls	r2, r0, #5
  402504:	9200301f 	andls	r3, r0, #31
  402508:	92822016 	addls	r2, r2, #22
  40250c:	91a03311 	lslls	r3, r1, r3
  402510:	93a00000 	movls	r0, #0
  402514:	978c3102 	strls	r3, [ip, r2, lsl #2]
  402518:	83a00001 	movhi	r0, #1
  40251c:	e12fff1e 	bx	lr

00402520 <gpio_set_port>:
  402520:	e3500001 	cmp	r0, #1
  402524:	93a02102 	movls	r2, #-2147483648	@ 0x80000000
  402528:	92803012 	addls	r3, r0, #18
  40252c:	97821103 	strls	r1, [r2, r3, lsl #2]
  402530:	93a00000 	movls	r0, #0
  402534:	83a00001 	movhi	r0, #1
  402538:	e12fff1e 	bx	lr

0040253c <gpio_clear_port>:
  40253c:	e3500001 	cmp	r0, #1
  402540:	93a02102 	movls	r2, #-2147483648	@ 0x80000000
  402544:	92803014 	addls	r3, r0, #20
  402548:	97821103 	strls	r1, [r2, r3, lsl #2]
  40254c:	93a00000 	movls	r0, #0
  402550:	83a00001 	movhi	r0, #1
  402554:	e12fff1e 	bx	lr

00402558 <gpio_set_pin>:
  402558:	e350003f 	cmp	r0, #63	@ 0x3f
  40255c:	93a01001 	movls	r1, #1
  402560:	93a0c102 	movls	ip, #-2147483648	@ 0x80000000
  402564:	91a022a0 	lsrls	r2, r0, #5
  402568:	9200301f 	andls	r3, r0, #31
  40256c:	92822012 	addls	r2, r2, #18
  402570:	91a03311 	lslls	r3, r1, r3
  402574:	93a00000 	movls	r0, #0
  402578:	978c3102 	strls	r3, [ip, r2, lsl #2]
  40257c:	83a00001 	movhi	r0, #1
  402580:	e12fff1e 	bx	lr

00402584 <gpio_clear_pin>:
  402584:	e350003f 	cmp	r0, #63	@ 0x3f
  402588:	93a01001 	movls	r1, #1
  40258c:	93a0c102 	movls	ip, #-2147483648	@ 0x80000000
  402590:	91a022a0 	lsrls	r2, r0, #5
  402594:	9200301f 	andls	r3, r0, #31
  402598:	92822014 	addls	r2, r2, #20
  40259c:	91a03311 	lslls	r3, r1, r3
  4025a0:	93a00000 	movls	r0, #0
  4025a4:	978c3102 	strls	r3, [ip, r2, lsl #2]
  4025a8:	83a00001 	movhi	r0, #1
  4025ac:	e12fff1e 	bx	lr

004025b0 <gpio_get_port>:
  4025b0:	e3500001 	cmp	r0, #1
  4025b4:	93a02102 	movls	r2, #-2147483648	@ 0x80000000
  4025b8:	92803002 	addls	r3, r0, #2
  4025bc:	97923103 	ldrls	r3, [r2, r3, lsl #2]
  4025c0:	93a00000 	movls	r0, #0
  4025c4:	95813000 	strls	r3, [r1]
  4025c8:	83a00001 	movhi	r0, #1
  4025cc:	e12fff1e 	bx	lr

004025d0 <gpio_get_pin>:
  4025d0:	e350003f 	cmp	r0, #63	@ 0x3f
  4025d4:	8a00000b 	bhi	402608 <gpio_get_pin+0x38>
  4025d8:	e52de004 	push	{lr}		@ (str lr, [sp, #-4]!)
  4025dc:	e3a0e102 	mov	lr, #-2147483648	@ 0x80000000
  4025e0:	e3a0c001 	mov	ip, #1
  4025e4:	e1a022a0 	lsr	r2, r0, #5
  4025e8:	e2822002 	add	r2, r2, #2
  4025ec:	e79e2102 	ldr	r2, [lr, r2, lsl #2]
  4025f0:	e200301f 	and	r3, r0, #31
  4025f4:	e002331c 	and	r3, r2, ip, lsl r3
  4025f8:	e3a00000 	mov	r0, #0
  4025fc:	e5813000 	str	r3, [r1]
  402600:	e49de004 	pop	{lr}		@ (ldr lr, [sp], #4)
  402604:	e12fff1e 	bx	lr
  402608:	e3a00001 	mov	r0, #1
  40260c:	e12fff1e 	bx	lr

00402610 <gpio_set_port_func>:
  402610:	e3510003 	cmp	r1, #3
  402614:	93500001 	cmpls	r0, #1
  402618:	83a0c001 	movhi	ip, #1
  40261c:	93a0c000 	movls	ip, #0
  402620:	8a000017 	bhi	402684 <gpio_set_port_func+0x74>
  402624:	e92d4070 	push	{r4, r5, r6, lr}
  402628:	e3a05001 	mov	r5, #1
  40262c:	e3a06003 	mov	r6, #3
  402630:	e1a00280 	lsl	r0, r0, #5
  402634:	e0123c15 	ands	r3, r2, r5, lsl ip
  402638:	e28cc001 	add	ip, ip, #1
  40263c:	0a00000a 	beq	40266c <gpio_set_port_func+0x5c>
  402640:	e1a03220 	lsr	r3, r0, #4
  402644:	e1a03103 	lsl	r3, r3, #2
  402648:	e2833102 	add	r3, r3, #-2147483648	@ 0x80000000
  40264c:	e5934018 	ldr	r4, [r3, #24]
  402650:	e1a0e080 	lsl	lr, r0, #1
  402654:	e20ee01e 	and	lr, lr, #30
  402658:	e1c44e16 	bic	r4, r4, r6, lsl lr
  40265c:	e5834018 	str	r4, [r3, #24]
  402660:	e5934018 	ldr	r4, [r3, #24]
  402664:	e184ee11 	orr	lr, r4, r1, lsl lr
  402668:	e583e018 	str	lr, [r3, #24]
  40266c:	e35c0020 	cmp	ip, #32
  402670:	e2800001 	add	r0, r0, #1
  402674:	1affffee 	bne	402634 <gpio_set_port_func+0x24>
  402678:	e3a00000 	mov	r0, #0
  40267c:	e8bd4070 	pop	{r4, r5, r6, lr}
  402680:	e12fff1e 	bx	lr
  402684:	e3a00001 	mov	r0, #1
  402688:	e12fff1e 	bx	lr

0040268c <gpio_set_pin_func>:
  40268c:	e3510003 	cmp	r1, #3
  402690:	9350003f 	cmpls	r0, #63	@ 0x3f
  402694:	83a0c001 	movhi	ip, #1
  402698:	93a0c000 	movls	ip, #0
  40269c:	8a00000f 	bhi	4026e0 <gpio_set_pin_func+0x54>
  4026a0:	e1a02220 	lsr	r2, r0, #4
  4026a4:	e1a03080 	lsl	r3, r0, #1
  4026a8:	e1a0000c 	mov	r0, ip
  4026ac:	e3a0c003 	mov	ip, #3
  4026b0:	e1a02102 	lsl	r2, r2, #2
  4026b4:	e2822102 	add	r2, r2, #-2147483648	@ 0x80000000
  4026b8:	e52de004 	push	{lr}		@ (str lr, [sp, #-4]!)
  4026bc:	e592e018 	ldr	lr, [r2, #24]
  4026c0:	e203301e 	and	r3, r3, #30
  4026c4:	e1cec31c 	bic	ip, lr, ip, lsl r3
  4026c8:	e582c018 	str	ip, [r2, #24]
  4026cc:	e592c018 	ldr	ip, [r2, #24]
  4026d0:	e18c3311 	orr	r3, ip, r1, lsl r3
  4026d4:	e5823018 	str	r3, [r2, #24]
  4026d8:	e49de004 	pop	{lr}		@ (ldr lr, [sp], #4)
  4026dc:	e12fff1e 	bx	lr
  4026e0:	e3a00001 	mov	r0, #1
  4026e4:	e12fff1e 	bx	lr

004026e8 <itc_init>:
  4026e8:	e3a0202c 	mov	r2, #44	@ 0x2c
  4026ec:	e92d4010 	push	{r4, lr}
  4026f0:	e3a01000 	mov	r1, #0
  4026f4:	e59f001c 	ldr	r0, [pc, #28]	@ 402718 <itc_init+0x30>
  4026f8:	eb000534 	bl	403bd0 <memset>
  4026fc:	e3a02000 	mov	r2, #0
  402700:	e59f3014 	ldr	r3, [pc, #20]	@ 40271c <itc_init+0x34>
  402704:	e8bd4010 	pop	{r4, lr}
  402708:	e5832034 	str	r2, [r3, #52]	@ 0x34
  40270c:	e5832000 	str	r2, [r3]
  402710:	e5832010 	str	r2, [r3, #16]
  402714:	e12fff1e 	bx	lr
  402718:	0040ed04 	subeq	lr, r0, r4, lsl #26
  40271c:	80020000 	andhi	r0, r2, r0

00402720 <itc_disable_ints>:
  402720:	e3a02000 	mov	r2, #0
  402724:	e59f3010 	ldr	r3, [pc, #16]	@ 40273c <itc_disable_ints+0x1c>
  402728:	e59f1010 	ldr	r1, [pc, #16]	@ 402740 <itc_disable_ints+0x20>
  40272c:	e5930010 	ldr	r0, [r3, #16]
  402730:	e581002c 	str	r0, [r1, #44]	@ 0x2c
  402734:	e5832010 	str	r2, [r3, #16]
  402738:	e12fff1e 	bx	lr
  40273c:	80020000 	andhi	r0, r2, r0
  402740:	0040ed04 	subeq	lr, r0, r4, lsl #26

00402744 <itc_restore_ints>:
  402744:	e59f200c 	ldr	r2, [pc, #12]	@ 402758 <itc_restore_ints+0x14>
  402748:	e59f300c 	ldr	r3, [pc, #12]	@ 40275c <itc_restore_ints+0x18>
  40274c:	e592202c 	ldr	r2, [r2, #44]	@ 0x2c
  402750:	e5832010 	str	r2, [r3, #16]
  402754:	e12fff1e 	bx	lr
  402758:	0040ed04 	subeq	lr, r0, r4, lsl #26
  40275c:	80020000 	andhi	r0, r2, r0

00402760 <itc_set_handler>:
  402760:	e59f3004 	ldr	r3, [pc, #4]	@ 40276c <itc_set_handler+0xc>
  402764:	e7831100 	str	r1, [r3, r0, lsl #2]
  402768:	e12fff1e 	bx	lr
  40276c:	0040ed04 	subeq	lr, r0, r4, lsl #26

00402770 <itc_set_priority>:
  402770:	e3a03001 	mov	r3, #1
  402774:	e3510000 	cmp	r1, #0
  402778:	059f1018 	ldreq	r1, [pc, #24]	@ 402798 <itc_set_priority+0x28>
  40277c:	05912014 	ldreq	r2, [r1, #20]
  402780:	e1a03013 	lsl	r3, r3, r0
  402784:	159f200c 	ldrne	r2, [pc, #12]	@ 402798 <itc_set_priority+0x28>
  402788:	01c23003 	biceq	r3, r2, r3
  40278c:	15823014 	strne	r3, [r2, #20]
  402790:	05813014 	streq	r3, [r1, #20]
  402794:	e12fff1e 	bx	lr
  402798:	80020000 	andhi	r0, r2, r0

0040279c <itc_enable_interrupt>:
  40279c:	e59f3004 	ldr	r3, [pc, #4]	@ 4027a8 <itc_enable_interrupt+0xc>
  4027a0:	e5830008 	str	r0, [r3, #8]
  4027a4:	e12fff1e 	bx	lr
  4027a8:	80020000 	andhi	r0, r2, r0

004027ac <itc_disable_interrupt>:
  4027ac:	e59f3004 	ldr	r3, [pc, #4]	@ 4027b8 <itc_disable_interrupt+0xc>
  4027b0:	e583000c 	str	r0, [r3, #12]
  4027b4:	e12fff1e 	bx	lr
  4027b8:	80020000 	andhi	r0, r2, r0

004027bc <itc_force_interrupt>:
  4027bc:	e3a01001 	mov	r1, #1
  4027c0:	e59f200c 	ldr	r2, [pc, #12]	@ 4027d4 <itc_force_interrupt+0x18>
  4027c4:	e5923034 	ldr	r3, [r2, #52]	@ 0x34
  4027c8:	e1833011 	orr	r3, r3, r1, lsl r0
  4027cc:	e5823034 	str	r3, [r2, #52]	@ 0x34
  4027d0:	e12fff1e 	bx	lr
  4027d4:	80020000 	andhi	r0, r2, r0

004027d8 <itc_unforce_interrupt>:
  4027d8:	e3a01001 	mov	r1, #1
  4027dc:	e59f200c 	ldr	r2, [pc, #12]	@ 4027f0 <itc_unforce_interrupt+0x18>
  4027e0:	e5923034 	ldr	r3, [r2, #52]	@ 0x34
  4027e4:	e1c33011 	bic	r3, r3, r1, lsl r0
  4027e8:	e5823034 	str	r3, [r2, #52]	@ 0x34
  4027ec:	e12fff1e 	bx	lr
  4027f0:	80020000 	andhi	r0, r2, r0

004027f4 <itc_service_normal_interrupt>:
  4027f4:	e59f200c 	ldr	r2, [pc, #12]	@ 402808 <itc_service_normal_interrupt+0x14>
  4027f8:	e59f300c 	ldr	r3, [pc, #12]	@ 40280c <itc_service_normal_interrupt+0x18>
  4027fc:	e5922028 	ldr	r2, [r2, #40]	@ 0x28
  402800:	e7933102 	ldr	r3, [r3, r2, lsl #2]
  402804:	e12fff13 	bx	r3
  402808:	80020000 	andhi	r0, r2, r0
  40280c:	0040ed04 	subeq	lr, r0, r4, lsl #26

00402810 <itc_service_fast_interrupt>:
  402810:	e59f200c 	ldr	r2, [pc, #12]	@ 402824 <itc_service_fast_interrupt+0x14>
  402814:	e59f300c 	ldr	r3, [pc, #12]	@ 402828 <itc_service_fast_interrupt+0x18>
  402818:	e592202c 	ldr	r2, [r2, #44]	@ 0x2c
  40281c:	e7933102 	ldr	r3, [r3, r2, lsl #2]
  402820:	e12fff13 	bx	r3
  402824:	80020000 	andhi	r0, r2, r0
  402828:	0040ed04 	subeq	lr, r0, r4, lsl #26

0040282c <uart_send>:
  40282c:	e3500001 	cmp	r0, #1
  402830:	e92d41f0 	push	{r4, r5, r6, r7, r8, lr}
  402834:	8a00001f 	bhi	4028b8 <uart_send+0x8c>
  402838:	e3510000 	cmp	r1, #0
  40283c:	e1a05001 	mov	r5, r1
  402840:	0a000021 	beq	4028cc <uart_send+0xa0>
  402844:	e59f3090 	ldr	r3, [pc, #144]	@ 4028dc <uart_send+0xb0>
  402848:	e7938100 	ldr	r8, [r3, r0, lsl #2]
  40284c:	e1d830b0 	ldrh	r3, [r8]
  402850:	e59f6088 	ldr	r6, [pc, #136]	@ 4028e0 <uart_send+0xb4>
  402854:	e0800100 	add	r0, r0, r0, lsl #2
  402858:	e3833a02 	orr	r3, r3, #8192	@ 0x2000
  40285c:	e1a07002 	mov	r7, r2
  402860:	e1a04002 	mov	r4, r2
  402864:	e1c830b0 	strh	r3, [r8]
  402868:	e0866100 	add	r6, r6, r0, lsl #2
  40286c:	ea000003 	b	402880 <uart_send+0x54>
  402870:	e1a00006 	mov	r0, r6
  402874:	e4d51001 	ldrb	r1, [r5], #1
  402878:	eb00022b 	bl	40312c <circular_buffer_write>
  40287c:	e2444001 	sub	r4, r4, #1
  402880:	e1a00006 	mov	r0, r6
  402884:	eb00021e 	bl	403104 <circular_buffer_is_full>
  402888:	e2543000 	subs	r3, r4, #0
  40288c:	13a03001 	movne	r3, #1
  402890:	e3500000 	cmp	r0, #0
  402894:	13a03000 	movne	r3, #0
  402898:	e3530000 	cmp	r3, #0
  40289c:	1afffff3 	bne	402870 <uart_send+0x44>
  4028a0:	e1d830b0 	ldrh	r3, [r8]
  4028a4:	e3c33a02 	bic	r3, r3, #8192	@ 0x2000
  4028a8:	e1c830b0 	strh	r3, [r8]
  4028ac:	e0470004 	sub	r0, r7, r4
  4028b0:	e8bd41f0 	pop	{r4, r5, r6, r7, r8, lr}
  4028b4:	e12fff1e 	bx	lr
  4028b8:	eb000491 	bl	403b04 <__errno>
  4028bc:	e3a03013 	mov	r3, #19
  4028c0:	e5803000 	str	r3, [r0]
  4028c4:	e3e00000 	mvn	r0, #0
  4028c8:	eafffff8 	b	4028b0 <uart_send+0x84>
  4028cc:	eb00048c 	bl	403b04 <__errno>
  4028d0:	e3a0300e 	mov	r3, #14
  4028d4:	e5803000 	str	r3, [r0]
  4028d8:	eafffff9 	b	4028c4 <uart_send+0x98>
  4028dc:	0040395c 	subeq	r3, r0, ip, asr r9
  4028e0:	0040ed34 	subeq	lr, r0, r4, lsr sp

004028e4 <uart_1_isr>:
  4028e4:	e92d4070 	push	{r4, r5, r6, lr}
  4028e8:	e59f40f0 	ldr	r4, [pc, #240]	@ 4029e0 <uart_1_isr+0xfc>
  4028ec:	e5943004 	ldr	r3, [r4, #4]
  4028f0:	e5943004 	ldr	r3, [r4, #4]
  4028f4:	e3130040 	tst	r3, #64	@ 0x40
  4028f8:	0a000018 	beq	402960 <uart_1_isr+0x7c>
  4028fc:	e59f50e0 	ldr	r5, [pc, #224]	@ 4029e4 <uart_1_isr+0x100>
  402900:	ea000005 	b	40291c <uart_1_isr+0x38>
  402904:	e594300c 	ldr	r3, [r4, #12]
  402908:	e313003f 	tst	r3, #63	@ 0x3f
  40290c:	0a000006 	beq	40292c <uart_1_isr+0x48>
  402910:	e1a00005 	mov	r0, r5
  402914:	e5d41008 	ldrb	r1, [r4, #8]
  402918:	eb000203 	bl	40312c <circular_buffer_write>
  40291c:	e1a00005 	mov	r0, r5
  402920:	eb0001f7 	bl	403104 <circular_buffer_is_full>
  402924:	e3500000 	cmp	r0, #0
  402928:	0afffff5 	beq	402904 <uart_1_isr+0x20>
  40292c:	e59f60b4 	ldr	r6, [pc, #180]	@ 4029e8 <uart_1_isr+0x104>
  402930:	e5963054 	ldr	r3, [r6, #84]	@ 0x54
  402934:	e3530000 	cmp	r3, #0
  402938:	15963054 	ldrne	r3, [r6, #84]	@ 0x54
  40293c:	11a0e00f 	movne	lr, pc
  402940:	112fff13 	bxne	r3
  402944:	e59f0098 	ldr	r0, [pc, #152]	@ 4029e4 <uart_1_isr+0x100>
  402948:	eb0001ed 	bl	403104 <circular_buffer_is_full>
  40294c:	e3500000 	cmp	r0, #0
  402950:	159f2088 	ldrne	r2, [pc, #136]	@ 4029e0 <uart_1_isr+0xfc>
  402954:	11d230b0 	ldrhne	r3, [r2]
  402958:	13833901 	orrne	r3, r3, #16384	@ 0x4000
  40295c:	11c230b0 	strhne	r3, [r2]
  402960:	e59f4078 	ldr	r4, [pc, #120]	@ 4029e0 <uart_1_isr+0xfc>
  402964:	e5943004 	ldr	r3, [r4, #4]
  402968:	e3130080 	tst	r3, #128	@ 0x80
  40296c:	0a000019 	beq	4029d8 <uart_1_isr+0xf4>
  402970:	e59f6070 	ldr	r6, [pc, #112]	@ 4029e8 <uart_1_isr+0x104>
  402974:	e1a05006 	mov	r5, r6
  402978:	ea000006 	b	402998 <uart_1_isr+0xb4>
  40297c:	e5943010 	ldr	r3, [r4, #16]
  402980:	e313003f 	tst	r3, #63	@ 0x3f
  402984:	0a000007 	beq	4029a8 <uart_1_isr+0xc4>
  402988:	e1a00005 	mov	r0, r5
  40298c:	eb0001fd 	bl	403188 <circular_buffer_read>
  402990:	e20000ff 	and	r0, r0, #255	@ 0xff
  402994:	e5c40008 	strb	r0, [r4, #8]
  402998:	e1a00005 	mov	r0, r5
  40299c:	eb0001de 	bl	40311c <circular_buffer_is_empty>
  4029a0:	e3500000 	cmp	r0, #0
  4029a4:	0afffff4 	beq	40297c <uart_1_isr+0x98>
  4029a8:	e5963050 	ldr	r3, [r6, #80]	@ 0x50
  4029ac:	e3530000 	cmp	r3, #0
  4029b0:	15963050 	ldrne	r3, [r6, #80]	@ 0x50
  4029b4:	11a0e00f 	movne	lr, pc
  4029b8:	112fff13 	bxne	r3
  4029bc:	e59f0024 	ldr	r0, [pc, #36]	@ 4029e8 <uart_1_isr+0x104>
  4029c0:	eb0001d5 	bl	40311c <circular_buffer_is_empty>
  4029c4:	e3500000 	cmp	r0, #0
  4029c8:	159f2010 	ldrne	r2, [pc, #16]	@ 4029e0 <uart_1_isr+0xfc>
  4029cc:	11d230b0 	ldrhne	r3, [r2]
  4029d0:	13833a02 	orrne	r3, r3, #8192	@ 0x2000
  4029d4:	11c230b0 	strhne	r3, [r2]
  4029d8:	e8bd4070 	pop	{r4, r5, r6, lr}
  4029dc:	e12fff1e 	bx	lr
  4029e0:	80005000 	andhi	r5, r0, r0
  4029e4:	0040ed5c 	subeq	lr, r0, ip, asr sp
  4029e8:	0040ed34 	subeq	lr, r0, r4, lsr sp

004029ec <uart_receive>:
  4029ec:	e3500001 	cmp	r0, #1
  4029f0:	e92d41f0 	push	{r4, r5, r6, r7, r8, lr}
  4029f4:	8a00001f 	bhi	402a78 <uart_receive+0x8c>
  4029f8:	e3510000 	cmp	r1, #0
  4029fc:	e1a05001 	mov	r5, r1
  402a00:	0a000021 	beq	402a8c <uart_receive+0xa0>
  402a04:	e59f3090 	ldr	r3, [pc, #144]	@ 402a9c <uart_receive+0xb0>
  402a08:	e7938100 	ldr	r8, [r3, r0, lsl #2]
  402a0c:	e1d830b0 	ldrh	r3, [r8]
  402a10:	e59f6088 	ldr	r6, [pc, #136]	@ 402aa0 <uart_receive+0xb4>
  402a14:	e0800100 	add	r0, r0, r0, lsl #2
  402a18:	e3833901 	orr	r3, r3, #16384	@ 0x4000
  402a1c:	e1a07002 	mov	r7, r2
  402a20:	e1a04002 	mov	r4, r2
  402a24:	e1c830b0 	strh	r3, [r8]
  402a28:	e0866100 	add	r6, r6, r0, lsl #2
  402a2c:	ea000003 	b	402a40 <uart_receive+0x54>
  402a30:	e1a00006 	mov	r0, r6
  402a34:	eb0001d3 	bl	403188 <circular_buffer_read>
  402a38:	e4c50001 	strb	r0, [r5], #1
  402a3c:	e2444001 	sub	r4, r4, #1
  402a40:	e1a00006 	mov	r0, r6
  402a44:	eb0001b4 	bl	40311c <circular_buffer_is_empty>
  402a48:	e2543000 	subs	r3, r4, #0
  402a4c:	13a03001 	movne	r3, #1
  402a50:	e3500000 	cmp	r0, #0
  402a54:	13a03000 	movne	r3, #0
  402a58:	e3530000 	cmp	r3, #0
  402a5c:	1afffff3 	bne	402a30 <uart_receive+0x44>
  402a60:	e1d830b0 	ldrh	r3, [r8]
  402a64:	e3c33901 	bic	r3, r3, #16384	@ 0x4000
  402a68:	e1c830b0 	strh	r3, [r8]
  402a6c:	e0470004 	sub	r0, r7, r4
  402a70:	e8bd41f0 	pop	{r4, r5, r6, r7, r8, lr}
  402a74:	e12fff1e 	bx	lr
  402a78:	eb000421 	bl	403b04 <__errno>
  402a7c:	e3a03013 	mov	r3, #19
  402a80:	e5803000 	str	r3, [r0]
  402a84:	e3e00000 	mvn	r0, #0
  402a88:	eafffff8 	b	402a70 <uart_receive+0x84>
  402a8c:	eb00041c 	bl	403b04 <__errno>
  402a90:	e3a0300e 	mov	r3, #14
  402a94:	e5803000 	str	r3, [r0]
  402a98:	eafffff9 	b	402a84 <uart_receive+0x98>
  402a9c:	0040395c 	subeq	r3, r0, ip, asr r9
  402aa0:	0040ed5c 	subeq	lr, r0, ip, asr sp

00402aa4 <uart_2_isr>:
  402aa4:	e92d4070 	push	{r4, r5, r6, lr}
  402aa8:	e59f40f0 	ldr	r4, [pc, #240]	@ 402ba0 <uart_2_isr+0xfc>
  402aac:	e5943004 	ldr	r3, [r4, #4]
  402ab0:	e5943004 	ldr	r3, [r4, #4]
  402ab4:	e3130040 	tst	r3, #64	@ 0x40
  402ab8:	0a000018 	beq	402b20 <uart_2_isr+0x7c>
  402abc:	e59f50e0 	ldr	r5, [pc, #224]	@ 402ba4 <uart_2_isr+0x100>
  402ac0:	ea000005 	b	402adc <uart_2_isr+0x38>
  402ac4:	e594300c 	ldr	r3, [r4, #12]
  402ac8:	e313003f 	tst	r3, #63	@ 0x3f
  402acc:	0a000006 	beq	402aec <uart_2_isr+0x48>
  402ad0:	e1a00005 	mov	r0, r5
  402ad4:	e5d41008 	ldrb	r1, [r4, #8]
  402ad8:	eb000193 	bl	40312c <circular_buffer_write>
  402adc:	e1a00005 	mov	r0, r5
  402ae0:	eb000187 	bl	403104 <circular_buffer_is_full>
  402ae4:	e3500000 	cmp	r0, #0
  402ae8:	0afffff5 	beq	402ac4 <uart_2_isr+0x20>
  402aec:	e59f30b4 	ldr	r3, [pc, #180]	@ 402ba8 <uart_2_isr+0x104>
  402af0:	e593205c 	ldr	r2, [r3, #92]	@ 0x5c
  402af4:	e3520000 	cmp	r2, #0
  402af8:	1593305c 	ldrne	r3, [r3, #92]	@ 0x5c
  402afc:	11a0e00f 	movne	lr, pc
  402b00:	112fff13 	bxne	r3
  402b04:	e1a00005 	mov	r0, r5
  402b08:	eb00017d 	bl	403104 <circular_buffer_is_full>
  402b0c:	e3500000 	cmp	r0, #0
  402b10:	159f2088 	ldrne	r2, [pc, #136]	@ 402ba0 <uart_2_isr+0xfc>
  402b14:	11d230b0 	ldrhne	r3, [r2]
  402b18:	13833901 	orrne	r3, r3, #16384	@ 0x4000
  402b1c:	11c230b0 	strhne	r3, [r2]
  402b20:	e59f4078 	ldr	r4, [pc, #120]	@ 402ba0 <uart_2_isr+0xfc>
  402b24:	e5943004 	ldr	r3, [r4, #4]
  402b28:	e3130080 	tst	r3, #128	@ 0x80
  402b2c:	0a000019 	beq	402b98 <uart_2_isr+0xf4>
  402b30:	e59f5074 	ldr	r5, [pc, #116]	@ 402bac <uart_2_isr+0x108>
  402b34:	ea000006 	b	402b54 <uart_2_isr+0xb0>
  402b38:	e5943010 	ldr	r3, [r4, #16]
  402b3c:	e313003f 	tst	r3, #63	@ 0x3f
  402b40:	0a000007 	beq	402b64 <uart_2_isr+0xc0>
  402b44:	e1a00005 	mov	r0, r5
  402b48:	eb00018e 	bl	403188 <circular_buffer_read>
  402b4c:	e20000ff 	and	r0, r0, #255	@ 0xff
  402b50:	e5c40008 	strb	r0, [r4, #8]
  402b54:	e1a00005 	mov	r0, r5
  402b58:	eb00016f 	bl	40311c <circular_buffer_is_empty>
  402b5c:	e3500000 	cmp	r0, #0
  402b60:	0afffff4 	beq	402b38 <uart_2_isr+0x94>
  402b64:	e59f303c 	ldr	r3, [pc, #60]	@ 402ba8 <uart_2_isr+0x104>
  402b68:	e5932058 	ldr	r2, [r3, #88]	@ 0x58
  402b6c:	e3520000 	cmp	r2, #0
  402b70:	15933058 	ldrne	r3, [r3, #88]	@ 0x58
  402b74:	11a0e00f 	movne	lr, pc
  402b78:	112fff13 	bxne	r3
  402b7c:	e59f0028 	ldr	r0, [pc, #40]	@ 402bac <uart_2_isr+0x108>
  402b80:	eb000165 	bl	40311c <circular_buffer_is_empty>
  402b84:	e3500000 	cmp	r0, #0
  402b88:	159f2010 	ldrne	r2, [pc, #16]	@ 402ba0 <uart_2_isr+0xfc>
  402b8c:	11d230b0 	ldrhne	r3, [r2]
  402b90:	13833a02 	orrne	r3, r3, #8192	@ 0x2000
  402b94:	11c230b0 	strhne	r3, [r2]
  402b98:	e8bd4070 	pop	{r4, r5, r6, lr}
  402b9c:	e12fff1e 	bx	lr
  402ba0:	8000b000 	andhi	fp, r0, r0
  402ba4:	0040ed70 	subeq	lr, r0, r0, ror sp
  402ba8:	0040ed34 	subeq	lr, r0, r4, lsr sp
  402bac:	0040ed48 	subeq	lr, r0, r8, asr #26

00402bb0 <uart_init>:
  402bb0:	e92d4ff0 	push	{r4, r5, r6, r7, r8, r9, sl, fp, lr}
  402bb4:	e3500001 	cmp	r0, #1
  402bb8:	e24dd024 	sub	sp, sp, #36	@ 0x24
  402bbc:	8a000068 	bhi	402d64 <uart_init+0x1b4>
  402bc0:	e3520000 	cmp	r2, #0
  402bc4:	e1a07002 	mov	r7, r2
  402bc8:	0a00006a 	beq	402d78 <uart_init+0x1c8>
  402bcc:	e3a03a06 	mov	r3, #24576	@ 0x6000
  402bd0:	e59f61b0 	ldr	r6, [pc, #432]	@ 402d88 <uart_init+0x1d8>
  402bd4:	e7965100 	ldr	r5, [r6, r0, lsl #2]
  402bd8:	e5853000 	str	r3, [r5]
  402bdc:	e0813181 	add	r3, r1, r1, lsl #3
  402be0:	e0813083 	add	r3, r1, r3, lsl #1
  402be4:	e0611203 	rsb	r1, r1, r3, lsl #4
  402be8:	e59f319c 	ldr	r3, [pc, #412]	@ 402d8c <uart_init+0x1dc>
  402bec:	e0811281 	add	r1, r1, r1, lsl #5
  402bf0:	e0812193 	umull	r2, r1, r3, r1
  402bf4:	e1a04000 	mov	r4, r0
  402bf8:	e59f3190 	ldr	r3, [pc, #400]	@ 402d90 <uart_init+0x1e0>
  402bfc:	e1a018a1 	lsr	r1, r1, #17
  402c00:	e1833801 	orr	r3, r3, r1, lsl #16
  402c04:	e5853018 	str	r3, [r5, #24]
  402c08:	e0866100 	add	r6, r6, r0, lsl #2
  402c0c:	e5953000 	ldr	r3, [r5]
  402c10:	e5d62008 	ldrb	r2, [r6, #8]
  402c14:	e3833003 	orr	r3, r3, #3
  402c18:	e5853000 	str	r3, [r5]
  402c1c:	e1a09100 	lsl	r9, r0, #2
  402c20:	e3a01001 	mov	r1, #1
  402c24:	e1a00002 	mov	r0, r2
  402c28:	e3a08000 	mov	r8, #0
  402c2c:	e58d201c 	str	r2, [sp, #28]
  402c30:	ebfffe95 	bl	40268c <gpio_set_pin_func>
  402c34:	e5d6b009 	ldrb	fp, [r6, #9]
  402c38:	e3a01001 	mov	r1, #1
  402c3c:	e1a0000b 	mov	r0, fp
  402c40:	ebfffe91 	bl	40268c <gpio_set_pin_func>
  402c44:	e5d6300a 	ldrb	r3, [r6, #10]
  402c48:	e3a01001 	mov	r1, #1
  402c4c:	e1a00003 	mov	r0, r3
  402c50:	e58d3018 	str	r3, [sp, #24]
  402c54:	ebfffe8c 	bl	40268c <gpio_set_pin_func>
  402c58:	e5d6a00b 	ldrb	sl, [r6, #11]
  402c5c:	e3a01001 	mov	r1, #1
  402c60:	e1a0000a 	mov	r0, sl
  402c64:	ebfffe88 	bl	40268c <gpio_set_pin_func>
  402c68:	e59d201c 	ldr	r2, [sp, #28]
  402c6c:	e1a00002 	mov	r0, r2
  402c70:	ebfffe1f 	bl	4024f4 <gpio_set_pin_dir_output>
  402c74:	e59d3018 	ldr	r3, [sp, #24]
  402c78:	e1a00003 	mov	r0, r3
  402c7c:	ebfffe1c 	bl	4024f4 <gpio_set_pin_dir_output>
  402c80:	e1a0000b 	mov	r0, fp
  402c84:	ebfffe0f 	bl	4024c8 <gpio_set_pin_dir_input>
  402c88:	e1a0000a 	mov	r0, sl
  402c8c:	ebfffe0d 	bl	4024c8 <gpio_set_pin_dir_input>
  402c90:	e0893004 	add	r3, r9, r4
  402c94:	e59f90f8 	ldr	r9, [pc, #248]	@ 402d94 <uart_init+0x1e4>
  402c98:	e2891060 	add	r1, r9, #96	@ 0x60
  402c9c:	e2890028 	add	r0, r9, #40	@ 0x28
  402ca0:	e0800103 	add	r0, r0, r3, lsl #2
  402ca4:	e3a02c01 	mov	r2, #256	@ 0x100
  402ca8:	e0811404 	add	r1, r1, r4, lsl #8
  402cac:	e1a0a103 	lsl	sl, r3, #2
  402cb0:	eb00010c 	bl	4030e8 <circular_buffer_init>
  402cb4:	e1a03404 	lsl	r3, r4, #8
  402cb8:	e2891e26 	add	r1, r9, #608	@ 0x260
  402cbc:	e3a02c01 	mov	r2, #256	@ 0x100
  402cc0:	e089000a 	add	r0, r9, sl
  402cc4:	e0811003 	add	r1, r1, r3
  402cc8:	eb000106 	bl	4030e8 <circular_buffer_init>
  402ccc:	e5d53010 	ldrb	r3, [r5, #16]
  402cd0:	e383301f 	orr	r3, r3, #31
  402cd4:	e5c53010 	strb	r3, [r5, #16]
  402cd8:	e5d5300c 	ldrb	r3, [r5, #12]
  402cdc:	e284a001 	add	sl, r4, #1
  402ce0:	e3c3301e 	bic	r3, r3, #30
  402ce4:	e3833001 	orr	r3, r3, #1
  402ce8:	e20aa0ff 	and	sl, sl, #255	@ 0xff
  402cec:	e5c5300c 	strb	r3, [r5, #12]
  402cf0:	e1a01008 	mov	r1, r8
  402cf4:	e1a0000a 	mov	r0, sl
  402cf8:	ebfffe9c 	bl	402770 <itc_set_priority>
  402cfc:	e5961010 	ldr	r1, [r6, #16]
  402d00:	e1a0000a 	mov	r0, sl
  402d04:	ebfffe95 	bl	402760 <itc_set_handler>
  402d08:	e0899184 	add	r9, r9, r4, lsl #3
  402d0c:	e1a0000a 	mov	r0, sl
  402d10:	ebfffea1 	bl	40279c <itc_enable_interrupt>
  402d14:	e5898050 	str	r8, [r9, #80]	@ 0x50
  402d18:	e5898054 	str	r8, [r9, #84]	@ 0x54
  402d1c:	e1d530b0 	ldrh	r3, [r5]
  402d20:	e3c33901 	bic	r3, r3, #16384	@ 0x4000
  402d24:	e1c530b0 	strh	r3, [r5]
  402d28:	e59f2068 	ldr	r2, [pc, #104]	@ 402d98 <uart_init+0x1e8>
  402d2c:	e59f3068 	ldr	r3, [pc, #104]	@ 402d9c <uart_init+0x1ec>
  402d30:	e98d0104 	stmib	sp, {r2, r8}
  402d34:	e58d3000 	str	r3, [sp]
  402d38:	e1a01004 	mov	r1, r4
  402d3c:	e1a00007 	mov	r0, r7
  402d40:	e1a03008 	mov	r3, r8
  402d44:	e1a02008 	mov	r2, r8
  402d48:	e58d8010 	str	r8, [sp, #16]
  402d4c:	e58d800c 	str	r8, [sp, #12]
  402d50:	eb000144 	bl	403268 <bsp_register_dev>
  402d54:	e1a00008 	mov	r0, r8
  402d58:	e28dd024 	add	sp, sp, #36	@ 0x24
  402d5c:	e8bd4ff0 	pop	{r4, r5, r6, r7, r8, r9, sl, fp, lr}
  402d60:	e12fff1e 	bx	lr
  402d64:	eb000366 	bl	403b04 <__errno>
  402d68:	e3a03013 	mov	r3, #19
  402d6c:	e5803000 	str	r3, [r0]
  402d70:	e3e00000 	mvn	r0, #0
  402d74:	eafffff7 	b	402d58 <uart_init+0x1a8>
  402d78:	eb000361 	bl	403b04 <__errno>
  402d7c:	e3a0300e 	mov	r3, #14
  402d80:	e5803000 	str	r3, [r0]
  402d84:	eafffff9 	b	402d70 <uart_init+0x1c0>
  402d88:	0040395c 	subeq	r3, r0, ip, asr r9
  402d8c:	165e9f81 	ldrbne	r9, [lr], -r1, lsl #31
  402d90:	0000270f 	andeq	r2, r0, pc, lsl #14
  402d94:	0040ed34 	subeq	lr, r0, r4, lsr sp
  402d98:	0040282c 	subeq	r2, r0, ip, lsr #16
  402d9c:	004029ec 	subeq	r2, r0, ip, ror #19

00402da0 <uart_send_byte>:
  402da0:	e92d41f0 	push	{r4, r5, r6, r7, r8, lr}
  402da4:	e1a07001 	mov	r7, r1
  402da8:	e59f307c 	ldr	r3, [pc, #124]	@ 402e2c <uart_send_byte+0x8c>
  402dac:	e7934100 	ldr	r4, [r3, r0, lsl #2]
  402db0:	e5946000 	ldr	r6, [r4]
  402db4:	e1d430b0 	ldrh	r3, [r4]
  402db8:	e59f5070 	ldr	r5, [pc, #112]	@ 402e30 <uart_send_byte+0x90>
  402dbc:	e3833a02 	orr	r3, r3, #8192	@ 0x2000
  402dc0:	e0800100 	add	r0, r0, r0, lsl #2
  402dc4:	e1a066a6 	lsr	r6, r6, #13
  402dc8:	e1c430b0 	strh	r3, [r4]
  402dcc:	e0855100 	add	r5, r5, r0, lsl #2
  402dd0:	e2066001 	and	r6, r6, #1
  402dd4:	e1a00005 	mov	r0, r5
  402dd8:	eb0000cf 	bl	40311c <circular_buffer_is_empty>
  402ddc:	e3500000 	cmp	r0, #0
  402de0:	1a000007 	bne	402e04 <uart_send_byte+0x64>
  402de4:	e5943010 	ldr	r3, [r4, #16]
  402de8:	e313003f 	tst	r3, #63	@ 0x3f
  402dec:	0afffff8 	beq	402dd4 <uart_send_byte+0x34>
  402df0:	e1a00005 	mov	r0, r5
  402df4:	eb0000e3 	bl	403188 <circular_buffer_read>
  402df8:	e20000ff 	and	r0, r0, #255	@ 0xff
  402dfc:	e5c40008 	strb	r0, [r4, #8]
  402e00:	eafffff7 	b	402de4 <uart_send_byte+0x44>
  402e04:	e5943010 	ldr	r3, [r4, #16]
  402e08:	e313003f 	tst	r3, #63	@ 0x3f
  402e0c:	0afffffc 	beq	402e04 <uart_send_byte+0x64>
  402e10:	e5c47008 	strb	r7, [r4, #8]
  402e14:	e1d430b0 	ldrh	r3, [r4]
  402e18:	e3c33a02 	bic	r3, r3, #8192	@ 0x2000
  402e1c:	e1833686 	orr	r3, r3, r6, lsl #13
  402e20:	e1c430b0 	strh	r3, [r4]
  402e24:	e8bd41f0 	pop	{r4, r5, r6, r7, r8, lr}
  402e28:	e12fff1e 	bx	lr
  402e2c:	0040395c 	subeq	r3, r0, ip, asr r9
  402e30:	0040ed34 	subeq	lr, r0, r4, lsr sp

00402e34 <uart_receive_byte>:
  402e34:	e92d4070 	push	{r4, r5, r6, lr}
  402e38:	e59f3070 	ldr	r3, [pc, #112]	@ 402eb0 <uart_receive_byte+0x7c>
  402e3c:	e7934100 	ldr	r4, [r3, r0, lsl #2]
  402e40:	e59f606c 	ldr	r6, [pc, #108]	@ 402eb4 <uart_receive_byte+0x80>
  402e44:	e5945000 	ldr	r5, [r4]
  402e48:	e1d430b0 	ldrh	r3, [r4]
  402e4c:	e0800100 	add	r0, r0, r0, lsl #2
  402e50:	e3833901 	orr	r3, r3, #16384	@ 0x4000
  402e54:	e0866100 	add	r6, r6, r0, lsl #2
  402e58:	e1a00006 	mov	r0, r6
  402e5c:	e1c430b0 	strh	r3, [r4]
  402e60:	eb0000ad 	bl	40311c <circular_buffer_is_empty>
  402e64:	e1a05725 	lsr	r5, r5, #14
  402e68:	e3500000 	cmp	r0, #0
  402e6c:	e2055001 	and	r5, r5, #1
  402e70:	0a00000a 	beq	402ea0 <uart_receive_byte+0x6c>
  402e74:	e594300c 	ldr	r3, [r4, #12]
  402e78:	e313003f 	tst	r3, #63	@ 0x3f
  402e7c:	0afffffc 	beq	402e74 <uart_receive_byte+0x40>
  402e80:	e5d40008 	ldrb	r0, [r4, #8]
  402e84:	e20000ff 	and	r0, r0, #255	@ 0xff
  402e88:	e1d430b0 	ldrh	r3, [r4]
  402e8c:	e3c33901 	bic	r3, r3, #16384	@ 0x4000
  402e90:	e1833705 	orr	r3, r3, r5, lsl #14
  402e94:	e1c430b0 	strh	r3, [r4]
  402e98:	e8bd4070 	pop	{r4, r5, r6, lr}
  402e9c:	e12fff1e 	bx	lr
  402ea0:	e1a00006 	mov	r0, r6
  402ea4:	eb0000b7 	bl	403188 <circular_buffer_read>
  402ea8:	e20000ff 	and	r0, r0, #255	@ 0xff
  402eac:	eafffff5 	b	402e88 <uart_receive_byte+0x54>
  402eb0:	0040395c 	subeq	r3, r0, ip, asr r9
  402eb4:	0040ed5c 	subeq	lr, r0, ip, asr sp

00402eb8 <uart_set_receive_callback>:
  402eb8:	e3500001 	cmp	r0, #1
  402ebc:	8a000005 	bhi	402ed8 <uart_set_receive_callback+0x20>
  402ec0:	e1a03000 	mov	r3, r0
  402ec4:	e59f202c 	ldr	r2, [pc, #44]	@ 402ef8 <uart_set_receive_callback+0x40>
  402ec8:	e0823183 	add	r3, r2, r3, lsl #3
  402ecc:	e3a00000 	mov	r0, #0
  402ed0:	e5831054 	str	r1, [r3, #84]	@ 0x54
  402ed4:	e12fff1e 	bx	lr
  402ed8:	e92d4010 	push	{r4, lr}
  402edc:	eb000308 	bl	403b04 <__errno>
  402ee0:	e3a02013 	mov	r2, #19
  402ee4:	e1a03000 	mov	r3, r0
  402ee8:	e8bd4010 	pop	{r4, lr}
  402eec:	e3e00000 	mvn	r0, #0
  402ef0:	e5832000 	str	r2, [r3]
  402ef4:	e12fff1e 	bx	lr
  402ef8:	0040ed34 	subeq	lr, r0, r4, lsr sp

00402efc <uart_set_send_callback>:
  402efc:	e3500001 	cmp	r0, #1
  402f00:	8a000005 	bhi	402f1c <uart_set_send_callback+0x20>
  402f04:	e1a03000 	mov	r3, r0
  402f08:	e59f202c 	ldr	r2, [pc, #44]	@ 402f3c <uart_set_send_callback+0x40>
  402f0c:	e0823183 	add	r3, r2, r3, lsl #3
  402f10:	e3a00000 	mov	r0, #0
  402f14:	e5831050 	str	r1, [r3, #80]	@ 0x50
  402f18:	e12fff1e 	bx	lr
  402f1c:	e92d4010 	push	{r4, lr}
  402f20:	eb0002f7 	bl	403b04 <__errno>
  402f24:	e3a02013 	mov	r2, #19
  402f28:	e1a03000 	mov	r3, r0
  402f2c:	e8bd4010 	pop	{r4, lr}
  402f30:	e3e00000 	mvn	r0, #0
  402f34:	e5832000 	str	r2, [r3]
  402f38:	e12fff1e 	bx	lr
  402f3c:	0040ed34 	subeq	lr, r0, r4, lsr sp

00402f40 <TimerInt_Init>:
  402f40:	e92d4010 	push	{r4, lr}
  402f44:	e1a04000 	mov	r4, r0
  402f48:	e59f00c8 	ldr	r0, [pc, #200]	@ 403018 <TimerInt_Init+0xd8>
  402f4c:	eb0001d1 	bl	403698 <__divsi3>
  402f50:	e3540003 	cmp	r4, #3
  402f54:	93a01001 	movls	r1, #1
  402f58:	959f20bc 	ldrls	r2, [pc, #188]	@ 40301c <TimerInt_Init+0xdc>
  402f5c:	91d231b8 	ldrhls	r3, [r2, #24]
  402f60:	e3a0e020 	mov	lr, #32
  402f64:	91c33411 	bicls	r3, r3, r1, lsl r4
  402f68:	e3a0c041 	mov	ip, #65	@ 0x41
  402f6c:	e3a01000 	mov	r1, #0
  402f70:	91c231b8 	strhls	r3, [r2, #24]
  402f74:	e0843084 	add	r3, r4, r4, lsl #1
  402f78:	e0843103 	add	r3, r4, r3, lsl #2
  402f7c:	e1a03083 	lsl	r3, r3, #1
  402f80:	e2833102 	add	r3, r3, #-2147483648	@ 0x80000000
  402f84:	e1a02800 	lsl	r2, r0, #16
  402f88:	e2833a07 	add	r3, r3, #28672	@ 0x7000
  402f8c:	e1a02822 	lsr	r2, r2, #16
  402f90:	e1c3e0bc 	strh	lr, [r3, #12]
  402f94:	e1c310be 	strh	r1, [r3, #14]
  402f98:	e1c310b6 	strh	r1, [r3, #6]
  402f9c:	e1c320b0 	strh	r2, [r3]
  402fa0:	e1c321b0 	strh	r2, [r3, #16]
  402fa4:	e1c3c1b4 	strh	ip, [r3, #20]
  402fa8:	e1d320bc 	ldrh	r2, [r3, #12]
  402fac:	e3822c1e 	orr	r2, r2, #7680	@ 0x1e00
  402fb0:	e1c320bc 	strh	r2, [r3, #12]
  402fb4:	e1c310ba 	strh	r1, [r3, #10]
  402fb8:	e1d320bc 	ldrh	r2, [r3, #12]
  402fbc:	e3c22903 	bic	r2, r2, #49152	@ 0xc000
  402fc0:	e3822a02 	orr	r2, r2, #8192	@ 0x2000
  402fc4:	e1c320bc 	strh	r2, [r3, #12]
  402fc8:	e1d320be 	ldrh	r2, [r3, #14]
  402fcc:	e3c22902 	bic	r2, r2, #32768	@ 0x8000
  402fd0:	e1c320be 	strh	r2, [r3, #14]
  402fd4:	e1d321b4 	ldrh	r2, [r3, #20]
  402fd8:	e3c22010 	bic	r2, r2, #16
  402fdc:	e1c321b4 	strh	r2, [r3, #20]
  402fe0:	e1d321b4 	ldrh	r2, [r3, #20]
  402fe4:	e3540003 	cmp	r4, #3
  402fe8:	e3c22020 	bic	r2, r2, #32
  402fec:	e1c321b4 	strh	r2, [r3, #20]
  402ff0:	8a000006 	bhi	403010 <TimerInt_Init+0xd0>
  402ff4:	e3a01001 	mov	r1, #1
  402ff8:	e59f201c 	ldr	r2, [pc, #28]	@ 40301c <TimerInt_Init+0xdc>
  402ffc:	e1d231b8 	ldrh	r3, [r2, #24]
  403000:	e1833411 	orr	r3, r3, r1, lsl r4
  403004:	e1a03803 	lsl	r3, r3, #16
  403008:	e1a03823 	lsr	r3, r3, #16
  40300c:	e1c231b8 	strh	r3, [r2, #24]
  403010:	e8bd4010 	pop	{r4, lr}
  403014:	e12fff1e 	bx	lr
  403018:	0002dc6c 	andeq	sp, r2, ip, ror #24
  40301c:	80007000 	andhi	r7, r0, r0

00403020 <timerEnable>:
  403020:	e3500003 	cmp	r0, #3
  403024:	812fff1e 	bxhi	lr
  403028:	e3a01001 	mov	r1, #1
  40302c:	e59f2014 	ldr	r2, [pc, #20]	@ 403048 <timerEnable+0x28>
  403030:	e1d231b8 	ldrh	r3, [r2, #24]
  403034:	e1833011 	orr	r3, r3, r1, lsl r0
  403038:	e1a03803 	lsl	r3, r3, #16
  40303c:	e1a03823 	lsr	r3, r3, #16
  403040:	e1c231b8 	strh	r3, [r2, #24]
  403044:	e12fff1e 	bx	lr
  403048:	80007000 	andhi	r7, r0, r0

0040304c <timerDisable>:
  40304c:	e3500003 	cmp	r0, #3
  403050:	93a01001 	movls	r1, #1
  403054:	959f200c 	ldrls	r2, [pc, #12]	@ 403068 <timerDisable+0x1c>
  403058:	91d231b8 	ldrhls	r3, [r2, #24]
  40305c:	91c33011 	bicls	r3, r3, r1, lsl r0
  403060:	91c231b8 	strhls	r3, [r2, #24]
  403064:	e12fff1e 	bx	lr
  403068:	80007000 	andhi	r7, r0, r0

0040306c <clearInt>:
  40306c:	e0803080 	add	r3, r0, r0, lsl #1
  403070:	e0800103 	add	r0, r0, r3, lsl #2
  403074:	e1a00080 	lsl	r0, r0, #1
  403078:	e2800102 	add	r0, r0, #-2147483648	@ 0x80000000
  40307c:	e2800a07 	add	r0, r0, #28672	@ 0x7000
  403080:	e1d030be 	ldrh	r3, [r0, #14]
  403084:	e3c33902 	bic	r3, r3, #32768	@ 0x8000
  403088:	e1c030be 	strh	r3, [r0, #14]
  40308c:	e1d031b4 	ldrh	r3, [r0, #20]
  403090:	e3c33010 	bic	r3, r3, #16
  403094:	e1c031b4 	strh	r3, [r0, #20]
  403098:	e1d031b4 	ldrh	r3, [r0, #20]
  40309c:	e3c33020 	bic	r3, r3, #32
  4030a0:	e1c031b4 	strh	r3, [r0, #20]
  4030a4:	e12fff1e 	bx	lr

004030a8 <getIntTmr>:
  4030a8:	e59f2034 	ldr	r2, [pc, #52]	@ 4030e4 <getIntTmr+0x3c>
  4030ac:	e1d230be 	ldrh	r3, [r2, #14]
  4030b0:	e1d202b8 	ldrh	r0, [r2, #40]	@ 0x28
  4030b4:	e1a037a3 	lsr	r3, r3, #15
  4030b8:	e1b007a0 	lsrs	r0, r0, #15
  4030bc:	02233001 	eoreq	r3, r3, #1
  4030c0:	01a00103 	lsleq	r0, r3, #2
  4030c4:	e59f3018 	ldr	r3, [pc, #24]	@ 4030e4 <getIntTmr+0x3c>
  4030c8:	e1d324b2 	ldrh	r2, [r3, #66]	@ 0x42
  4030cc:	e1d335bc 	ldrh	r3, [r3, #92]	@ 0x5c
  4030d0:	e1b027a2 	lsrs	r2, r2, #15
  4030d4:	13a00002 	movne	r0, #2
  4030d8:	e1b037a3 	lsrs	r3, r3, #15
  4030dc:	13a00003 	movne	r0, #3
  4030e0:	e12fff1e 	bx	lr
  4030e4:	80007000 	andhi	r7, r0, r0

004030e8 <circular_buffer_init>:
  4030e8:	e3a03000 	mov	r3, #0
  4030ec:	e5801000 	str	r1, [r0]
  4030f0:	e5802004 	str	r2, [r0, #4]
  4030f4:	e5803008 	str	r3, [r0, #8]
  4030f8:	e580300c 	str	r3, [r0, #12]
  4030fc:	e5803010 	str	r3, [r0, #16]
  403100:	e12fff1e 	bx	lr

00403104 <circular_buffer_is_full>:
  403104:	e5902010 	ldr	r2, [r0, #16]
  403108:	e5900004 	ldr	r0, [r0, #4]
  40310c:	e0423000 	sub	r3, r2, r0
  403110:	e2730000 	rsbs	r0, r3, #0
  403114:	e0a00003 	adc	r0, r0, r3
  403118:	e12fff1e 	bx	lr

0040311c <circular_buffer_is_empty>:
  40311c:	e5900010 	ldr	r0, [r0, #16]
  403120:	e2700001 	rsbs	r0, r0, #1
  403124:	33a00000 	movcc	r0, #0
  403128:	e12fff1e 	bx	lr

0040312c <circular_buffer_write>:
  40312c:	e1a03000 	mov	r3, r0
  403130:	e5900010 	ldr	r0, [r0, #16]
  403134:	e5932004 	ldr	r2, [r3, #4]
  403138:	e1500002 	cmp	r0, r2
  40313c:	0a00000f 	beq	403180 <circular_buffer_write+0x54>
  403140:	e5930000 	ldr	r0, [r3]
  403144:	e593200c 	ldr	r2, [r3, #12]
  403148:	e7c01002 	strb	r1, [r0, r2]
  40314c:	e5932010 	ldr	r2, [r3, #16]
  403150:	e2822001 	add	r2, r2, #1
  403154:	e5832010 	str	r2, [r3, #16]
  403158:	e593200c 	ldr	r2, [r3, #12]
  40315c:	e2822001 	add	r2, r2, #1
  403160:	e583200c 	str	r2, [r3, #12]
  403164:	e593000c 	ldr	r0, [r3, #12]
  403168:	e5932004 	ldr	r2, [r3, #4]
  40316c:	e1500002 	cmp	r0, r2
  403170:	03a02000 	moveq	r2, #0
  403174:	e1a00001 	mov	r0, r1
  403178:	0583200c 	streq	r2, [r3, #12]
  40317c:	e12fff1e 	bx	lr
  403180:	e3e00000 	mvn	r0, #0
  403184:	e12fff1e 	bx	lr

00403188 <circular_buffer_read>:
  403188:	e5903010 	ldr	r3, [r0, #16]
  40318c:	e3530000 	cmp	r3, #0
  403190:	0a00000f 	beq	4031d4 <circular_buffer_read+0x4c>
  403194:	e5901000 	ldr	r1, [r0]
  403198:	e5902008 	ldr	r2, [r0, #8]
  40319c:	e5903010 	ldr	r3, [r0, #16]
  4031a0:	e2433001 	sub	r3, r3, #1
  4031a4:	e7d12002 	ldrb	r2, [r1, r2]
  4031a8:	e5803010 	str	r3, [r0, #16]
  4031ac:	e5903008 	ldr	r3, [r0, #8]
  4031b0:	e2833001 	add	r3, r3, #1
  4031b4:	e5803008 	str	r3, [r0, #8]
  4031b8:	e5901008 	ldr	r1, [r0, #8]
  4031bc:	e5903004 	ldr	r3, [r0, #4]
  4031c0:	e1510003 	cmp	r1, r3
  4031c4:	03a03000 	moveq	r3, #0
  4031c8:	05803008 	streq	r3, [r0, #8]
  4031cc:	e1a00002 	mov	r0, r2
  4031d0:	e12fff1e 	bx	lr
  4031d4:	e3e00000 	mvn	r0, #0
  4031d8:	e12fff1e 	bx	lr

004031dc <bsp_init>:
  4031dc:	e92d4070 	push	{r4, r5, r6, lr}
  4031e0:	e59f4070 	ldr	r4, [pc, #112]	@ 403258 <bsp_init+0x7c>
  4031e4:	e59f5070 	ldr	r5, [pc, #112]	@ 40325c <bsp_init+0x80>
  4031e8:	eb0000cf 	bl	40352c <excep_init>
  4031ec:	ebfffd3d 	bl	4026e8 <itc_init>
  4031f0:	e1a02004 	mov	r2, r4
  4031f4:	e1a01005 	mov	r1, r5
  4031f8:	e3a00000 	mov	r0, #0
  4031fc:	ebfffe6b 	bl	402bb0 <uart_init>
  403200:	e1a01005 	mov	r1, r5
  403204:	e59f2054 	ldr	r2, [pc, #84]	@ 403260 <bsp_init+0x84>
  403208:	e3a00001 	mov	r0, #1
  40320c:	ebfffe67 	bl	402bb0 <uart_init>
  403210:	e3a02000 	mov	r2, #0
  403214:	e59f5048 	ldr	r5, [pc, #72]	@ 403264 <bsp_init+0x88>
  403218:	e1a01004 	mov	r1, r4
  40321c:	e1a03005 	mov	r3, r5
  403220:	e1a00002 	mov	r0, r2
  403224:	eb000077 	bl	403408 <redirect_fd>
  403228:	e3a02001 	mov	r2, #1
  40322c:	e1a03005 	mov	r3, r5
  403230:	e1a01004 	mov	r1, r4
  403234:	e1a00002 	mov	r0, r2
  403238:	eb000072 	bl	403408 <redirect_fd>
  40323c:	e1a03005 	mov	r3, r5
  403240:	e1a01004 	mov	r1, r4
  403244:	e3a02001 	mov	r2, #1
  403248:	e3a00002 	mov	r0, #2
  40324c:	eb00006d 	bl	403408 <redirect_fd>
  403250:	e8bd4070 	pop	{r4, r5, r6, lr}
  403254:	e12fff1e 	bx	lr
  403258:	00403974 	subeq	r3, r0, r4, ror r9
  40325c:	0001c200 	andeq	ip, r1, r0, lsl #4
  403260:	00403980 	subeq	r3, r0, r0, lsl #19
  403264:	000001ff 	strdeq	r0, [r0], -pc	@ <UNPREDICTABLE>

00403268 <bsp_register_dev>:
  403268:	e92d4010 	push	{r4, lr}
  40326c:	e59f4068 	ldr	r4, [pc, #104]	@ 4032dc <bsp_register_dev+0x74>
  403270:	e594c000 	ldr	ip, [r4]
  403274:	e35c0007 	cmp	ip, #7
  403278:	8a000015 	bhi	4032d4 <bsp_register_dev+0x6c>
  40327c:	e1a0e000 	mov	lr, r0
  403280:	e1a0000c 	mov	r0, ip
  403284:	e08cc18c 	add	ip, ip, ip, lsl #3
  403288:	e084c10c 	add	ip, r4, ip, lsl #2
  40328c:	e58c3010 	str	r3, [ip, #16]
  403290:	e59d3008 	ldr	r3, [sp, #8]
  403294:	e58c3014 	str	r3, [ip, #20]
  403298:	e59d300c 	ldr	r3, [sp, #12]
  40329c:	e58c3018 	str	r3, [ip, #24]
  4032a0:	e59d3010 	ldr	r3, [sp, #16]
  4032a4:	e58c301c 	str	r3, [ip, #28]
  4032a8:	e59d3014 	ldr	r3, [sp, #20]
  4032ac:	e58c3020 	str	r3, [ip, #32]
  4032b0:	e59d3018 	ldr	r3, [sp, #24]
  4032b4:	e58c3024 	str	r3, [ip, #36]	@ 0x24
  4032b8:	e2803001 	add	r3, r0, #1
  4032bc:	e58ce004 	str	lr, [ip, #4]
  4032c0:	e58c1008 	str	r1, [ip, #8]
  4032c4:	e58c200c 	str	r2, [ip, #12]
  4032c8:	e5843000 	str	r3, [r4]
  4032cc:	e8bd4010 	pop	{r4, lr}
  4032d0:	e12fff1e 	bx	lr
  4032d4:	e3e00000 	mvn	r0, #0
  4032d8:	eafffffb 	b	4032cc <bsp_register_dev+0x64>
  4032dc:	004039a0 	subeq	r3, r0, r0, lsr #19

004032e0 <find_dev>:
  4032e0:	e92d47f0 	push	{r4, r5, r6, r7, r8, r9, sl, lr}
  4032e4:	e1a07000 	mov	r7, r0
  4032e8:	eb00038f 	bl	40412c <strlen>
  4032ec:	e59f3068 	ldr	r3, [pc, #104]	@ 40335c <find_dev+0x7c>
  4032f0:	e5938000 	ldr	r8, [r3]
  4032f4:	e3580000 	cmp	r8, #0
  4032f8:	0a000015 	beq	403354 <find_dev+0x74>
  4032fc:	e2839004 	add	r9, r3, #4
  403300:	e1a05009 	mov	r5, r9
  403304:	e3a04000 	mov	r4, #0
  403308:	e2806001 	add	r6, r0, #1
  40330c:	ea000002 	b	40331c <find_dev+0x3c>
  403310:	e2844001 	add	r4, r4, #1
  403314:	e1540008 	cmp	r4, r8
  403318:	0a00000a 	beq	403348 <find_dev+0x68>
  40331c:	e5950000 	ldr	r0, [r5]
  403320:	e1a02006 	mov	r2, r6
  403324:	e1a01007 	mov	r1, r7
  403328:	eb0001f9 	bl	403b14 <memcmp>
  40332c:	e3500000 	cmp	r0, #0
  403330:	e2855024 	add	r5, r5, #36	@ 0x24
  403334:	1afffff5 	bne	403310 <find_dev+0x30>
  403338:	e0844184 	add	r4, r4, r4, lsl #3
  40333c:	e0890104 	add	r0, r9, r4, lsl #2
  403340:	e8bd47f0 	pop	{r4, r5, r6, r7, r8, r9, sl, lr}
  403344:	e12fff1e 	bx	lr
  403348:	e3a00000 	mov	r0, #0
  40334c:	e8bd47f0 	pop	{r4, r5, r6, r7, r8, r9, sl, lr}
  403350:	e12fff1e 	bx	lr
  403354:	e1a00008 	mov	r0, r8
  403358:	eafffff8 	b	403340 <find_dev+0x60>
  40335c:	004039a0 	subeq	r3, r0, r0, lsr #19

00403360 <get_dev>:
  403360:	e59f3008 	ldr	r3, [pc, #8]	@ 403370 <get_dev+0x10>
  403364:	e0833180 	add	r3, r3, r0, lsl #3
  403368:	e5930124 	ldr	r0, [r3, #292]	@ 0x124
  40336c:	e12fff1e 	bx	lr
  403370:	004039a0 	subeq	r3, r0, r0, lsr #19

00403374 <get_flags>:
  403374:	e59f3008 	ldr	r3, [pc, #8]	@ 403384 <get_flags+0x10>
  403378:	e0833180 	add	r3, r3, r0, lsl #3
  40337c:	e5930128 	ldr	r0, [r3, #296]	@ 0x128
  403380:	e12fff1e 	bx	lr
  403384:	004039a0 	subeq	r3, r0, r0, lsr #19

00403388 <get_fd>:
  403388:	e3a03000 	mov	r3, #0
  40338c:	e92d4010 	push	{r4, lr}
  403390:	e59fe04c 	ldr	lr, [pc, #76]	@ 4033e4 <get_fd+0x5c>
  403394:	e28ecf49 	add	ip, lr, #292	@ 0x124
  403398:	e79c2183 	ldr	r2, [ip, r3, lsl #3]
  40339c:	e3520000 	cmp	r2, #0
  4033a0:	0a000009 	beq	4033cc <get_fd+0x44>
  4033a4:	e2833001 	add	r3, r3, #1
  4033a8:	e3530008 	cmp	r3, #8
  4033ac:	1afffff9 	bne	403398 <get_fd+0x10>
  4033b0:	eb0001d3 	bl	403b04 <__errno>
  4033b4:	e3a02017 	mov	r2, #23
  4033b8:	e3e03000 	mvn	r3, #0
  4033bc:	e5802000 	str	r2, [r0]
  4033c0:	e8bd4010 	pop	{r4, lr}
  4033c4:	e1a00003 	mov	r0, r3
  4033c8:	e12fff1e 	bx	lr
  4033cc:	e08ee183 	add	lr, lr, r3, lsl #3
  4033d0:	e58e0124 	str	r0, [lr, #292]	@ 0x124
  4033d4:	e58e1128 	str	r1, [lr, #296]	@ 0x128
  4033d8:	e1a00003 	mov	r0, r3
  4033dc:	e8bd4010 	pop	{r4, lr}
  4033e0:	e12fff1e 	bx	lr
  4033e4:	004039a0 	subeq	r3, r0, r0, lsr #19

004033e8 <release_fd>:
  4033e8:	e3500002 	cmp	r0, #2
  4033ec:	83a02000 	movhi	r2, #0
  4033f0:	859f300c 	ldrhi	r3, [pc, #12]	@ 403404 <release_fd+0x1c>
  4033f4:	80833180 	addhi	r3, r3, r0, lsl #3
  4033f8:	85832124 	strhi	r2, [r3, #292]	@ 0x124
  4033fc:	85832128 	strhi	r2, [r3, #296]	@ 0x128
  403400:	e12fff1e 	bx	lr
  403404:	004039a0 	subeq	r3, r0, r0, lsr #19

00403408 <redirect_fd>:
  403408:	e92d4ff0 	push	{r4, r5, r6, r7, r8, r9, sl, fp, lr}
  40340c:	e59f6110 	ldr	r6, [pc, #272]	@ 403524 <redirect_fd+0x11c>
  403410:	e24dd014 	sub	sp, sp, #20
  403414:	e58d0008 	str	r0, [sp, #8]
  403418:	e1a00001 	mov	r0, r1
  40341c:	e1a05001 	mov	r5, r1
  403420:	e1a07002 	mov	r7, r2
  403424:	e58d3004 	str	r3, [sp, #4]
  403428:	eb00033f 	bl	40412c <strlen>
  40342c:	e5968000 	ldr	r8, [r6]
  403430:	e3580000 	cmp	r8, #0
  403434:	0a000028 	beq	4034dc <redirect_fd+0xd4>
  403438:	e286a004 	add	sl, r6, #4
  40343c:	e1a0b00a 	mov	fp, sl
  403440:	e3a04000 	mov	r4, #0
  403444:	e2809001 	add	r9, r0, #1
  403448:	ea000002 	b	403458 <redirect_fd+0x50>
  40344c:	e2844001 	add	r4, r4, #1
  403450:	e1580004 	cmp	r8, r4
  403454:	0a000020 	beq	4034dc <redirect_fd+0xd4>
  403458:	e59b0000 	ldr	r0, [fp]
  40345c:	e1a02009 	mov	r2, r9
  403460:	e1a01005 	mov	r1, r5
  403464:	eb0001aa 	bl	403b14 <memcmp>
  403468:	e3500000 	cmp	r0, #0
  40346c:	e28bb024 	add	fp, fp, #36	@ 0x24
  403470:	1afffff5 	bne	40344c <redirect_fd+0x44>
  403474:	e0841184 	add	r1, r4, r4, lsl #3
  403478:	e0861101 	add	r1, r6, r1, lsl #2
  40347c:	e591b00c 	ldr	fp, [r1, #12]
  403480:	e35b0000 	cmp	fp, #0
  403484:	e1a03000 	mov	r3, r0
  403488:	e1a05184 	lsl	r5, r4, #3
  40348c:	0a000008 	beq	4034b4 <redirect_fd+0xac>
  403490:	e58d000c 	str	r0, [sp, #12]
  403494:	e59d2004 	ldr	r2, [sp, #4]
  403498:	e5910008 	ldr	r0, [r1, #8]
  40349c:	e1a01007 	mov	r1, r7
  4034a0:	e1a0e00f 	mov	lr, pc
  4034a4:	e12fff1b 	bx	fp
  4034a8:	e3500000 	cmp	r0, #0
  4034ac:	e59d300c 	ldr	r3, [sp, #12]
  4034b0:	ba000009 	blt	4034dc <redirect_fd+0xd4>
  4034b4:	e59f106c 	ldr	r1, [pc, #108]	@ 403528 <redirect_fd+0x120>
  4034b8:	e7912183 	ldr	r2, [r1, r3, lsl #3]
  4034bc:	e3520000 	cmp	r2, #0
  4034c0:	0a000008 	beq	4034e8 <redirect_fd+0xe0>
  4034c4:	e2833001 	add	r3, r3, #1
  4034c8:	e3530008 	cmp	r3, #8
  4034cc:	1afffff9 	bne	4034b8 <redirect_fd+0xb0>
  4034d0:	eb00018b 	bl	403b04 <__errno>
  4034d4:	e3a03017 	mov	r3, #23
  4034d8:	e5803000 	str	r3, [r0]
  4034dc:	e28dd014 	add	sp, sp, #20
  4034e0:	e8bd4ff0 	pop	{r4, r5, r6, r7, r8, r9, sl, fp, lr}
  4034e4:	e12fff1e 	bx	lr
  4034e8:	e59d1008 	ldr	r1, [sp, #8]
  4034ec:	e0855004 	add	r5, r5, r4
  4034f0:	e0868181 	add	r8, r6, r1, lsl #3
  4034f4:	e08aa105 	add	sl, sl, r5, lsl #2
  4034f8:	e0866183 	add	r6, r6, r3, lsl #3
  4034fc:	e3530002 	cmp	r3, #2
  403500:	e586a124 	str	sl, [r6, #292]	@ 0x124
  403504:	e5867128 	str	r7, [r6, #296]	@ 0x128
  403508:	e588a124 	str	sl, [r8, #292]	@ 0x124
  40350c:	e5887128 	str	r7, [r8, #296]	@ 0x128
  403510:	c5862124 	strgt	r2, [r6, #292]	@ 0x124
  403514:	c5862128 	strgt	r2, [r6, #296]	@ 0x128
  403518:	e28dd014 	add	sp, sp, #20
  40351c:	e8bd4ff0 	pop	{r4, r5, r6, r7, r8, r9, sl, fp, lr}
  403520:	e12fff1e 	bx	lr
  403524:	004039a0 	subeq	r3, r0, r0, lsr #19
  403528:	00403ac4 	subeq	r3, r0, r4, asr #21

0040352c <excep_init>:
  40352c:	e59f3008 	ldr	r3, [pc, #8]	@ 40353c <excep_init+0x10>
  403530:	e59f2008 	ldr	r2, [pc, #8]	@ 403540 <excep_init+0x14>
  403534:	e5832018 	str	r2, [r3, #24]
  403538:	e12fff1e 	bx	lr
  40353c:	00400020 	subeq	r0, r0, r0, lsr #32
  403540:	00403630 	subeq	r3, r0, r0, lsr r6

00403544 <excep_disable_ints>:
  403544:	e10f0000 	mrs	r0, CPSR
  403548:	e380c0c0 	orr	ip, r0, #192	@ 0xc0
  40354c:	e121f00c 	msr	CPSR_c, ip
  403550:	e1a00320 	lsr	r0, r0, #6
  403554:	e2000003 	and	r0, r0, #3
  403558:	e12fff1e 	bx	lr

0040355c <excep_disable_irq>:
  40355c:	e10f0000 	mrs	r0, CPSR
  403560:	e380c080 	orr	ip, r0, #128	@ 0x80
  403564:	e121f00c 	msr	CPSR_c, ip
  403568:	e1a003a0 	lsr	r0, r0, #7
  40356c:	e2000001 	and	r0, r0, #1
  403570:	e12fff1e 	bx	lr

00403574 <excep_disable_fiq>:
  403574:	e10f0000 	mrs	r0, CPSR
  403578:	e380c040 	orr	ip, r0, #64	@ 0x40
  40357c:	e121f00c 	msr	CPSR_c, ip
  403580:	e1a00320 	lsr	r0, r0, #6
  403584:	e2000001 	and	r0, r0, #1
  403588:	e12fff1e 	bx	lr

0040358c <excep_restore_ints>:
  40358c:	e2000003 	and	r0, r0, #3
  403590:	e10fc000 	mrs	ip, CPSR
  403594:	e3ccc0c0 	bic	ip, ip, #192	@ 0xc0
  403598:	e18cc300 	orr	ip, ip, r0, lsl #6
  40359c:	e121f00c 	msr	CPSR_c, ip
  4035a0:	e12fff1e 	bx	lr

004035a4 <excep_restore_irq>:
  4035a4:	e2000001 	and	r0, r0, #1
  4035a8:	e10fc000 	mrs	ip, CPSR
  4035ac:	e3ccc080 	bic	ip, ip, #128	@ 0x80
  4035b0:	e18cc380 	orr	ip, ip, r0, lsl #7
  4035b4:	e121f00c 	msr	CPSR_c, ip
  4035b8:	e12fff1e 	bx	lr

004035bc <excep_restore_fiq>:
  4035bc:	e2000001 	and	r0, r0, #1
  4035c0:	e10fc000 	mrs	ip, CPSR
  4035c4:	e3ccc040 	bic	ip, ip, #64	@ 0x40
  4035c8:	e18cc300 	orr	ip, ip, r0, lsl #6
  4035cc:	e121f00c 	msr	CPSR_c, ip
  4035d0:	e12fff1e 	bx	lr

004035d4 <excep_set_handler>:
  4035d4:	e59f3004 	ldr	r3, [pc, #4]	@ 4035e0 <excep_set_handler+0xc>
  4035d8:	e7831100 	str	r1, [r3, r0, lsl #2]
  4035dc:	e12fff1e 	bx	lr
  4035e0:	00400020 	subeq	r0, r0, r0, lsr #32

004035e4 <excep_get_handler>:
  4035e4:	e59f3004 	ldr	r3, [pc, #4]	@ 4035f0 <excep_get_handler+0xc>
  4035e8:	e7930100 	ldr	r0, [r3, r0, lsl #2]
  4035ec:	e12fff1e 	bx	lr
  4035f0:	00400020 	subeq	r0, r0, r0, lsr #32

004035f4 <excep_nonnested_irq_handler>:
  4035f4:	e24ee004 	sub	lr, lr, #4
  4035f8:	e92d500f 	push	{r0, r1, r2, r3, ip, lr}
  4035fc:	ebfffc7c 	bl	4027f4 <itc_service_normal_interrupt>
  403600:	e8fd900f 	ldm	sp!, {r0, r1, r2, r3, ip, pc}^
	...

00403610 <excep_nonnested_irq_handler_asm>:
  403610:	e24ee004 	sub	lr, lr, #4
  403614:	e92d580f 	push	{r0, r1, r2, r3, fp, ip, lr}
  403618:	e59fc074 	ldr	ip, [pc, #116]	@ 403694 <excep_nested_irq_handler+0x64>
  40361c:	e1a0e00f 	mov	lr, pc
  403620:	e12fff1c 	bx	ip
  403624:	e8fd980f 	ldm	sp!, {r0, r1, r2, r3, fp, ip, pc}^
  403628:	e1a00000 	nop			@ (mov r0, r0)
  40362c:	e1a00000 	nop			@ (mov r0, r0)

00403630 <excep_nested_irq_handler>:
  403630:	e24ee004 	sub	lr, lr, #4
  403634:	e92d580f 	push	{r0, r1, r2, r3, fp, ip, lr}
  403638:	e14f0000 	mrs	r0, SPSR
  40363c:	e1a0100d 	mov	r1, sp
  403640:	e28dd01c 	add	sp, sp, #28
  403644:	e10f2000 	mrs	r2, CPSR
  403648:	e3c2201f 	bic	r2, r2, #31
  40364c:	e3822013 	orr	r2, r2, #19
  403650:	e121f002 	msr	CPSR_c, r2
  403654:	e24dd030 	sub	sp, sp, #48	@ 0x30
  403658:	e88d07f0 	stm	sp, {r4, r5, r6, r7, r8, r9, sl}
  40365c:	e89107f0 	ldm	r1, {r4, r5, r6, r7, r8, r9, sl}
  403660:	e92d00f0 	push	{r4, r5, r6, r7}
  403664:	e58d802c 	str	r8, [sp, #44]	@ 0x2c
  403668:	e58d9030 	str	r9, [sp, #48]	@ 0x30
  40366c:	e58da03c 	str	sl, [sp, #60]	@ 0x3c
  403670:	e58d0034 	str	r0, [sp, #52]	@ 0x34
  403674:	e58de038 	str	lr, [sp, #56]	@ 0x38
  403678:	e59fc014 	ldr	ip, [pc, #20]	@ 403694 <excep_nested_irq_handler+0x64>
  40367c:	e1a0e00f 	mov	lr, pc
  403680:	e12fff1c 	bx	ip
  403684:	e321f0d3 	msr	CPSR_c, #211	@ 0xd3
  403688:	e8bd5fff 	pop	{r0, r1, r2, r3, r4, r5, r6, r7, r8, r9, sl, fp, ip, lr}
  40368c:	e16ff00e 	msr	SPSR_fsxc, lr
  403690:	e8fdc000 	ldm	sp!, {lr, pc}^
  403694:	004027f4 	strdeq	r2, [r0], #-116	@ 0xffffff8c

00403698 <__divsi3>:
  403698:	e3510000 	cmp	r1, #0
  40369c:	0a000043 	beq	4037b0 <.divsi3_skip_div0_test+0x110>

004036a0 <.divsi3_skip_div0_test>:
  4036a0:	e020c001 	eor	ip, r0, r1
  4036a4:	42611000 	rsbmi	r1, r1, #0
  4036a8:	e2512001 	subs	r2, r1, #1
  4036ac:	0a000027 	beq	403750 <.divsi3_skip_div0_test+0xb0>
  4036b0:	e1b03000 	movs	r3, r0
  4036b4:	42603000 	rsbmi	r3, r0, #0
  4036b8:	e1530001 	cmp	r3, r1
  4036bc:	9a000026 	bls	40375c <.divsi3_skip_div0_test+0xbc>
  4036c0:	e1110002 	tst	r1, r2
  4036c4:	0a000028 	beq	40376c <.divsi3_skip_div0_test+0xcc>
  4036c8:	e311020e 	tst	r1, #-536870912	@ 0xe0000000
  4036cc:	01a01181 	lsleq	r1, r1, #3
  4036d0:	03a02008 	moveq	r2, #8
  4036d4:	13a02001 	movne	r2, #1
  4036d8:	e3510201 	cmp	r1, #268435456	@ 0x10000000
  4036dc:	31510003 	cmpcc	r1, r3
  4036e0:	31a01201 	lslcc	r1, r1, #4
  4036e4:	31a02202 	lslcc	r2, r2, #4
  4036e8:	3afffffa 	bcc	4036d8 <.divsi3_skip_div0_test+0x38>
  4036ec:	e3510102 	cmp	r1, #-2147483648	@ 0x80000000
  4036f0:	31510003 	cmpcc	r1, r3
  4036f4:	31a01081 	lslcc	r1, r1, #1
  4036f8:	31a02082 	lslcc	r2, r2, #1
  4036fc:	3afffffa 	bcc	4036ec <.divsi3_skip_div0_test+0x4c>
  403700:	e3a00000 	mov	r0, #0
  403704:	e1530001 	cmp	r3, r1
  403708:	20433001 	subcs	r3, r3, r1
  40370c:	21800002 	orrcs	r0, r0, r2
  403710:	e15300a1 	cmp	r3, r1, lsr #1
  403714:	204330a1 	subcs	r3, r3, r1, lsr #1
  403718:	218000a2 	orrcs	r0, r0, r2, lsr #1
  40371c:	e1530121 	cmp	r3, r1, lsr #2
  403720:	20433121 	subcs	r3, r3, r1, lsr #2
  403724:	21800122 	orrcs	r0, r0, r2, lsr #2
  403728:	e15301a1 	cmp	r3, r1, lsr #3
  40372c:	204331a1 	subcs	r3, r3, r1, lsr #3
  403730:	218001a2 	orrcs	r0, r0, r2, lsr #3
  403734:	e3530000 	cmp	r3, #0
  403738:	11b02222 	lsrsne	r2, r2, #4
  40373c:	11a01221 	lsrne	r1, r1, #4
  403740:	1affffef 	bne	403704 <.divsi3_skip_div0_test+0x64>
  403744:	e35c0000 	cmp	ip, #0
  403748:	42600000 	rsbmi	r0, r0, #0
  40374c:	e12fff1e 	bx	lr
  403750:	e13c0000 	teq	ip, r0
  403754:	42600000 	rsbmi	r0, r0, #0
  403758:	e12fff1e 	bx	lr
  40375c:	33a00000 	movcc	r0, #0
  403760:	01a00fcc 	asreq	r0, ip, #31
  403764:	03800001 	orreq	r0, r0, #1
  403768:	e12fff1e 	bx	lr
  40376c:	e3510801 	cmp	r1, #65536	@ 0x10000
  403770:	21a01821 	lsrcs	r1, r1, #16
  403774:	23a02010 	movcs	r2, #16
  403778:	33a02000 	movcc	r2, #0
  40377c:	e3510c01 	cmp	r1, #256	@ 0x100
  403780:	21a01421 	lsrcs	r1, r1, #8
  403784:	22822008 	addcs	r2, r2, #8
  403788:	e3510010 	cmp	r1, #16
  40378c:	21a01221 	lsrcs	r1, r1, #4
  403790:	22822004 	addcs	r2, r2, #4
  403794:	e3510004 	cmp	r1, #4
  403798:	82822003 	addhi	r2, r2, #3
  40379c:	908220a1 	addls	r2, r2, r1, lsr #1
  4037a0:	e35c0000 	cmp	ip, #0
  4037a4:	e1a00233 	lsr	r0, r3, r2
  4037a8:	42600000 	rsbmi	r0, r0, #0
  4037ac:	e12fff1e 	bx	lr
  4037b0:	e3500000 	cmp	r0, #0
  4037b4:	c3e00102 	mvngt	r0, #-2147483648	@ 0x80000000
  4037b8:	b3a00102 	movlt	r0, #-2147483648	@ 0x80000000
  4037bc:	ea000007 	b	4037e0 <__aeabi_idiv0>

004037c0 <__aeabi_idivmod>:
  4037c0:	e3510000 	cmp	r1, #0
  4037c4:	0afffff9 	beq	4037b0 <.divsi3_skip_div0_test+0x110>
  4037c8:	e92d4003 	push	{r0, r1, lr}
  4037cc:	ebffffb3 	bl	4036a0 <.divsi3_skip_div0_test>
  4037d0:	e8bd4006 	pop	{r1, r2, lr}
  4037d4:	e0030092 	mul	r3, r2, r0
  4037d8:	e0411003 	sub	r1, r1, r3
  4037dc:	e12fff1e 	bx	lr

004037e0 <__aeabi_idiv0>:
  4037e0:	e12fff1e 	bx	lr

004037e4 <__udivsi3>:
  4037e4:	e2512001 	subs	r2, r1, #1
  4037e8:	012fff1e 	bxeq	lr
  4037ec:	3a000036 	bcc	4038cc <__udivsi3+0xe8>
  4037f0:	e1500001 	cmp	r0, r1
  4037f4:	9a000022 	bls	403884 <__udivsi3+0xa0>
  4037f8:	e1110002 	tst	r1, r2
  4037fc:	0a000023 	beq	403890 <__udivsi3+0xac>
  403800:	e311020e 	tst	r1, #-536870912	@ 0xe0000000
  403804:	01a01181 	lsleq	r1, r1, #3
  403808:	03a03008 	moveq	r3, #8
  40380c:	13a03001 	movne	r3, #1
  403810:	e3510201 	cmp	r1, #268435456	@ 0x10000000
  403814:	31510000 	cmpcc	r1, r0
  403818:	31a01201 	lslcc	r1, r1, #4
  40381c:	31a03203 	lslcc	r3, r3, #4
  403820:	3afffffa 	bcc	403810 <__udivsi3+0x2c>
  403824:	e3510102 	cmp	r1, #-2147483648	@ 0x80000000
  403828:	31510000 	cmpcc	r1, r0
  40382c:	31a01081 	lslcc	r1, r1, #1
  403830:	31a03083 	lslcc	r3, r3, #1
  403834:	3afffffa 	bcc	403824 <__udivsi3+0x40>
  403838:	e3a02000 	mov	r2, #0
  40383c:	e1500001 	cmp	r0, r1
  403840:	20400001 	subcs	r0, r0, r1
  403844:	21822003 	orrcs	r2, r2, r3
  403848:	e15000a1 	cmp	r0, r1, lsr #1
  40384c:	204000a1 	subcs	r0, r0, r1, lsr #1
  403850:	218220a3 	orrcs	r2, r2, r3, lsr #1
  403854:	e1500121 	cmp	r0, r1, lsr #2
  403858:	20400121 	subcs	r0, r0, r1, lsr #2
  40385c:	21822123 	orrcs	r2, r2, r3, lsr #2
  403860:	e15001a1 	cmp	r0, r1, lsr #3
  403864:	204001a1 	subcs	r0, r0, r1, lsr #3
  403868:	218221a3 	orrcs	r2, r2, r3, lsr #3
  40386c:	e3500000 	cmp	r0, #0
  403870:	11b03223 	lsrsne	r3, r3, #4
  403874:	11a01221 	lsrne	r1, r1, #4
  403878:	1affffef 	bne	40383c <__udivsi3+0x58>
  40387c:	e1a00002 	mov	r0, r2
  403880:	e12fff1e 	bx	lr
  403884:	03a00001 	moveq	r0, #1
  403888:	13a00000 	movne	r0, #0
  40388c:	e12fff1e 	bx	lr
  403890:	e3510801 	cmp	r1, #65536	@ 0x10000
  403894:	21a01821 	lsrcs	r1, r1, #16
  403898:	23a02010 	movcs	r2, #16
  40389c:	33a02000 	movcc	r2, #0
  4038a0:	e3510c01 	cmp	r1, #256	@ 0x100
  4038a4:	21a01421 	lsrcs	r1, r1, #8
  4038a8:	22822008 	addcs	r2, r2, #8
  4038ac:	e3510010 	cmp	r1, #16
  4038b0:	21a01221 	lsrcs	r1, r1, #4
  4038b4:	22822004 	addcs	r2, r2, #4
  4038b8:	e3510004 	cmp	r1, #4
  4038bc:	82822003 	addhi	r2, r2, #3
  4038c0:	908220a1 	addls	r2, r2, r1, lsr #1
  4038c4:	e1a00230 	lsr	r0, r0, r2
  4038c8:	e12fff1e 	bx	lr
  4038cc:	e3500000 	cmp	r0, #0
  4038d0:	13e00000 	mvnne	r0, #0
  4038d4:	eaffffc1 	b	4037e0 <__aeabi_idiv0>

004038d8 <__aeabi_uidivmod>:
  4038d8:	e3510000 	cmp	r1, #0
  4038dc:	0afffffa 	beq	4038cc <__udivsi3+0xe8>
  4038e0:	e92d4003 	push	{r0, r1, lr}
  4038e4:	ebffffbe 	bl	4037e4 <__udivsi3>
  4038e8:	e8bd4006 	pop	{r1, r2, lr}
  4038ec:	e0030092 	mul	r3, r2, r0
  4038f0:	e0411003 	sub	r1, r1, r3
  4038f4:	e12fff1e 	bx	lr
  4038f8:	4f4a4f52 	svcmi	0x004a4f52
  4038fc:	00000a0d 	andeq	r0, r0, sp, lsl #20
  403900:	44524556 	ldrbmi	r4, [r2], #-1366	@ 0xfffffaaa
  403904:	000a0d45 	andeq	r0, sl, r5, asr #26
  403908:	6d617845 	stclvs	8, cr7, [r1, #-276]!	@ 0xfffffeec
  40390c:	20656c70 	rsbcs	r6, r5, r0, ror ip
  403910:	65657246 	strbvs	r7, [r5, #-582]!	@ 0xfffffdba
  403914:	534f5452 	movtpl	r5, #62546	@ 0xf452
  403918:	6f725020 	svcvs	0x00725020
  40391c:	7463656a 	strbtvc	r6, [r3], #-1386	@ 0xfffffa96
  403920:	00000a0d 	andeq	r0, r0, sp, lsl #20
  403924:	6e696c42 	cdpvs	12, 6, cr6, cr9, cr2, {2}
  403928:	6552796b 	ldrbvs	r7, [r2, #-2411]	@ 0xfffff695
  40392c:	00000064 	andeq	r0, r0, r4, rrx
  403930:	6b736154 	blvs	20dbe88 <_fiq_stack_top+0x1cc3e88>
  403934:	696c4220 	stmdbvs	ip!, {r5, r9, lr}^
  403938:	52796b6e 	rsbspl	r6, r9, #112640	@ 0x1b800
  40393c:	63206465 			@ <UNDEFINED> instruction: 0x63206465
  403940:	64616572 	strbtvs	r6, [r1], #-1394	@ 0xfffffa8e
  403944:	6f632061 	svcvs	0x00632061
  403948:	a9c3206e 	stmibge	r3, {r1, r2, r3, r5, r6, sp}^
  40394c:	6f746978 	svcvs	0x00746978
  403950:	00000a0d 	andeq	r0, r0, sp, lsl #20
  403954:	454c4449 	strbmi	r4, [ip, #-1097]	@ 0xfffffbb7
  403958:	00000000 	andeq	r0, r0, r0

0040395c <uart_regs>:
  40395c:	80005000 	andhi	r5, r0, r0
  403960:	8000b000 	andhi	fp, r0, r0

00403964 <uart_pins>:
  403964:	11100f0e 	tstne	r0, lr, lsl #30
  403968:	15141312 	ldrne	r1, [r4, #-786]	@ 0xfffffcee

0040396c <uart_irq_handlers>:
  40396c:	004028e4 	subeq	r2, r0, r4, ror #17
  403970:	00402aa4 	subeq	r2, r0, r4, lsr #21
  403974:	7665642f 	strbtvc	r6, [r5], -pc, lsr #8
  403978:	7261752f 	rsbvc	r7, r1, #197132288	@ 0xbc00000
  40397c:	00003174 	andeq	r3, r0, r4, ror r1
  403980:	7665642f 	strbtvc	r6, [r5], -pc, lsr #8
  403984:	7261752f 	rsbvc	r7, r1, #197132288	@ 0xbc00000
  403988:	00003274 	andeq	r3, r0, r4, ror r2
  40398c:	7665642f 	strbtvc	r6, [r5], -pc, lsr #8
  403990:	6c756e2f 	ldclvs	14, cr6, [r5], #-188	@ 0xffffff44
  403994:	0000006c 	andeq	r0, r0, ip, rrx

00403998 <uxTopUsedPriority>:
  403998:	00000004 	andeq	r0, r0, r4

0040399c <ulCriticalNesting>:
  40399c:	0000270f 	andeq	r2, r0, pc, lsl #14

004039a0 <bsp_next_dev>:
  4039a0:	00000001 	andeq	r0, r0, r1

004039a4 <bsp_dev_list>:
  4039a4:	0040398c 	subeq	r3, r0, ip, lsl #19
	...

00403ac4 <bsp_fd_list>:
  403ac4:	004039a4 	subeq	r3, r0, r4, lsr #19
  403ac8:	00000000 	andeq	r0, r0, r0
  403acc:	004039a4 	subeq	r3, r0, r4, lsr #19
  403ad0:	00000000 	andeq	r0, r0, r0
  403ad4:	004039a4 	subeq	r3, r0, r4, lsr #19
	...

Disassembly of section .text.__errno:

00403b04 <__errno>:
  403b04:	e59f3004 	ldr	r3, [pc, #4]	@ 403b10 <__errno+0xc>
  403b08:	e5930000 	ldr	r0, [r3]
  403b0c:	e12fff1e 	bx	lr
  403b10:	004056a8 	subeq	r5, r0, r8, lsr #13

Disassembly of section .text.memcmp:

00403b14 <memcmp>:
  403b14:	e3520003 	cmp	r2, #3
  403b18:	e92d4010 	push	{r4, lr}
  403b1c:	9a00001c 	bls	403b94 <memcmp+0x80>
  403b20:	e1803001 	orr	r3, r0, r1
  403b24:	e3130003 	tst	r3, #3
  403b28:	12424001 	subne	r4, r2, #1
  403b2c:	0a00000c 	beq	403b64 <memcmp+0x50>
  403b30:	e2402001 	sub	r2, r0, #1
  403b34:	e2411001 	sub	r1, r1, #1
  403b38:	ea000001 	b	403b44 <memcmp+0x30>
  403b3c:	e0903003 	adds	r3, r0, r3
  403b40:	0a000018 	beq	403ba8 <memcmp+0x94>
  403b44:	e5f2e001 	ldrb	lr, [r2, #1]!
  403b48:	e5f1c001 	ldrb	ip, [r1, #1]!
  403b4c:	e15e000c 	cmp	lr, ip
  403b50:	e0443002 	sub	r3, r4, r2
  403b54:	0afffff8 	beq	403b3c <memcmp+0x28>
  403b58:	e04e000c 	sub	r0, lr, ip
  403b5c:	e8bd4010 	pop	{r4, lr}
  403b60:	e12fff1e 	bx	lr
  403b64:	e1a0c000 	mov	ip, r0
  403b68:	e1a03001 	mov	r3, r1
  403b6c:	ea000002 	b	403b7c <memcmp+0x68>
  403b70:	e2422004 	sub	r2, r2, #4
  403b74:	e3520003 	cmp	r2, #3
  403b78:	9a00000d 	bls	403bb4 <memcmp+0xa0>
  403b7c:	e1a01003 	mov	r1, r3
  403b80:	e1a0000c 	mov	r0, ip
  403b84:	e493e004 	ldr	lr, [r3], #4
  403b88:	e49c4004 	ldr	r4, [ip], #4
  403b8c:	e154000e 	cmp	r4, lr
  403b90:	0afffff6 	beq	403b70 <memcmp+0x5c>
  403b94:	e3520000 	cmp	r2, #0
  403b98:	01a00002 	moveq	r0, r2
  403b9c:	e2424001 	sub	r4, r2, #1
  403ba0:	1affffe2 	bne	403b30 <memcmp+0x1c>
  403ba4:	eaffffec 	b	403b5c <memcmp+0x48>
  403ba8:	e1a00003 	mov	r0, r3
  403bac:	e8bd4010 	pop	{r4, lr}
  403bb0:	e12fff1e 	bx	lr
  403bb4:	e3520000 	cmp	r2, #0
  403bb8:	e1a0000c 	mov	r0, ip
  403bbc:	e1a01003 	mov	r1, r3
  403bc0:	01a00002 	moveq	r0, r2
  403bc4:	e2424001 	sub	r4, r2, #1
  403bc8:	1affffd8 	bne	403b30 <memcmp+0x1c>
  403bcc:	eaffffe2 	b	403b5c <memcmp+0x48>

Disassembly of section .text.memset:

00403bd0 <memset>:
  403bd0:	e3100003 	tst	r0, #3
  403bd4:	e92d4030 	push	{r4, r5, lr}
  403bd8:	0a000036 	beq	403cb8 <memset+0xe8>
  403bdc:	e3520000 	cmp	r2, #0
  403be0:	e2423001 	sub	r3, r2, #1
  403be4:	0a00002f 	beq	403ca8 <memset+0xd8>
  403be8:	e1a0e000 	mov	lr, r0
  403bec:	e20120ff 	and	r2, r1, #255	@ 0xff
  403bf0:	ea000001 	b	403bfc <memset+0x2c>
  403bf4:	e2533001 	subs	r3, r3, #1
  403bf8:	3a00002a 	bcc	403ca8 <memset+0xd8>
  403bfc:	e4ce2001 	strb	r2, [lr], #1
  403c00:	e31e0003 	tst	lr, #3
  403c04:	1afffffa 	bne	403bf4 <memset+0x24>
  403c08:	e3530003 	cmp	r3, #3
  403c0c:	9a00001e 	bls	403c8c <memset+0xbc>
  403c10:	e201c0ff 	and	ip, r1, #255	@ 0xff
  403c14:	e08cc40c 	add	ip, ip, ip, lsl #8
  403c18:	e353000f 	cmp	r3, #15
  403c1c:	e08cc80c 	add	ip, ip, ip, lsl #16
  403c20:	9a000027 	bls	403cc4 <memset+0xf4>
  403c24:	e2432010 	sub	r2, r3, #16
  403c28:	e3c2400f 	bic	r4, r2, #15
  403c2c:	e28e5020 	add	r5, lr, #32
  403c30:	e0855004 	add	r5, r5, r4
  403c34:	e1a04222 	lsr	r4, r2, #4
  403c38:	e28e2010 	add	r2, lr, #16
  403c3c:	e502c010 	str	ip, [r2, #-16]
  403c40:	e502c00c 	str	ip, [r2, #-12]
  403c44:	e502c008 	str	ip, [r2, #-8]
  403c48:	e502c004 	str	ip, [r2, #-4]
  403c4c:	e2822010 	add	r2, r2, #16
  403c50:	e1520005 	cmp	r2, r5
  403c54:	1afffff8 	bne	403c3c <memset+0x6c>
  403c58:	e2842001 	add	r2, r4, #1
  403c5c:	e313000c 	tst	r3, #12
  403c60:	e08e2202 	add	r2, lr, r2, lsl #4
  403c64:	e203300f 	and	r3, r3, #15
  403c68:	0a000010 	beq	403cb0 <memset+0xe0>
  403c6c:	e243e004 	sub	lr, r3, #4
  403c70:	e3cee003 	bic	lr, lr, #3
  403c74:	e28ee004 	add	lr, lr, #4
  403c78:	e082e00e 	add	lr, r2, lr
  403c7c:	e482c004 	str	ip, [r2], #4
  403c80:	e152000e 	cmp	r2, lr
  403c84:	1afffffc 	bne	403c7c <memset+0xac>
  403c88:	e2033003 	and	r3, r3, #3
  403c8c:	e3530000 	cmp	r3, #0
  403c90:	120110ff 	andne	r1, r1, #255	@ 0xff
  403c94:	108e3003 	addne	r3, lr, r3
  403c98:	0a000002 	beq	403ca8 <memset+0xd8>
  403c9c:	e4ce1001 	strb	r1, [lr], #1
  403ca0:	e153000e 	cmp	r3, lr
  403ca4:	1afffffc 	bne	403c9c <memset+0xcc>
  403ca8:	e8bd4030 	pop	{r4, r5, lr}
  403cac:	e12fff1e 	bx	lr
  403cb0:	e1a0e002 	mov	lr, r2
  403cb4:	eafffff4 	b	403c8c <memset+0xbc>
  403cb8:	e1a0e000 	mov	lr, r0
  403cbc:	e1a03002 	mov	r3, r2
  403cc0:	eaffffd0 	b	403c08 <memset+0x38>
  403cc4:	e1a0200e 	mov	r2, lr
  403cc8:	eaffffe7 	b	403c6c <memset+0x9c>

Disassembly of section .text.stdio_exit_handler:

00403ccc <stdio_exit_handler>:
  403ccc:	e92d4010 	push	{r4, lr}
  403cd0:	e59f2010 	ldr	r2, [pc, #16]	@ 403ce8 <stdio_exit_handler+0x1c>
  403cd4:	e59f1010 	ldr	r1, [pc, #16]	@ 403cec <stdio_exit_handler+0x20>
  403cd8:	e59f0010 	ldr	r0, [pc, #16]	@ 403cf0 <stdio_exit_handler+0x24>
  403cdc:	eb000173 	bl	4042b0 <_fwalk_sglue>
  403ce0:	e8bd4010 	pop	{r4, lr}
  403ce4:	e12fff1e 	bx	lr
  403ce8:	004057d0 	ldrdeq	r5, [r0], #-112	@ 0xffffff90
  403cec:	00404b1c 	subeq	r4, r0, ip, lsl fp
  403cf0:	004056b0 	strheq	r5, [r0], #-96	@ 0xffffffa0

Disassembly of section .text.cleanup_stdio:

00403cf4 <cleanup_stdio>:
  403cf4:	e59f3040 	ldr	r3, [pc, #64]	@ 403d3c <cleanup_stdio+0x48>
  403cf8:	e5901004 	ldr	r1, [r0, #4]
  403cfc:	e1510003 	cmp	r1, r3
  403d00:	e92d4010 	push	{r4, lr}
  403d04:	e1a04000 	mov	r4, r0
  403d08:	1b000383 	blne	404b1c <_fclose_r>
  403d0c:	e5941008 	ldr	r1, [r4, #8]
  403d10:	e59f3028 	ldr	r3, [pc, #40]	@ 403d40 <cleanup_stdio+0x4c>
  403d14:	e1510003 	cmp	r1, r3
  403d18:	11a00004 	movne	r0, r4
  403d1c:	1b00037e 	blne	404b1c <_fclose_r>
  403d20:	e594100c 	ldr	r1, [r4, #12]
  403d24:	e59f3018 	ldr	r3, [pc, #24]	@ 403d44 <cleanup_stdio+0x50>
  403d28:	e1510003 	cmp	r1, r3
  403d2c:	11a00004 	movne	r0, r4
  403d30:	1b000379 	blne	404b1c <_fclose_r>
  403d34:	e8bd4010 	pop	{r4, lr}
  403d38:	e12fff1e 	bx	lr
  403d3c:	0040f194 	umaaleq	pc, r0, r4, r1	@ <UNPREDICTABLE>
  403d40:	0040f1fc 	strdeq	pc, [r0], #-28	@ 0xffffffe4
  403d44:	0040f264 	subeq	pc, r0, r4, ror #4

Disassembly of section .text.__fp_lock:

00403d48 <__fp_lock>:
  403d48:	e5913064 	ldr	r3, [r1, #100]	@ 0x64
  403d4c:	e3130001 	tst	r3, #1
  403d50:	1a000002 	bne	403d60 <__fp_lock+0x18>
  403d54:	e1d130bc 	ldrh	r3, [r1, #12]
  403d58:	e3130c02 	tst	r3, #512	@ 0x200
  403d5c:	0a000001 	beq	403d68 <__fp_lock+0x20>
  403d60:	e3a00000 	mov	r0, #0
  403d64:	e12fff1e 	bx	lr
  403d68:	e92d4010 	push	{r4, lr}
  403d6c:	e5910058 	ldr	r0, [r1, #88]	@ 0x58
  403d70:	eb000362 	bl	404b00 <__retarget_lock_acquire_recursive>
  403d74:	e3a00000 	mov	r0, #0
  403d78:	e8bd4010 	pop	{r4, lr}
  403d7c:	e12fff1e 	bx	lr

Disassembly of section .text.__fp_unlock:

00403d80 <__fp_unlock>:
  403d80:	e5913064 	ldr	r3, [r1, #100]	@ 0x64
  403d84:	e3130001 	tst	r3, #1
  403d88:	1a000002 	bne	403d98 <__fp_unlock+0x18>
  403d8c:	e1d130bc 	ldrh	r3, [r1, #12]
  403d90:	e3130c02 	tst	r3, #512	@ 0x200
  403d94:	0a000001 	beq	403da0 <__fp_unlock+0x20>
  403d98:	e3a00000 	mov	r0, #0
  403d9c:	e12fff1e 	bx	lr
  403da0:	e92d4010 	push	{r4, lr}
  403da4:	e5910058 	ldr	r0, [r1, #88]	@ 0x58
  403da8:	eb00035a 	bl	404b18 <__retarget_lock_release_recursive>
  403dac:	e3a00000 	mov	r0, #0
  403db0:	e8bd4010 	pop	{r4, lr}
  403db4:	e12fff1e 	bx	lr

Disassembly of section .text.global_stdio_init.part.0:

00403db8 <global_stdio_init.part.0>:
  403db8:	e92d47f0 	push	{r4, r5, r6, r7, r8, r9, sl, lr}
  403dbc:	e3a05000 	mov	r5, #0
  403dc0:	e3a03004 	mov	r3, #4
  403dc4:	e59f4114 	ldr	r4, [pc, #276]	@ 403ee0 <global_stdio_init.part.0+0x128>
  403dc8:	e59f2114 	ldr	r2, [pc, #276]	@ 403ee4 <global_stdio_init.part.0+0x12c>
  403dcc:	e59f1114 	ldr	r1, [pc, #276]	@ 403ee8 <global_stdio_init.part.0+0x130>
  403dd0:	e59f9114 	ldr	r9, [pc, #276]	@ 403eec <global_stdio_init.part.0+0x134>
  403dd4:	e59f8114 	ldr	r8, [pc, #276]	@ 403ef0 <global_stdio_init.part.0+0x138>
  403dd8:	e59f7114 	ldr	r7, [pc, #276]	@ 403ef4 <global_stdio_init.part.0+0x13c>
  403ddc:	e59f6114 	ldr	r6, [pc, #276]	@ 403ef8 <global_stdio_init.part.0+0x140>
  403de0:	e5821000 	str	r1, [r2]
  403de4:	e284005c 	add	r0, r4, #92	@ 0x5c
  403de8:	e1a01005 	mov	r1, r5
  403dec:	e3a02008 	mov	r2, #8
  403df0:	e584300c 	str	r3, [r4, #12]
  403df4:	e5845000 	str	r5, [r4]
  403df8:	e5845004 	str	r5, [r4, #4]
  403dfc:	e5845008 	str	r5, [r4, #8]
  403e00:	e5845064 	str	r5, [r4, #100]	@ 0x64
  403e04:	e5845010 	str	r5, [r4, #16]
  403e08:	e5845014 	str	r5, [r4, #20]
  403e0c:	e5845018 	str	r5, [r4, #24]
  403e10:	ebffff6e 	bl	403bd0 <memset>
  403e14:	e2840058 	add	r0, r4, #88	@ 0x58
  403e18:	e584401c 	str	r4, [r4, #28]
  403e1c:	e5849020 	str	r9, [r4, #32]
  403e20:	e5848024 	str	r8, [r4, #36]	@ 0x24
  403e24:	e5847028 	str	r7, [r4, #40]	@ 0x28
  403e28:	e584602c 	str	r6, [r4, #44]	@ 0x2c
  403e2c:	eb00032f 	bl	404af0 <__retarget_lock_init_recursive>
  403e30:	e59f30c4 	ldr	r3, [pc, #196]	@ 403efc <global_stdio_init.part.0+0x144>
  403e34:	e1a01005 	mov	r1, r5
  403e38:	e3a02008 	mov	r2, #8
  403e3c:	e28400c4 	add	r0, r4, #196	@ 0xc4
  403e40:	e5843074 	str	r3, [r4, #116]	@ 0x74
  403e44:	e5845068 	str	r5, [r4, #104]	@ 0x68
  403e48:	e584506c 	str	r5, [r4, #108]	@ 0x6c
  403e4c:	e5845070 	str	r5, [r4, #112]	@ 0x70
  403e50:	e58450cc 	str	r5, [r4, #204]	@ 0xcc
  403e54:	e5845078 	str	r5, [r4, #120]	@ 0x78
  403e58:	e584507c 	str	r5, [r4, #124]	@ 0x7c
  403e5c:	e5845080 	str	r5, [r4, #128]	@ 0x80
  403e60:	ebffff5a 	bl	403bd0 <memset>
  403e64:	e2843068 	add	r3, r4, #104	@ 0x68
  403e68:	e28400c0 	add	r0, r4, #192	@ 0xc0
  403e6c:	e5843084 	str	r3, [r4, #132]	@ 0x84
  403e70:	e5849088 	str	r9, [r4, #136]	@ 0x88
  403e74:	e584808c 	str	r8, [r4, #140]	@ 0x8c
  403e78:	e5847090 	str	r7, [r4, #144]	@ 0x90
  403e7c:	e5846094 	str	r6, [r4, #148]	@ 0x94
  403e80:	eb00031a 	bl	404af0 <__retarget_lock_init_recursive>
  403e84:	e59f3074 	ldr	r3, [pc, #116]	@ 403f00 <global_stdio_init.part.0+0x148>
  403e88:	e1a01005 	mov	r1, r5
  403e8c:	e3a02008 	mov	r2, #8
  403e90:	e2840f4b 	add	r0, r4, #300	@ 0x12c
  403e94:	e58430dc 	str	r3, [r4, #220]	@ 0xdc
  403e98:	e58450d0 	str	r5, [r4, #208]	@ 0xd0
  403e9c:	e58450d4 	str	r5, [r4, #212]	@ 0xd4
  403ea0:	e58450d8 	str	r5, [r4, #216]	@ 0xd8
  403ea4:	e5845134 	str	r5, [r4, #308]	@ 0x134
  403ea8:	e58450e0 	str	r5, [r4, #224]	@ 0xe0
  403eac:	e58450e4 	str	r5, [r4, #228]	@ 0xe4
  403eb0:	e58450e8 	str	r5, [r4, #232]	@ 0xe8
  403eb4:	ebffff45 	bl	403bd0 <memset>
  403eb8:	e28430d0 	add	r3, r4, #208	@ 0xd0
  403ebc:	e2840f4a 	add	r0, r4, #296	@ 0x128
  403ec0:	e58490f0 	str	r9, [r4, #240]	@ 0xf0
  403ec4:	e58480f4 	str	r8, [r4, #244]	@ 0xf4
  403ec8:	e58470f8 	str	r7, [r4, #248]	@ 0xf8
  403ecc:	e58460fc 	str	r6, [r4, #252]	@ 0xfc
  403ed0:	e58430ec 	str	r3, [r4, #236]	@ 0xec
  403ed4:	eb000305 	bl	404af0 <__retarget_lock_init_recursive>
  403ed8:	e8bd47f0 	pop	{r4, r5, r6, r7, r8, r9, sl, lr}
  403edc:	e12fff1e 	bx	lr
  403ee0:	0040f194 	umaaleq	pc, r0, r4, r1	@ <UNPREDICTABLE>
  403ee4:	0040f2cc 	subeq	pc, r0, ip, asr #5
  403ee8:	00403ccc 	subeq	r3, r0, ip, asr #25
  403eec:	0040418c 	subeq	r4, r0, ip, lsl #3
  403ef0:	004041c8 	subeq	r4, r0, r8, asr #3
  403ef4:	00404224 	subeq	r4, r0, r4, lsr #4
  403ef8:	00404254 	subeq	r4, r0, r4, asr r2
  403efc:	00010009 	andeq	r0, r1, r9
  403f00:	00020012 	andeq	r0, r2, r2, lsl r0

Disassembly of section .text.__sfp:

00403f04 <__sfp>:
  403f04:	e92d41f0 	push	{r4, r5, r6, r7, r8, lr}
  403f08:	e1a06000 	mov	r6, r0
  403f0c:	e59f0114 	ldr	r0, [pc, #276]	@ 404028 <__sfp+0x124>
  403f10:	eb0002fa 	bl	404b00 <__retarget_lock_acquire_recursive>
  403f14:	e59f3110 	ldr	r3, [pc, #272]	@ 40402c <__sfp+0x128>
  403f18:	e5933000 	ldr	r3, [r3]
  403f1c:	e3530000 	cmp	r3, #0
  403f20:	0a000038 	beq	404008 <__sfp+0x104>
  403f24:	e59f7104 	ldr	r7, [pc, #260]	@ 404030 <__sfp+0x12c>
  403f28:	e9970018 	ldmib	r7, {r3, r4}
  403f2c:	e2533001 	subs	r3, r3, #1
  403f30:	5a000003 	bpl	403f44 <__sfp+0x40>
  403f34:	ea00001e 	b	403fb4 <__sfp+0xb0>
  403f38:	e3730001 	cmn	r3, #1
  403f3c:	e2844068 	add	r4, r4, #104	@ 0x68
  403f40:	0a00001b 	beq	403fb4 <__sfp+0xb0>
  403f44:	e1d450fc 	ldrsh	r5, [r4, #12]
  403f48:	e3550000 	cmp	r5, #0
  403f4c:	e2433001 	sub	r3, r3, #1
  403f50:	1afffff8 	bne	403f38 <__sfp+0x34>
  403f54:	e59f30d8 	ldr	r3, [pc, #216]	@ 404034 <__sfp+0x130>
  403f58:	e2840058 	add	r0, r4, #88	@ 0x58
  403f5c:	e584300c 	str	r3, [r4, #12]
  403f60:	e5845064 	str	r5, [r4, #100]	@ 0x64
  403f64:	eb0002e1 	bl	404af0 <__retarget_lock_init_recursive>
  403f68:	e59f00b8 	ldr	r0, [pc, #184]	@ 404028 <__sfp+0x124>
  403f6c:	eb0002e9 	bl	404b18 <__retarget_lock_release_recursive>
  403f70:	e3a02008 	mov	r2, #8
  403f74:	e1a01005 	mov	r1, r5
  403f78:	e5845000 	str	r5, [r4]
  403f7c:	e5845008 	str	r5, [r4, #8]
  403f80:	e5845004 	str	r5, [r4, #4]
  403f84:	e5845010 	str	r5, [r4, #16]
  403f88:	e5845014 	str	r5, [r4, #20]
  403f8c:	e5845018 	str	r5, [r4, #24]
  403f90:	e284005c 	add	r0, r4, #92	@ 0x5c
  403f94:	ebffff0d 	bl	403bd0 <memset>
  403f98:	e5845030 	str	r5, [r4, #48]	@ 0x30
  403f9c:	e5845034 	str	r5, [r4, #52]	@ 0x34
  403fa0:	e5845044 	str	r5, [r4, #68]	@ 0x44
  403fa4:	e5845048 	str	r5, [r4, #72]	@ 0x48
  403fa8:	e1a00004 	mov	r0, r4
  403fac:	e8bd41f0 	pop	{r4, r5, r6, r7, r8, lr}
  403fb0:	e12fff1e 	bx	lr
  403fb4:	e5975000 	ldr	r5, [r7]
  403fb8:	e3550000 	cmp	r5, #0
  403fbc:	0a000001 	beq	403fc8 <__sfp+0xc4>
  403fc0:	e1a07005 	mov	r7, r5
  403fc4:	eaffffd7 	b	403f28 <__sfp+0x24>
  403fc8:	e3a01f6b 	mov	r1, #428	@ 0x1ac
  403fcc:	e1a00006 	mov	r0, r6
  403fd0:	eb0000d4 	bl	404328 <_malloc_r>
  403fd4:	e2504000 	subs	r4, r0, #0
  403fd8:	0a00000c 	beq	404010 <__sfp+0x10c>
  403fdc:	e3a03004 	mov	r3, #4
  403fe0:	e284000c 	add	r0, r4, #12
  403fe4:	e1a01005 	mov	r1, r5
  403fe8:	e5845000 	str	r5, [r4]
  403fec:	e3a02e1a 	mov	r2, #416	@ 0x1a0
  403ff0:	e5840008 	str	r0, [r4, #8]
  403ff4:	e5843004 	str	r3, [r4, #4]
  403ff8:	ebfffef4 	bl	403bd0 <memset>
  403ffc:	e1a05004 	mov	r5, r4
  404000:	e5874000 	str	r4, [r7]
  404004:	eaffffed 	b	403fc0 <__sfp+0xbc>
  404008:	ebffff6a 	bl	403db8 <global_stdio_init.part.0>
  40400c:	eaffffc4 	b	403f24 <__sfp+0x20>
  404010:	e5874000 	str	r4, [r7]
  404014:	e59f000c 	ldr	r0, [pc, #12]	@ 404028 <__sfp+0x124>
  404018:	eb0002be 	bl	404b18 <__retarget_lock_release_recursive>
  40401c:	e3a0300c 	mov	r3, #12
  404020:	e5863000 	str	r3, [r6]
  404024:	eaffffdf 	b	403fa8 <__sfp+0xa4>
  404028:	0040f320 	subeq	pc, r0, r0, lsr #6
  40402c:	0040f2cc 	subeq	pc, r0, ip, asr #5
  404030:	004057d0 	ldrdeq	r5, [r0], #-112	@ 0xffffff90
  404034:	ffff0001 			@ <UNDEFINED> instruction: 0xffff0001

Disassembly of section .text.__sinit:

00404038 <__sinit>:
  404038:	e92d4010 	push	{r4, lr}
  40403c:	e1a04000 	mov	r4, r0
  404040:	e59f0048 	ldr	r0, [pc, #72]	@ 404090 <__sinit+0x58>
  404044:	eb0002ad 	bl	404b00 <__retarget_lock_acquire_recursive>
  404048:	e5943034 	ldr	r3, [r4, #52]	@ 0x34
  40404c:	e3530000 	cmp	r3, #0
  404050:	1a000005 	bne	40406c <__sinit+0x34>
  404054:	e59f3038 	ldr	r3, [pc, #56]	@ 404094 <__sinit+0x5c>
  404058:	e5933000 	ldr	r3, [r3]
  40405c:	e59f2034 	ldr	r2, [pc, #52]	@ 404098 <__sinit+0x60>
  404060:	e3530000 	cmp	r3, #0
  404064:	e5842034 	str	r2, [r4, #52]	@ 0x34
  404068:	0a000003 	beq	40407c <__sinit+0x44>
  40406c:	e59f001c 	ldr	r0, [pc, #28]	@ 404090 <__sinit+0x58>
  404070:	eb0002a8 	bl	404b18 <__retarget_lock_release_recursive>
  404074:	e8bd4010 	pop	{r4, lr}
  404078:	e12fff1e 	bx	lr
  40407c:	ebffff4d 	bl	403db8 <global_stdio_init.part.0>
  404080:	e59f0008 	ldr	r0, [pc, #8]	@ 404090 <__sinit+0x58>
  404084:	eb0002a3 	bl	404b18 <__retarget_lock_release_recursive>
  404088:	e8bd4010 	pop	{r4, lr}
  40408c:	e12fff1e 	bx	lr
  404090:	0040f320 	subeq	pc, r0, r0, lsr #6
  404094:	0040f2cc 	subeq	pc, r0, ip, asr #5
  404098:	00403cf4 	strdeq	r3, [r0], #-196	@ 0xffffff3c

Disassembly of section .text.__sfp_lock_acquire:

0040409c <__sfp_lock_acquire>:
  40409c:	e92d4010 	push	{r4, lr}
  4040a0:	e59f0008 	ldr	r0, [pc, #8]	@ 4040b0 <__sfp_lock_acquire+0x14>
  4040a4:	eb000295 	bl	404b00 <__retarget_lock_acquire_recursive>
  4040a8:	e8bd4010 	pop	{r4, lr}
  4040ac:	e12fff1e 	bx	lr
  4040b0:	0040f320 	subeq	pc, r0, r0, lsr #6

Disassembly of section .text.__sfp_lock_release:

004040b4 <__sfp_lock_release>:
  4040b4:	e92d4010 	push	{r4, lr}
  4040b8:	e59f0008 	ldr	r0, [pc, #8]	@ 4040c8 <__sfp_lock_release+0x14>
  4040bc:	eb000295 	bl	404b18 <__retarget_lock_release_recursive>
  4040c0:	e8bd4010 	pop	{r4, lr}
  4040c4:	e12fff1e 	bx	lr
  4040c8:	0040f320 	subeq	pc, r0, r0, lsr #6

Disassembly of section .text.__fp_lock_all:

004040cc <__fp_lock_all>:
  4040cc:	e92d4010 	push	{r4, lr}
  4040d0:	e59f0018 	ldr	r0, [pc, #24]	@ 4040f0 <__fp_lock_all+0x24>
  4040d4:	eb000289 	bl	404b00 <__retarget_lock_acquire_recursive>
  4040d8:	e3a00000 	mov	r0, #0
  4040dc:	e59f2010 	ldr	r2, [pc, #16]	@ 4040f4 <__fp_lock_all+0x28>
  4040e0:	e59f1010 	ldr	r1, [pc, #16]	@ 4040f8 <__fp_lock_all+0x2c>
  4040e4:	eb000071 	bl	4042b0 <_fwalk_sglue>
  4040e8:	e8bd4010 	pop	{r4, lr}
  4040ec:	e12fff1e 	bx	lr
  4040f0:	0040f320 	subeq	pc, r0, r0, lsr #6
  4040f4:	004057d0 	ldrdeq	r5, [r0], #-112	@ 0xffffff90
  4040f8:	00403d48 	subeq	r3, r0, r8, asr #26

Disassembly of section .text.__fp_unlock_all:

004040fc <__fp_unlock_all>:
  4040fc:	e92d4010 	push	{r4, lr}
  404100:	e59f2018 	ldr	r2, [pc, #24]	@ 404120 <__fp_unlock_all+0x24>
  404104:	e59f1018 	ldr	r1, [pc, #24]	@ 404124 <__fp_unlock_all+0x28>
  404108:	e3a00000 	mov	r0, #0
  40410c:	eb000067 	bl	4042b0 <_fwalk_sglue>
  404110:	e59f0010 	ldr	r0, [pc, #16]	@ 404128 <__fp_unlock_all+0x2c>
  404114:	eb00027f 	bl	404b18 <__retarget_lock_release_recursive>
  404118:	e8bd4010 	pop	{r4, lr}
  40411c:	e12fff1e 	bx	lr
  404120:	004057d0 	ldrdeq	r5, [r0], #-112	@ 0xffffff90
  404124:	00403d80 	subeq	r3, r0, r0, lsl #27
  404128:	0040f320 	subeq	pc, r0, r0, lsr #6

Disassembly of section .text.strlen:

0040412c <strlen>:
  40412c:	e3c01003 	bic	r1, r0, #3
  404130:	e2100003 	ands	r0, r0, #3
  404134:	e2600000 	rsb	r0, r0, #0
  404138:	e4913004 	ldr	r3, [r1], #4
  40413c:	e280c004 	add	ip, r0, #4
  404140:	e1a0c18c 	lsl	ip, ip, #3
  404144:	e3e02000 	mvn	r2, #0
  404148:	11833c32 	orrne	r3, r3, r2, lsr ip
  40414c:	e3a0c001 	mov	ip, #1
  404150:	e18cc40c 	orr	ip, ip, ip, lsl #8
  404154:	e18cc80c 	orr	ip, ip, ip, lsl #16
  404158:	e043200c 	sub	r2, r3, ip
  40415c:	e1c22003 	bic	r2, r2, r3
  404160:	e012238c 	ands	r2, r2, ip, lsl #7
  404164:	04913004 	ldreq	r3, [r1], #4
  404168:	02800004 	addeq	r0, r0, #4
  40416c:	0afffff9 	beq	404158 <strlen+0x2c>
  404170:	e31300ff 	tst	r3, #255	@ 0xff
  404174:	12800001 	addne	r0, r0, #1
  404178:	13130cff 	tstne	r3, #65280	@ 0xff00
  40417c:	12800001 	addne	r0, r0, #1
  404180:	131308ff 	tstne	r3, #16711680	@ 0xff0000
  404184:	12800001 	addne	r0, r0, #1
  404188:	e12fff1e 	bx	lr

Disassembly of section .text.__sread:

0040418c <__sread>:
  40418c:	e92d4010 	push	{r4, lr}
  404190:	e1a04001 	mov	r4, r1
  404194:	e1d110fe 	ldrsh	r1, [r1, #14]
  404198:	eb0004fc 	bl	405590 <_read_r>
  40419c:	e3500000 	cmp	r0, #0
  4041a0:	a5943050 	ldrge	r3, [r4, #80]	@ 0x50
  4041a4:	b1d430bc 	ldrhlt	r3, [r4, #12]
  4041a8:	a0833000 	addge	r3, r3, r0
  4041ac:	b3c33a01 	biclt	r3, r3, #4096	@ 0x1000
  4041b0:	a5843050 	strge	r3, [r4, #80]	@ 0x50
  4041b4:	b1c430bc 	strhlt	r3, [r4, #12]
  4041b8:	e8bd4010 	pop	{r4, lr}
  4041bc:	e12fff1e 	bx	lr

Disassembly of section .text.__seofread:

004041c0 <__seofread>:
  4041c0:	e3a00000 	mov	r0, #0
  4041c4:	e12fff1e 	bx	lr

Disassembly of section .text.__swrite:

004041c8 <__swrite>:
  4041c8:	e92d41f0 	push	{r4, r5, r6, r7, r8, lr}
  4041cc:	e1a04001 	mov	r4, r1
  4041d0:	e1d110fc 	ldrsh	r1, [r1, #12]
  4041d4:	e3110c01 	tst	r1, #256	@ 0x100
  4041d8:	e1a05000 	mov	r5, r0
  4041dc:	e1a06002 	mov	r6, r2
  4041e0:	e1a07003 	mov	r7, r3
  4041e4:	1a000008 	bne	40420c <__swrite+0x44>
  4041e8:	e3c11a01 	bic	r1, r1, #4096	@ 0x1000
  4041ec:	e1c410bc 	strh	r1, [r4, #12]
  4041f0:	e1a03007 	mov	r3, r7
  4041f4:	e1a02006 	mov	r2, r6
  4041f8:	e1a00005 	mov	r0, r5
  4041fc:	e1d410fe 	ldrsh	r1, [r4, #14]
  404200:	eb000018 	bl	404268 <_write_r>
  404204:	e8bd41f0 	pop	{r4, r5, r6, r7, r8, lr}
  404208:	e12fff1e 	bx	lr
  40420c:	e1d410fe 	ldrsh	r1, [r4, #14]
  404210:	e3a03002 	mov	r3, #2
  404214:	e3a02000 	mov	r2, #0
  404218:	eb0004ca 	bl	405548 <_lseek_r>
  40421c:	e1d410fc 	ldrsh	r1, [r4, #12]
  404220:	eafffff0 	b	4041e8 <__swrite+0x20>

Disassembly of section .text.__sseek:

00404224 <__sseek>:
  404224:	e92d4010 	push	{r4, lr}
  404228:	e1a04001 	mov	r4, r1
  40422c:	e1d110fe 	ldrsh	r1, [r1, #14]
  404230:	eb0004c4 	bl	405548 <_lseek_r>
  404234:	e1d430fc 	ldrsh	r3, [r4, #12]
  404238:	e3700001 	cmn	r0, #1
  40423c:	03c33a01 	biceq	r3, r3, #4096	@ 0x1000
  404240:	13833a01 	orrne	r3, r3, #4096	@ 0x1000
  404244:	15840050 	strne	r0, [r4, #80]	@ 0x50
  404248:	e1c430bc 	strh	r3, [r4, #12]
  40424c:	e8bd4010 	pop	{r4, lr}
  404250:	e12fff1e 	bx	lr

Disassembly of section .text.__sclose:

00404254 <__sclose>:
  404254:	e92d4010 	push	{r4, lr}
  404258:	e1d110fe 	ldrsh	r1, [r1, #14]
  40425c:	eb0002a0 	bl	404ce4 <_close_r>
  404260:	e8bd4010 	pop	{r4, lr}
  404264:	e12fff1e 	bx	lr

Disassembly of section .text._write_r:

00404268 <_write_r>:
  404268:	e92d4070 	push	{r4, r5, r6, lr}
  40426c:	e1a0e001 	mov	lr, r1
  404270:	e1a01002 	mov	r1, r2
  404274:	e3a02000 	mov	r2, #0
  404278:	e59f502c 	ldr	r5, [pc, #44]	@ 4042ac <_write_r+0x44>
  40427c:	e1a04000 	mov	r4, r0
  404280:	e5852000 	str	r2, [r5]
  404284:	e1a0000e 	mov	r0, lr
  404288:	e1a02003 	mov	r2, r3
  40428c:	eb0004ff 	bl	405690 <_write>
  404290:	e3700001 	cmn	r0, #1
  404294:	1a000002 	bne	4042a4 <_write_r+0x3c>
  404298:	e5953000 	ldr	r3, [r5]
  40429c:	e3530000 	cmp	r3, #0
  4042a0:	15843000 	strne	r3, [r4]
  4042a4:	e8bd4070 	pop	{r4, r5, r6, lr}
  4042a8:	e12fff1e 	bx	lr
  4042ac:	0040f324 	subeq	pc, r0, r4, lsr #6

Disassembly of section .text._fwalk_sglue:

004042b0 <_fwalk_sglue>:
  4042b0:	e92d47f0 	push	{r4, r5, r6, r7, r8, r9, sl, lr}
  4042b4:	e3a09000 	mov	r9, #0
  4042b8:	e1a08000 	mov	r8, r0
  4042bc:	e1a07001 	mov	r7, r1
  4042c0:	e1a06002 	mov	r6, r2
  4042c4:	e5965004 	ldr	r5, [r6, #4]
  4042c8:	e2555001 	subs	r5, r5, #1
  4042cc:	e5964008 	ldr	r4, [r6, #8]
  4042d0:	4a00000e 	bmi	404310 <_fwalk_sglue+0x60>
  4042d4:	e1d430bc 	ldrh	r3, [r4, #12]
  4042d8:	e3530001 	cmp	r3, #1
  4042dc:	e2455001 	sub	r5, r5, #1
  4042e0:	9a000007 	bls	404304 <_fwalk_sglue+0x54>
  4042e4:	e1d430fe 	ldrsh	r3, [r4, #14]
  4042e8:	e3730001 	cmn	r3, #1
  4042ec:	0a000004 	beq	404304 <_fwalk_sglue+0x54>
  4042f0:	e1a01004 	mov	r1, r4
  4042f4:	e1a00008 	mov	r0, r8
  4042f8:	e1a0e00f 	mov	lr, pc
  4042fc:	e12fff17 	bx	r7
  404300:	e1899000 	orr	r9, r9, r0
  404304:	e3750001 	cmn	r5, #1
  404308:	e2844068 	add	r4, r4, #104	@ 0x68
  40430c:	1afffff0 	bne	4042d4 <_fwalk_sglue+0x24>
  404310:	e5966000 	ldr	r6, [r6]
  404314:	e3560000 	cmp	r6, #0
  404318:	1affffe9 	bne	4042c4 <_fwalk_sglue+0x14>
  40431c:	e1a00009 	mov	r0, r9
  404320:	e8bd47f0 	pop	{r4, r5, r6, r7, r8, r9, sl, lr}
  404324:	e12fff1e 	bx	lr

Disassembly of section .text._malloc_r:

00404328 <_malloc_r>:
  404328:	e92d4ff0 	push	{r4, r5, r6, r7, r8, r9, sl, fp, lr}
  40432c:	e281300b 	add	r3, r1, #11
  404330:	e3530016 	cmp	r3, #22
  404334:	e1a07000 	mov	r7, r0
  404338:	e24dd00c 	sub	sp, sp, #12
  40433c:	8a00001c 	bhi	4043b4 <_malloc_r+0x8c>
  404340:	e3510010 	cmp	r1, #16
  404344:	8a000081 	bhi	404550 <_malloc_r+0x228>
  404348:	eb000259 	bl	404cb4 <__malloc_lock>
  40434c:	e3a05010 	mov	r5, #16
  404350:	e3a03018 	mov	r3, #24
  404354:	e3a00002 	mov	r0, #2
  404358:	e59f676c 	ldr	r6, [pc, #1900]	@ 404acc <_malloc_r+0x7a4>
  40435c:	e0863003 	add	r3, r6, r3
  404360:	e5934004 	ldr	r4, [r3, #4]
  404364:	e2432008 	sub	r2, r3, #8
  404368:	e1540002 	cmp	r4, r2
  40436c:	0a0000d3 	beq	4046c0 <_malloc_r+0x398>
  404370:	e5943004 	ldr	r3, [r4, #4]
  404374:	e594200c 	ldr	r2, [r4, #12]
  404378:	e3c33003 	bic	r3, r3, #3
  40437c:	e5941008 	ldr	r1, [r4, #8]
  404380:	e0843003 	add	r3, r4, r3
  404384:	e581200c 	str	r2, [r1, #12]
  404388:	e5821008 	str	r1, [r2, #8]
  40438c:	e5932004 	ldr	r2, [r3, #4]
  404390:	e3822001 	orr	r2, r2, #1
  404394:	e1a00007 	mov	r0, r7
  404398:	e5832004 	str	r2, [r3, #4]
  40439c:	e2844008 	add	r4, r4, #8
  4043a0:	eb000249 	bl	404ccc <__malloc_unlock>
  4043a4:	e1a00004 	mov	r0, r4
  4043a8:	e28dd00c 	add	sp, sp, #12
  4043ac:	e8bd4ff0 	pop	{r4, r5, r6, r7, r8, r9, sl, fp, lr}
  4043b0:	e12fff1e 	bx	lr
  4043b4:	e3c35007 	bic	r5, r3, #7
  4043b8:	e1510005 	cmp	r1, r5
  4043bc:	93a01000 	movls	r1, #0
  4043c0:	83a01001 	movhi	r1, #1
  4043c4:	e1911fa3 	orrs	r1, r1, r3, lsr #31
  4043c8:	1a000060 	bne	404550 <_malloc_r+0x228>
  4043cc:	eb000238 	bl	404cb4 <__malloc_lock>
  4043d0:	e3550f7e 	cmp	r5, #504	@ 0x1f8
  4043d4:	3a0000fd 	bcc	4047d0 <_malloc_r+0x4a8>
  4043d8:	e1b034a5 	lsrs	r3, r5, #9
  4043dc:	0a00005f 	beq	404560 <_malloc_r+0x238>
  4043e0:	e3530004 	cmp	r3, #4
  4043e4:	8a0000d5 	bhi	404740 <_malloc_r+0x418>
  4043e8:	e1a03325 	lsr	r3, r5, #6
  4043ec:	e2830039 	add	r0, r3, #57	@ 0x39
  4043f0:	e283c038 	add	ip, r3, #56	@ 0x38
  4043f4:	e1a01180 	lsl	r1, r0, #3
  4043f8:	e59f66cc 	ldr	r6, [pc, #1740]	@ 404acc <_malloc_r+0x7a4>
  4043fc:	e0861001 	add	r1, r6, r1
  404400:	e5914004 	ldr	r4, [r1, #4]
  404404:	e2411008 	sub	r1, r1, #8
  404408:	e1510004 	cmp	r1, r4
  40440c:	1a000006 	bne	40442c <_malloc_r+0x104>
  404410:	ea00000b 	b	404444 <_malloc_r+0x11c>
  404414:	e3520000 	cmp	r2, #0
  404418:	e594200c 	ldr	r2, [r4, #12]
  40441c:	aaffffd6 	bge	40437c <_malloc_r+0x54>
  404420:	e1510002 	cmp	r1, r2
  404424:	0a000006 	beq	404444 <_malloc_r+0x11c>
  404428:	e1a04002 	mov	r4, r2
  40442c:	e5943004 	ldr	r3, [r4, #4]
  404430:	e3c33003 	bic	r3, r3, #3
  404434:	e0432005 	sub	r2, r3, r5
  404438:	e352000f 	cmp	r2, #15
  40443c:	dafffff4 	ble	404414 <_malloc_r+0xec>
  404440:	e1a0000c 	mov	r0, ip
  404444:	e5964010 	ldr	r4, [r6, #16]
  404448:	e59f8680 	ldr	r8, [pc, #1664]	@ 404ad0 <_malloc_r+0x7a8>
  40444c:	e1540008 	cmp	r4, r8
  404450:	0596c004 	ldreq	ip, [r6, #4]
  404454:	0a000018 	beq	4044bc <_malloc_r+0x194>
  404458:	e5941004 	ldr	r1, [r4, #4]
  40445c:	e3c11003 	bic	r1, r1, #3
  404460:	e0413005 	sub	r3, r1, r5
  404464:	e353000f 	cmp	r3, #15
  404468:	ca0000e3 	bgt	4047fc <_malloc_r+0x4d4>
  40446c:	e3530000 	cmp	r3, #0
  404470:	e5868010 	str	r8, [r6, #16]
  404474:	e5868014 	str	r8, [r6, #20]
  404478:	aa0000d7 	bge	4047dc <_malloc_r+0x4b4>
  40447c:	e3510c02 	cmp	r1, #512	@ 0x200
  404480:	e596c004 	ldr	ip, [r6, #4]
  404484:	2a000092 	bcs	4046d4 <_malloc_r+0x3ac>
  404488:	e3a02001 	mov	r2, #1
  40448c:	e1a031a1 	lsr	r3, r1, #3
  404490:	e0833002 	add	r3, r3, r2
  404494:	e1a012a1 	lsr	r1, r1, #5
  404498:	e18cc112 	orr	ip, ip, r2, lsl r1
  40449c:	e7961183 	ldr	r1, [r6, r3, lsl #3]
  4044a0:	e0862183 	add	r2, r6, r3, lsl #3
  4044a4:	e2422008 	sub	r2, r2, #8
  4044a8:	e5841008 	str	r1, [r4, #8]
  4044ac:	e584200c 	str	r2, [r4, #12]
  4044b0:	e586c004 	str	ip, [r6, #4]
  4044b4:	e7864183 	str	r4, [r6, r3, lsl #3]
  4044b8:	e581400c 	str	r4, [r1, #12]
  4044bc:	e3a01001 	mov	r1, #1
  4044c0:	e1a03140 	asr	r3, r0, #2
  4044c4:	e1a01311 	lsl	r1, r1, r3
  4044c8:	e151000c 	cmp	r1, ip
  4044cc:	8a000027 	bhi	404570 <_malloc_r+0x248>
  4044d0:	e111000c 	tst	r1, ip
  4044d4:	1a000008 	bne	4044fc <_malloc_r+0x1d4>
  4044d8:	e1a01081 	lsl	r1, r1, #1
  4044dc:	e3c00003 	bic	r0, r0, #3
  4044e0:	e111000c 	tst	r1, ip
  4044e4:	e2800004 	add	r0, r0, #4
  4044e8:	1a000003 	bne	4044fc <_malloc_r+0x1d4>
  4044ec:	e1a01081 	lsl	r1, r1, #1
  4044f0:	e111000c 	tst	r1, ip
  4044f4:	e2800004 	add	r0, r0, #4
  4044f8:	0afffffb 	beq	4044ec <_malloc_r+0x1c4>
  4044fc:	e086a180 	add	sl, r6, r0, lsl #3
  404500:	e1a0e00a 	mov	lr, sl
  404504:	e1a09000 	mov	r9, r0
  404508:	e59ec00c 	ldr	ip, [lr, #12]
  40450c:	ea000008 	b	404534 <_malloc_r+0x20c>
  404510:	e59c3004 	ldr	r3, [ip, #4]
  404514:	e3c33003 	bic	r3, r3, #3
  404518:	e0432005 	sub	r2, r3, r5
  40451c:	e352000f 	cmp	r2, #15
  404520:	e1a0400c 	mov	r4, ip
  404524:	e59cc00c 	ldr	ip, [ip, #12]
  404528:	ca00008d 	bgt	404764 <_malloc_r+0x43c>
  40452c:	e3520000 	cmp	r2, #0
  404530:	aa00009c 	bge	4047a8 <_malloc_r+0x480>
  404534:	e15e000c 	cmp	lr, ip
  404538:	1afffff4 	bne	404510 <_malloc_r+0x1e8>
  40453c:	e2899001 	add	r9, r9, #1
  404540:	e3190003 	tst	r9, #3
  404544:	e28ee008 	add	lr, lr, #8
  404548:	1affffee 	bne	404508 <_malloc_r+0x1e0>
  40454c:	ea0000ca 	b	40487c <_malloc_r+0x554>
  404550:	e3a0300c 	mov	r3, #12
  404554:	e5873000 	str	r3, [r7]
  404558:	e3a04000 	mov	r4, #0
  40455c:	eaffff90 	b	4043a4 <_malloc_r+0x7c>
  404560:	e3a01c02 	mov	r1, #512	@ 0x200
  404564:	e3a00040 	mov	r0, #64	@ 0x40
  404568:	e3a0c03f 	mov	ip, #63	@ 0x3f
  40456c:	eaffffa1 	b	4043f8 <_malloc_r+0xd0>
  404570:	e5964008 	ldr	r4, [r6, #8]
  404574:	e5949004 	ldr	r9, [r4, #4]
  404578:	e3c99003 	bic	r9, r9, #3
  40457c:	e1590005 	cmp	r9, r5
  404580:	23a02000 	movcs	r2, #0
  404584:	33a02001 	movcc	r2, #1
  404588:	e0493005 	sub	r3, r9, r5
  40458c:	e353000f 	cmp	r3, #15
  404590:	d3822001 	orrle	r2, r2, #1
  404594:	e3520000 	cmp	r2, #0
  404598:	0a00003b 	beq	40468c <_malloc_r+0x364>
  40459c:	e59f3530 	ldr	r3, [pc, #1328]	@ 404ad4 <_malloc_r+0x7ac>
  4045a0:	e3a00008 	mov	r0, #8
  4045a4:	e5938000 	ldr	r8, [r3]
  4045a8:	eb0001b5 	bl	404c84 <sysconf>
  4045ac:	e59f2524 	ldr	r2, [pc, #1316]	@ 404ad8 <_malloc_r+0x7b0>
  4045b0:	e0843009 	add	r3, r4, r9
  4045b4:	e58d3000 	str	r3, [sp]
  4045b8:	e5923000 	ldr	r3, [r2]
  4045bc:	e2888010 	add	r8, r8, #16
  4045c0:	e3730001 	cmn	r3, #1
  4045c4:	e0888005 	add	r8, r8, r5
  4045c8:	12488001 	subne	r8, r8, #1
  4045cc:	10888000 	addne	r8, r8, r0
  4045d0:	12603000 	rsbne	r3, r0, #0
  4045d4:	10088003 	andne	r8, r8, r3
  4045d8:	e1a0b000 	mov	fp, r0
  4045dc:	e1a01008 	mov	r1, r8
  4045e0:	e1a00007 	mov	r0, r7
  4045e4:	eb0003fb 	bl	4055d8 <_sbrk_r>
  4045e8:	e3700001 	cmn	r0, #1
  4045ec:	e1a0a000 	mov	sl, r0
  4045f0:	e59f24e0 	ldr	r2, [pc, #1248]	@ 404ad8 <_malloc_r+0x7b0>
  4045f4:	0a000095 	beq	404850 <_malloc_r+0x528>
  4045f8:	e0843009 	add	r3, r4, r9
  4045fc:	e1530000 	cmp	r3, r0
  404600:	8a000090 	bhi	404848 <_malloc_r+0x520>
  404604:	e59f34d0 	ldr	r3, [pc, #1232]	@ 404adc <_malloc_r+0x7b4>
  404608:	e5931000 	ldr	r1, [r3]
  40460c:	e0881001 	add	r1, r8, r1
  404610:	e1a0c001 	mov	ip, r1
  404614:	e5831000 	str	r1, [r3]
  404618:	e24b0001 	sub	r0, fp, #1
  40461c:	1a0000ac 	bne	4048d4 <_malloc_r+0x5ac>
  404620:	e11a0000 	tst	sl, r0
  404624:	1a0000aa 	bne	4048d4 <_malloc_r+0x5ac>
  404628:	e596a008 	ldr	sl, [r6, #8]
  40462c:	e0898008 	add	r8, r9, r8
  404630:	e3888001 	orr	r8, r8, #1
  404634:	e58a8004 	str	r8, [sl, #4]
  404638:	e1a0400a 	mov	r4, sl
  40463c:	e59f349c 	ldr	r3, [pc, #1180]	@ 404ae0 <_malloc_r+0x7b8>
  404640:	e5932000 	ldr	r2, [r3]
  404644:	e1520001 	cmp	r2, r1
  404648:	35831000 	strcc	r1, [r3]
  40464c:	e59f3490 	ldr	r3, [pc, #1168]	@ 404ae4 <_malloc_r+0x7bc>
  404650:	e5932000 	ldr	r2, [r3]
  404654:	e1520001 	cmp	r2, r1
  404658:	35831000 	strcc	r1, [r3]
  40465c:	e3c83003 	bic	r3, r8, #3
  404660:	e1530005 	cmp	r3, r5
  404664:	23a02000 	movcs	r2, #0
  404668:	33a02001 	movcc	r2, #1
  40466c:	e0433005 	sub	r3, r3, r5
  404670:	e353000f 	cmp	r3, #15
  404674:	d3822001 	orrle	r2, r2, #1
  404678:	e3520000 	cmp	r2, #0
  40467c:	0a000002 	beq	40468c <_malloc_r+0x364>
  404680:	e1a00007 	mov	r0, r7
  404684:	eb000190 	bl	404ccc <__malloc_unlock>
  404688:	eaffffb2 	b	404558 <_malloc_r+0x230>
  40468c:	e0842005 	add	r2, r4, r5
  404690:	e3833001 	orr	r3, r3, #1
  404694:	e3855001 	orr	r5, r5, #1
  404698:	e5845004 	str	r5, [r4, #4]
  40469c:	e1a00007 	mov	r0, r7
  4046a0:	e5862008 	str	r2, [r6, #8]
  4046a4:	e2844008 	add	r4, r4, #8
  4046a8:	e5823004 	str	r3, [r2, #4]
  4046ac:	eb000186 	bl	404ccc <__malloc_unlock>
  4046b0:	e1a00004 	mov	r0, r4
  4046b4:	e28dd00c 	add	sp, sp, #12
  4046b8:	e8bd4ff0 	pop	{r4, r5, r6, r7, r8, r9, sl, fp, lr}
  4046bc:	e12fff1e 	bx	lr
  4046c0:	e593400c 	ldr	r4, [r3, #12]
  4046c4:	e1530004 	cmp	r3, r4
  4046c8:	02800002 	addeq	r0, r0, #2
  4046cc:	0affff5c 	beq	404444 <_malloc_r+0x11c>
  4046d0:	eaffff26 	b	404370 <_malloc_r+0x48>
  4046d4:	e3510c0a 	cmp	r1, #2560	@ 0xa00
  4046d8:	e1a034a1 	lsr	r3, r1, #9
  4046dc:	3a000054 	bcc	404834 <_malloc_r+0x50c>
  4046e0:	e3530014 	cmp	r3, #20
  4046e4:	8a0000be 	bhi	4049e4 <_malloc_r+0x6bc>
  4046e8:	e283205c 	add	r2, r3, #92	@ 0x5c
  4046ec:	e1a02182 	lsl	r2, r2, #3
  4046f0:	e283305b 	add	r3, r3, #91	@ 0x5b
  4046f4:	e796e002 	ldr	lr, [r6, r2]
  4046f8:	e0862002 	add	r2, r6, r2
  4046fc:	e2422008 	sub	r2, r2, #8
  404700:	e152000e 	cmp	r2, lr
  404704:	1a000003 	bne	404718 <_malloc_r+0x3f0>
  404708:	ea0000a4 	b	4049a0 <_malloc_r+0x678>
  40470c:	e59ee008 	ldr	lr, [lr, #8]
  404710:	e152000e 	cmp	r2, lr
  404714:	0a000003 	beq	404728 <_malloc_r+0x400>
  404718:	e59e3004 	ldr	r3, [lr, #4]
  40471c:	e3c33003 	bic	r3, r3, #3
  404720:	e1530001 	cmp	r3, r1
  404724:	8afffff8 	bhi	40470c <_malloc_r+0x3e4>
  404728:	e59e200c 	ldr	r2, [lr, #12]
  40472c:	e584200c 	str	r2, [r4, #12]
  404730:	e584e008 	str	lr, [r4, #8]
  404734:	e5824008 	str	r4, [r2, #8]
  404738:	e58e400c 	str	r4, [lr, #12]
  40473c:	eaffff5e 	b	4044bc <_malloc_r+0x194>
  404740:	e3530014 	cmp	r3, #20
  404744:	9a000044 	bls	40485c <_malloc_r+0x534>
  404748:	e3530054 	cmp	r3, #84	@ 0x54
  40474c:	8a0000ab 	bhi	404a00 <_malloc_r+0x6d8>
  404750:	e1a03625 	lsr	r3, r5, #12
  404754:	e283006f 	add	r0, r3, #111	@ 0x6f
  404758:	e283c06e 	add	ip, r3, #110	@ 0x6e
  40475c:	e1a01180 	lsl	r1, r0, #3
  404760:	eaffff24 	b	4043f8 <_malloc_r+0xd0>
  404764:	e594e008 	ldr	lr, [r4, #8]
  404768:	e0841005 	add	r1, r4, r5
  40476c:	e3855001 	orr	r5, r5, #1
  404770:	e5845004 	str	r5, [r4, #4]
  404774:	e58ec00c 	str	ip, [lr, #12]
  404778:	e58ce008 	str	lr, [ip, #8]
  40477c:	e382c001 	orr	ip, r2, #1
  404780:	e5861010 	str	r1, [r6, #16]
  404784:	e5861014 	str	r1, [r6, #20]
  404788:	e1a00007 	mov	r0, r7
  40478c:	e581800c 	str	r8, [r1, #12]
  404790:	e5818008 	str	r8, [r1, #8]
  404794:	e581c004 	str	ip, [r1, #4]
  404798:	e7842003 	str	r2, [r4, r3]
  40479c:	eb00014a 	bl	404ccc <__malloc_unlock>
  4047a0:	e2844008 	add	r4, r4, #8
  4047a4:	eafffefe 	b	4043a4 <_malloc_r+0x7c>
  4047a8:	e0843003 	add	r3, r4, r3
  4047ac:	e5932004 	ldr	r2, [r3, #4]
  4047b0:	e3822001 	orr	r2, r2, #1
  4047b4:	e5832004 	str	r2, [r3, #4]
  4047b8:	e5b43008 	ldr	r3, [r4, #8]!
  4047bc:	e1a00007 	mov	r0, r7
  4047c0:	e583c00c 	str	ip, [r3, #12]
  4047c4:	e58c3008 	str	r3, [ip, #8]
  4047c8:	eb00013f 	bl	404ccc <__malloc_unlock>
  4047cc:	eafffef4 	b	4043a4 <_malloc_r+0x7c>
  4047d0:	e1a001a5 	lsr	r0, r5, #3
  4047d4:	e2853008 	add	r3, r5, #8
  4047d8:	eafffede 	b	404358 <_malloc_r+0x30>
  4047dc:	e0841001 	add	r1, r4, r1
  4047e0:	e5913004 	ldr	r3, [r1, #4]
  4047e4:	e3833001 	orr	r3, r3, #1
  4047e8:	e1a00007 	mov	r0, r7
  4047ec:	e5813004 	str	r3, [r1, #4]
  4047f0:	eb000135 	bl	404ccc <__malloc_unlock>
  4047f4:	e2844008 	add	r4, r4, #8
  4047f8:	eafffee9 	b	4043a4 <_malloc_r+0x7c>
  4047fc:	e0842005 	add	r2, r4, r5
  404800:	e383c001 	orr	ip, r3, #1
  404804:	e3855001 	orr	r5, r5, #1
  404808:	e5845004 	str	r5, [r4, #4]
  40480c:	e1a00007 	mov	r0, r7
  404810:	e5862010 	str	r2, [r6, #16]
  404814:	e5862014 	str	r2, [r6, #20]
  404818:	e582800c 	str	r8, [r2, #12]
  40481c:	e5828008 	str	r8, [r2, #8]
  404820:	e582c004 	str	ip, [r2, #4]
  404824:	e7843001 	str	r3, [r4, r1]
  404828:	eb000127 	bl	404ccc <__malloc_unlock>
  40482c:	e2844008 	add	r4, r4, #8
  404830:	eafffedb 	b	4043a4 <_malloc_r+0x7c>
  404834:	e1a03321 	lsr	r3, r1, #6
  404838:	e2832039 	add	r2, r3, #57	@ 0x39
  40483c:	e1a02182 	lsl	r2, r2, #3
  404840:	e2833038 	add	r3, r3, #56	@ 0x38
  404844:	eaffffaa 	b	4046f4 <_malloc_r+0x3cc>
  404848:	e1540006 	cmp	r4, r6
  40484c:	0a00001b 	beq	4048c0 <_malloc_r+0x598>
  404850:	e5964008 	ldr	r4, [r6, #8]
  404854:	e5948004 	ldr	r8, [r4, #4]
  404858:	eaffff7f 	b	40465c <_malloc_r+0x334>
  40485c:	e283005c 	add	r0, r3, #92	@ 0x5c
  404860:	e283c05b 	add	ip, r3, #91	@ 0x5b
  404864:	e1a01180 	lsl	r1, r0, #3
  404868:	eafffee2 	b	4043f8 <_malloc_r+0xd0>
  40486c:	e41a3008 	ldr	r3, [sl], #-8
  404870:	e153000a 	cmp	r3, sl
  404874:	e2400001 	sub	r0, r0, #1
  404878:	1a000091 	bne	404ac4 <_malloc_r+0x79c>
  40487c:	e3100003 	tst	r0, #3
  404880:	1afffff9 	bne	40486c <_malloc_r+0x544>
  404884:	e5963004 	ldr	r3, [r6, #4]
  404888:	e1c33001 	bic	r3, r3, r1
  40488c:	e5863004 	str	r3, [r6, #4]
  404890:	e1a01081 	lsl	r1, r1, #1
  404894:	e2412001 	sub	r2, r1, #1
  404898:	e1520003 	cmp	r2, r3
  40489c:	2affff33 	bcs	404570 <_malloc_r+0x248>
  4048a0:	e1110003 	tst	r1, r3
  4048a4:	1a000003 	bne	4048b8 <_malloc_r+0x590>
  4048a8:	e1a01081 	lsl	r1, r1, #1
  4048ac:	e1110003 	tst	r1, r3
  4048b0:	e2899004 	add	r9, r9, #4
  4048b4:	0afffffb 	beq	4048a8 <_malloc_r+0x580>
  4048b8:	e1a00009 	mov	r0, r9
  4048bc:	eaffff0e 	b	4044fc <_malloc_r+0x1d4>
  4048c0:	e59f3214 	ldr	r3, [pc, #532]	@ 404adc <_malloc_r+0x7b4>
  4048c4:	e593c000 	ldr	ip, [r3]
  4048c8:	e088c00c 	add	ip, r8, ip
  4048cc:	e583c000 	str	ip, [r3]
  4048d0:	e24b0001 	sub	r0, fp, #1
  4048d4:	e5921000 	ldr	r1, [r2]
  4048d8:	e3710001 	cmn	r1, #1
  4048dc:	10842009 	addne	r2, r4, r9
  4048e0:	104a2002 	subne	r2, sl, r2
  4048e4:	1082200c 	addne	r2, r2, ip
  4048e8:	0582a000 	streq	sl, [r2]
  4048ec:	15832000 	strne	r2, [r3]
  4048f0:	e21a2007 	ands	r2, sl, #7
  4048f4:	e88d000c 	stm	sp, {r2, r3}
  4048f8:	0a00002d 	beq	4049b4 <_malloc_r+0x68c>
  4048fc:	e2622008 	rsb	r2, r2, #8
  404900:	e08aa002 	add	sl, sl, r2
  404904:	e08a8008 	add	r8, sl, r8
  404908:	e0081000 	and	r1, r8, r0
  40490c:	e08b2002 	add	r2, fp, r2
  404910:	e0422001 	sub	r2, r2, r1
  404914:	e002b000 	and	fp, r2, r0
  404918:	e1a0100b 	mov	r1, fp
  40491c:	e1a00007 	mov	r0, r7
  404920:	eb00032c 	bl	4055d8 <_sbrk_r>
  404924:	e3700001 	cmn	r0, #1
  404928:	e59d3004 	ldr	r3, [sp, #4]
  40492c:	0a000051 	beq	404a78 <_malloc_r+0x750>
  404930:	e040000a 	sub	r0, r0, sl
  404934:	e080800b 	add	r8, r0, fp
  404938:	e5931000 	ldr	r1, [r3]
  40493c:	e3888001 	orr	r8, r8, #1
  404940:	e08b1001 	add	r1, fp, r1
  404944:	e1540006 	cmp	r4, r6
  404948:	e586a008 	str	sl, [r6, #8]
  40494c:	e5831000 	str	r1, [r3]
  404950:	e58a8004 	str	r8, [sl, #4]
  404954:	0affff37 	beq	404638 <_malloc_r+0x310>
  404958:	e359000f 	cmp	r9, #15
  40495c:	93a03001 	movls	r3, #1
  404960:	958a3004 	strls	r3, [sl, #4]
  404964:	9affff45 	bls	404680 <_malloc_r+0x358>
  404968:	e3a0c005 	mov	ip, #5
  40496c:	e5940004 	ldr	r0, [r4, #4]
  404970:	e249200c 	sub	r2, r9, #12
  404974:	e3c22007 	bic	r2, r2, #7
  404978:	e2000001 	and	r0, r0, #1
  40497c:	e1800002 	orr	r0, r0, r2
  404980:	e352000f 	cmp	r2, #15
  404984:	e0842002 	add	r2, r4, r2
  404988:	e5840004 	str	r0, [r4, #4]
  40498c:	e582c004 	str	ip, [r2, #4]
  404990:	e582c008 	str	ip, [r2, #8]
  404994:	8a00002f 	bhi	404a58 <_malloc_r+0x730>
  404998:	e59a8004 	ldr	r8, [sl, #4]
  40499c:	eaffff25 	b	404638 <_malloc_r+0x310>
  4049a0:	e3a01001 	mov	r1, #1
  4049a4:	e1a03143 	asr	r3, r3, #2
  4049a8:	e18cc311 	orr	ip, ip, r1, lsl r3
  4049ac:	e586c004 	str	ip, [r6, #4]
  4049b0:	eaffff5d 	b	40472c <_malloc_r+0x404>
  4049b4:	e08a2008 	add	r2, sl, r8
  4049b8:	e0022000 	and	r2, r2, r0
  4049bc:	e04bb002 	sub	fp, fp, r2
  4049c0:	e00bb000 	and	fp, fp, r0
  4049c4:	e1a0100b 	mov	r1, fp
  4049c8:	e1a00007 	mov	r0, r7
  4049cc:	eb000301 	bl	4055d8 <_sbrk_r>
  4049d0:	e3700001 	cmn	r0, #1
  4049d4:	e59d3004 	ldr	r3, [sp, #4]
  4049d8:	1affffd4 	bne	404930 <_malloc_r+0x608>
  4049dc:	e59db000 	ldr	fp, [sp]
  4049e0:	eaffffd4 	b	404938 <_malloc_r+0x610>
  4049e4:	e3530054 	cmp	r3, #84	@ 0x54
  4049e8:	8a00000b 	bhi	404a1c <_malloc_r+0x6f4>
  4049ec:	e1a03621 	lsr	r3, r1, #12
  4049f0:	e283206f 	add	r2, r3, #111	@ 0x6f
  4049f4:	e1a02182 	lsl	r2, r2, #3
  4049f8:	e283306e 	add	r3, r3, #110	@ 0x6e
  4049fc:	eaffff3c 	b	4046f4 <_malloc_r+0x3cc>
  404a00:	e3530f55 	cmp	r3, #340	@ 0x154
  404a04:	8a00000b 	bhi	404a38 <_malloc_r+0x710>
  404a08:	e1a037a5 	lsr	r3, r5, #15
  404a0c:	e2830078 	add	r0, r3, #120	@ 0x78
  404a10:	e283c077 	add	ip, r3, #119	@ 0x77
  404a14:	e1a01180 	lsl	r1, r0, #3
  404a18:	eafffe76 	b	4043f8 <_malloc_r+0xd0>
  404a1c:	e3530f55 	cmp	r3, #340	@ 0x154
  404a20:	8a00001a 	bhi	404a90 <_malloc_r+0x768>
  404a24:	e1a037a1 	lsr	r3, r1, #15
  404a28:	e2832078 	add	r2, r3, #120	@ 0x78
  404a2c:	e1a02182 	lsl	r2, r2, #3
  404a30:	e2833077 	add	r3, r3, #119	@ 0x77
  404a34:	eaffff2e 	b	4046f4 <_malloc_r+0x3cc>
  404a38:	e59f20a8 	ldr	r2, [pc, #168]	@ 404ae8 <_malloc_r+0x7c0>
  404a3c:	e1530002 	cmp	r3, r2
  404a40:	8a00001b 	bhi	404ab4 <_malloc_r+0x78c>
  404a44:	e1a03925 	lsr	r3, r5, #18
  404a48:	e283007d 	add	r0, r3, #125	@ 0x7d
  404a4c:	e283c07c 	add	ip, r3, #124	@ 0x7c
  404a50:	e1a01180 	lsl	r1, r0, #3
  404a54:	eafffe67 	b	4043f8 <_malloc_r+0xd0>
  404a58:	e2841008 	add	r1, r4, #8
  404a5c:	e1a00007 	mov	r0, r7
  404a60:	e58d3000 	str	r3, [sp]
  404a64:	eb0001fd 	bl	405260 <_free_r>
  404a68:	e59d3000 	ldr	r3, [sp]
  404a6c:	e596a008 	ldr	sl, [r6, #8]
  404a70:	e5931000 	ldr	r1, [r3]
  404a74:	eaffffc7 	b	404998 <_malloc_r+0x670>
  404a78:	e59d2000 	ldr	r2, [sp]
  404a7c:	e2422008 	sub	r2, r2, #8
  404a80:	e0888002 	add	r8, r8, r2
  404a84:	e3a0b000 	mov	fp, #0
  404a88:	e048800a 	sub	r8, r8, sl
  404a8c:	eaffffa9 	b	404938 <_malloc_r+0x610>
  404a90:	e59f2050 	ldr	r2, [pc, #80]	@ 404ae8 <_malloc_r+0x7c0>
  404a94:	e1530002 	cmp	r3, r2
  404a98:	91a03921 	lsrls	r3, r1, #18
  404a9c:	9283207d 	addls	r2, r3, #125	@ 0x7d
  404aa0:	83a02ffe 	movhi	r2, #1016	@ 0x3f8
  404aa4:	83a0307e 	movhi	r3, #126	@ 0x7e
  404aa8:	9283307c 	addls	r3, r3, #124	@ 0x7c
  404aac:	91a02182 	lslls	r2, r2, #3
  404ab0:	eaffff0f 	b	4046f4 <_malloc_r+0x3cc>
  404ab4:	e3a01ffe 	mov	r1, #1016	@ 0x3f8
  404ab8:	e3a0007f 	mov	r0, #127	@ 0x7f
  404abc:	e3a0c07e 	mov	ip, #126	@ 0x7e
  404ac0:	eafffe4c 	b	4043f8 <_malloc_r+0xd0>
  404ac4:	e5963004 	ldr	r3, [r6, #4]
  404ac8:	eaffff70 	b	404890 <_malloc_r+0x568>
  404acc:	004057e8 	subeq	r5, r0, r8, ror #15
  404ad0:	004057f0 	strdeq	r5, [r0], #-112	@ 0xffffff90
  404ad4:	0040f300 	subeq	pc, r0, r0, lsl #6
  404ad8:	004057dc 	ldrdeq	r5, [r0], #-124	@ 0xffffff84
  404adc:	0040f2d0 	ldrdeq	pc, [r0], #-32	@ 0xffffffe0
  404ae0:	0040f2fc 	strdeq	pc, [r0], #-44	@ 0xffffffd4
  404ae4:	0040f2f8 	strdeq	pc, [r0], #-40	@ 0xffffffd8
  404ae8:	00000554 	andeq	r0, r0, r4, asr r5

Disassembly of section .text.__retarget_lock_init:

00404aec <__retarget_lock_init>:
  404aec:	e12fff1e 	bx	lr

Disassembly of section .text.__retarget_lock_init_recursive:

00404af0 <__retarget_lock_init_recursive>:
  404af0:	e12fff1e 	bx	lr

Disassembly of section .text.__retarget_lock_close:

00404af4 <__retarget_lock_close>:
  404af4:	e12fff1e 	bx	lr

Disassembly of section .text.__retarget_lock_close_recursive:

00404af8 <__retarget_lock_close_recursive>:
  404af8:	e12fff1e 	bx	lr

Disassembly of section .text.__retarget_lock_acquire:

00404afc <__retarget_lock_acquire>:
  404afc:	e12fff1e 	bx	lr

Disassembly of section .text.__retarget_lock_acquire_recursive:

00404b00 <__retarget_lock_acquire_recursive>:
  404b00:	e12fff1e 	bx	lr

Disassembly of section .text.__retarget_lock_try_acquire:

00404b04 <__retarget_lock_try_acquire>:
  404b04:	e3a00001 	mov	r0, #1
  404b08:	e12fff1e 	bx	lr

Disassembly of section .text.__retarget_lock_try_acquire_recursive:

00404b0c <__retarget_lock_try_acquire_recursive>:
  404b0c:	e3a00001 	mov	r0, #1
  404b10:	e12fff1e 	bx	lr

Disassembly of section .text.__retarget_lock_release:

00404b14 <__retarget_lock_release>:
  404b14:	e12fff1e 	bx	lr

Disassembly of section .text.__retarget_lock_release_recursive:

00404b18 <__retarget_lock_release_recursive>:
  404b18:	e12fff1e 	bx	lr

Disassembly of section .text._fclose_r:

00404b1c <_fclose_r>:
  404b1c:	e92d4070 	push	{r4, r5, r6, lr}
  404b20:	e2514000 	subs	r4, r1, #0
  404b24:	0a000039 	beq	404c10 <_fclose_r+0xf4>
  404b28:	e3500000 	cmp	r0, #0
  404b2c:	e1a05000 	mov	r5, r0
  404b30:	0a000002 	beq	404b40 <_fclose_r+0x24>
  404b34:	e5903034 	ldr	r3, [r0, #52]	@ 0x34
  404b38:	e3530000 	cmp	r3, #0
  404b3c:	0a000037 	beq	404c20 <_fclose_r+0x104>
  404b40:	e5943064 	ldr	r3, [r4, #100]	@ 0x64
  404b44:	e3130001 	tst	r3, #1
  404b48:	e1d420fc 	ldrsh	r2, [r4, #12]
  404b4c:	1a00002d 	bne	404c08 <_fclose_r+0xec>
  404b50:	e3120c02 	tst	r2, #512	@ 0x200
  404b54:	0a000033 	beq	404c28 <_fclose_r+0x10c>
  404b58:	e1a01004 	mov	r1, r4
  404b5c:	e1a00005 	mov	r0, r5
  404b60:	eb000097 	bl	404dc4 <__sflush_r>
  404b64:	e594302c 	ldr	r3, [r4, #44]	@ 0x2c
  404b68:	e3530000 	cmp	r3, #0
  404b6c:	e1a06000 	mov	r6, r0
  404b70:	0a000005 	beq	404b8c <_fclose_r+0x70>
  404b74:	e1a00005 	mov	r0, r5
  404b78:	e594101c 	ldr	r1, [r4, #28]
  404b7c:	e1a0e00f 	mov	lr, pc
  404b80:	e12fff13 	bx	r3
  404b84:	e3500000 	cmp	r0, #0
  404b88:	b3e06000 	mvnlt	r6, #0
  404b8c:	e1d430bc 	ldrh	r3, [r4, #12]
  404b90:	e3130080 	tst	r3, #128	@ 0x80
  404b94:	1a000031 	bne	404c60 <_fclose_r+0x144>
  404b98:	e5941030 	ldr	r1, [r4, #48]	@ 0x30
  404b9c:	e3510000 	cmp	r1, #0
  404ba0:	0a000005 	beq	404bbc <_fclose_r+0xa0>
  404ba4:	e2843040 	add	r3, r4, #64	@ 0x40
  404ba8:	e1510003 	cmp	r1, r3
  404bac:	11a00005 	movne	r0, r5
  404bb0:	1b0001aa 	blne	405260 <_free_r>
  404bb4:	e3a03000 	mov	r3, #0
  404bb8:	e5843030 	str	r3, [r4, #48]	@ 0x30
  404bbc:	e5941044 	ldr	r1, [r4, #68]	@ 0x44
  404bc0:	e3510000 	cmp	r1, #0
  404bc4:	0a000003 	beq	404bd8 <_fclose_r+0xbc>
  404bc8:	e1a00005 	mov	r0, r5
  404bcc:	eb0001a3 	bl	405260 <_free_r>
  404bd0:	e3a03000 	mov	r3, #0
  404bd4:	e5843044 	str	r3, [r4, #68]	@ 0x44
  404bd8:	ebfffd2f 	bl	40409c <__sfp_lock_acquire>
  404bdc:	e3a03000 	mov	r3, #0
  404be0:	e5942064 	ldr	r2, [r4, #100]	@ 0x64
  404be4:	e3120001 	tst	r2, #1
  404be8:	e1c430bc 	strh	r3, [r4, #12]
  404bec:	0a000018 	beq	404c54 <_fclose_r+0x138>
  404bf0:	e5940058 	ldr	r0, [r4, #88]	@ 0x58
  404bf4:	ebffffbf 	bl	404af8 <__retarget_lock_close_recursive>
  404bf8:	ebfffd2d 	bl	4040b4 <__sfp_lock_release>
  404bfc:	e1a00006 	mov	r0, r6
  404c00:	e8bd4070 	pop	{r4, r5, r6, lr}
  404c04:	e12fff1e 	bx	lr
  404c08:	e3520000 	cmp	r2, #0
  404c0c:	1affffd1 	bne	404b58 <_fclose_r+0x3c>
  404c10:	e3a06000 	mov	r6, #0
  404c14:	e1a00006 	mov	r0, r6
  404c18:	e8bd4070 	pop	{r4, r5, r6, lr}
  404c1c:	e12fff1e 	bx	lr
  404c20:	ebfffd04 	bl	404038 <__sinit>
  404c24:	eaffffc5 	b	404b40 <_fclose_r+0x24>
  404c28:	e5940058 	ldr	r0, [r4, #88]	@ 0x58
  404c2c:	ebffffb3 	bl	404b00 <__retarget_lock_acquire_recursive>
  404c30:	e1d430fc 	ldrsh	r3, [r4, #12]
  404c34:	e3530000 	cmp	r3, #0
  404c38:	1affffc6 	bne	404b58 <_fclose_r+0x3c>
  404c3c:	e5943064 	ldr	r3, [r4, #100]	@ 0x64
  404c40:	e3130001 	tst	r3, #1
  404c44:	1afffff1 	bne	404c10 <_fclose_r+0xf4>
  404c48:	e5940058 	ldr	r0, [r4, #88]	@ 0x58
  404c4c:	ebffffb1 	bl	404b18 <__retarget_lock_release_recursive>
  404c50:	eaffffee 	b	404c10 <_fclose_r+0xf4>
  404c54:	e5940058 	ldr	r0, [r4, #88]	@ 0x58
  404c58:	ebffffae 	bl	404b18 <__retarget_lock_release_recursive>
  404c5c:	eaffffe3 	b	404bf0 <_fclose_r+0xd4>
  404c60:	e1a00005 	mov	r0, r5
  404c64:	e5941010 	ldr	r1, [r4, #16]
  404c68:	eb00017c 	bl	405260 <_free_r>
  404c6c:	eaffffc9 	b	404b98 <_fclose_r+0x7c>

Disassembly of section .text.fclose:

00404c70 <fclose>:
  404c70:	e59f3008 	ldr	r3, [pc, #8]	@ 404c80 <fclose+0x10>
  404c74:	e1a01000 	mov	r1, r0
  404c78:	e5930000 	ldr	r0, [r3]
  404c7c:	eaffffa6 	b	404b1c <_fclose_r>
  404c80:	004056a8 	subeq	r5, r0, r8, lsr #13

Disassembly of section .text.sysconf:

00404c84 <sysconf>:
  404c84:	e3500008 	cmp	r0, #8
  404c88:	1a000001 	bne	404c94 <sysconf+0x10>
  404c8c:	e3a00a01 	mov	r0, #4096	@ 0x1000
  404c90:	e12fff1e 	bx	lr
  404c94:	e92d4010 	push	{r4, lr}
  404c98:	ebfffb99 	bl	403b04 <__errno>
  404c9c:	e3a02016 	mov	r2, #22
  404ca0:	e1a03000 	mov	r3, r0
  404ca4:	e8bd4010 	pop	{r4, lr}
  404ca8:	e3e00000 	mvn	r0, #0
  404cac:	e5832000 	str	r2, [r3]
  404cb0:	e12fff1e 	bx	lr

Disassembly of section .text.__malloc_lock:

00404cb4 <__malloc_lock>:
  404cb4:	e92d4010 	push	{r4, lr}
  404cb8:	e59f0008 	ldr	r0, [pc, #8]	@ 404cc8 <__malloc_lock+0x14>
  404cbc:	ebffff8f 	bl	404b00 <__retarget_lock_acquire_recursive>
  404cc0:	e8bd4010 	pop	{r4, lr}
  404cc4:	e12fff1e 	bx	lr
  404cc8:	0040f314 	subeq	pc, r0, r4, lsl r3	@ <UNPREDICTABLE>

Disassembly of section .text.__malloc_unlock:

00404ccc <__malloc_unlock>:
  404ccc:	e92d4010 	push	{r4, lr}
  404cd0:	e59f0008 	ldr	r0, [pc, #8]	@ 404ce0 <__malloc_unlock+0x14>
  404cd4:	ebffff8f 	bl	404b18 <__retarget_lock_release_recursive>
  404cd8:	e8bd4010 	pop	{r4, lr}
  404cdc:	e12fff1e 	bx	lr
  404ce0:	0040f314 	subeq	pc, r0, r4, lsl r3	@ <UNPREDICTABLE>

Disassembly of section .text._close_r:

00404ce4 <_close_r>:
  404ce4:	e3a02000 	mov	r2, #0
  404ce8:	e92d4070 	push	{r4, r5, r6, lr}
  404cec:	e59f5028 	ldr	r5, [pc, #40]	@ 404d1c <_close_r+0x38>
  404cf0:	e1a04000 	mov	r4, r0
  404cf4:	e1a00001 	mov	r0, r1
  404cf8:	e5852000 	str	r2, [r5]
  404cfc:	eb000246 	bl	40561c <_close>
  404d00:	e3700001 	cmn	r0, #1
  404d04:	1a000002 	bne	404d14 <_close_r+0x30>
  404d08:	e5953000 	ldr	r3, [r5]
  404d0c:	e3530000 	cmp	r3, #0
  404d10:	15843000 	strne	r3, [r4]
  404d14:	e8bd4070 	pop	{r4, r5, r6, lr}
  404d18:	e12fff1e 	bx	lr
  404d1c:	0040f324 	subeq	pc, r0, r4, lsr #6

Disassembly of section .text._reclaim_reent:

00404d20 <_reclaim_reent>:
  404d20:	e59f3098 	ldr	r3, [pc, #152]	@ 404dc0 <_reclaim_reent+0xa0>
  404d24:	e5933000 	ldr	r3, [r3]
  404d28:	e1530000 	cmp	r3, r0
  404d2c:	012fff1e 	bxeq	lr
  404d30:	e5901044 	ldr	r1, [r0, #68]	@ 0x44
  404d34:	e3510000 	cmp	r1, #0
  404d38:	e92d4070 	push	{r4, r5, r6, lr}
  404d3c:	e1a05000 	mov	r5, r0
  404d40:	0a00000f 	beq	404d84 <_reclaim_reent+0x64>
  404d44:	e3a06000 	mov	r6, #0
  404d48:	e7914006 	ldr	r4, [r1, r6]
  404d4c:	e3540000 	cmp	r4, #0
  404d50:	0a000006 	beq	404d70 <_reclaim_reent+0x50>
  404d54:	e1a01004 	mov	r1, r4
  404d58:	e5944000 	ldr	r4, [r4]
  404d5c:	e1a00005 	mov	r0, r5
  404d60:	eb00013e 	bl	405260 <_free_r>
  404d64:	e3540000 	cmp	r4, #0
  404d68:	1afffff9 	bne	404d54 <_reclaim_reent+0x34>
  404d6c:	e5951044 	ldr	r1, [r5, #68]	@ 0x44
  404d70:	e2866004 	add	r6, r6, #4
  404d74:	e3560080 	cmp	r6, #128	@ 0x80
  404d78:	1afffff2 	bne	404d48 <_reclaim_reent+0x28>
  404d7c:	e1a00005 	mov	r0, r5
  404d80:	eb000136 	bl	405260 <_free_r>
  404d84:	e5951038 	ldr	r1, [r5, #56]	@ 0x38
  404d88:	e3510000 	cmp	r1, #0
  404d8c:	11a00005 	movne	r0, r5
  404d90:	1b000132 	blne	405260 <_free_r>
  404d94:	e595104c 	ldr	r1, [r5, #76]	@ 0x4c
  404d98:	e3510000 	cmp	r1, #0
  404d9c:	11a00005 	movne	r0, r5
  404da0:	1b00012e 	blne	405260 <_free_r>
  404da4:	e5953034 	ldr	r3, [r5, #52]	@ 0x34
  404da8:	e3530000 	cmp	r3, #0
  404dac:	11a00005 	movne	r0, r5
  404db0:	18bd4070 	popne	{r4, r5, r6, lr}
  404db4:	112fff13 	bxne	r3
  404db8:	e8bd4070 	pop	{r4, r5, r6, lr}
  404dbc:	e12fff1e 	bx	lr
  404dc0:	004056a8 	subeq	r5, r0, r8, lsr #13

Disassembly of section .text.__sflush_r:

00404dc4 <__sflush_r>:
  404dc4:	e1d120fc 	ldrsh	r2, [r1, #12]
  404dc8:	e3120008 	tst	r2, #8
  404dcc:	e92d41f0 	push	{r4, r5, r6, r7, r8, lr}
  404dd0:	e1a04001 	mov	r4, r1
  404dd4:	e1a07000 	mov	r7, r0
  404dd8:	1a000044 	bne	404ef0 <__sflush_r+0x12c>
  404ddc:	e5911004 	ldr	r1, [r1, #4]
  404de0:	e3823b02 	orr	r3, r2, #2048	@ 0x800
  404de4:	e3510000 	cmp	r1, #0
  404de8:	e1c430bc 	strh	r3, [r4, #12]
  404dec:	da00005f 	ble	404f70 <__sflush_r+0x1ac>
  404df0:	e5945028 	ldr	r5, [r4, #40]	@ 0x28
  404df4:	e3550000 	cmp	r5, #0
  404df8:	0a000039 	beq	404ee4 <__sflush_r+0x120>
  404dfc:	e3a01000 	mov	r1, #0
  404e00:	e2122a01 	ands	r2, r2, #4096	@ 0x1000
  404e04:	e5976000 	ldr	r6, [r7]
  404e08:	e5871000 	str	r1, [r7]
  404e0c:	e594101c 	ldr	r1, [r4, #28]
  404e10:	1a00005a 	bne	404f80 <__sflush_r+0x1bc>
  404e14:	e3a03001 	mov	r3, #1
  404e18:	e1a00007 	mov	r0, r7
  404e1c:	e1a0e00f 	mov	lr, pc
  404e20:	e12fff15 	bx	r5
  404e24:	e3700001 	cmn	r0, #1
  404e28:	e1a02000 	mov	r2, r0
  404e2c:	0a00005f 	beq	404fb0 <__sflush_r+0x1ec>
  404e30:	e1d430fc 	ldrsh	r3, [r4, #12]
  404e34:	e5945028 	ldr	r5, [r4, #40]	@ 0x28
  404e38:	e594101c 	ldr	r1, [r4, #28]
  404e3c:	e3130004 	tst	r3, #4
  404e40:	0a000005 	beq	404e5c <__sflush_r+0x98>
  404e44:	e5943030 	ldr	r3, [r4, #48]	@ 0x30
  404e48:	e3530000 	cmp	r3, #0
  404e4c:	e5943004 	ldr	r3, [r4, #4]
  404e50:	e0422003 	sub	r2, r2, r3
  404e54:	1594303c 	ldrne	r3, [r4, #60]	@ 0x3c
  404e58:	10422003 	subne	r2, r2, r3
  404e5c:	e3a03000 	mov	r3, #0
  404e60:	e1a00007 	mov	r0, r7
  404e64:	e1a0e00f 	mov	lr, pc
  404e68:	e12fff15 	bx	r5
  404e6c:	e3700001 	cmn	r0, #1
  404e70:	1a000044 	bne	404f88 <__sflush_r+0x1c4>
  404e74:	e5972000 	ldr	r2, [r7]
  404e78:	e352001d 	cmp	r2, #29
  404e7c:	13520000 	cmpne	r2, #0
  404e80:	03a01001 	moveq	r1, #1
  404e84:	13a01000 	movne	r1, #0
  404e88:	e3520016 	cmp	r2, #22
  404e8c:	03811001 	orreq	r1, r1, #1
  404e90:	e3510000 	cmp	r1, #0
  404e94:	e1d430fc 	ldrsh	r3, [r4, #12]
  404e98:	0a00002f 	beq	404f5c <__sflush_r+0x198>
  404e9c:	e3130a01 	tst	r3, #4096	@ 0x1000
  404ea0:	e3c33b02 	bic	r3, r3, #2048	@ 0x800
  404ea4:	e1c430bc 	strh	r3, [r4, #12]
  404ea8:	e3a03000 	mov	r3, #0
  404eac:	e5843004 	str	r3, [r4, #4]
  404eb0:	e5943010 	ldr	r3, [r4, #16]
  404eb4:	e5843000 	str	r3, [r4]
  404eb8:	1a000044 	bne	404fd0 <__sflush_r+0x20c>
  404ebc:	e5941030 	ldr	r1, [r4, #48]	@ 0x30
  404ec0:	e3510000 	cmp	r1, #0
  404ec4:	e5876000 	str	r6, [r7]
  404ec8:	0a000005 	beq	404ee4 <__sflush_r+0x120>
  404ecc:	e2843040 	add	r3, r4, #64	@ 0x40
  404ed0:	e1510003 	cmp	r1, r3
  404ed4:	11a00007 	movne	r0, r7
  404ed8:	1b0000e0 	blne	405260 <_free_r>
  404edc:	e3a03000 	mov	r3, #0
  404ee0:	e5843030 	str	r3, [r4, #48]	@ 0x30
  404ee4:	e3a00000 	mov	r0, #0
  404ee8:	e8bd41f0 	pop	{r4, r5, r6, r7, r8, lr}
  404eec:	e12fff1e 	bx	lr
  404ef0:	e5916010 	ldr	r6, [r1, #16]
  404ef4:	e3560000 	cmp	r6, #0
  404ef8:	0afffff9 	beq	404ee4 <__sflush_r+0x120>
  404efc:	e3120003 	tst	r2, #3
  404f00:	13a03000 	movne	r3, #0
  404f04:	e5915000 	ldr	r5, [r1]
  404f08:	05913014 	ldreq	r3, [r1, #20]
  404f0c:	e0455006 	sub	r5, r5, r6
  404f10:	e3550000 	cmp	r5, #0
  404f14:	e5816000 	str	r6, [r1]
  404f18:	e5813008 	str	r3, [r1, #8]
  404f1c:	ca000003 	bgt	404f30 <__sflush_r+0x16c>
  404f20:	eaffffef 	b	404ee4 <__sflush_r+0x120>
  404f24:	e3550000 	cmp	r5, #0
  404f28:	e0866000 	add	r6, r6, r0
  404f2c:	daffffec 	ble	404ee4 <__sflush_r+0x120>
  404f30:	e1a03005 	mov	r3, r5
  404f34:	e1a02006 	mov	r2, r6
  404f38:	e1a00007 	mov	r0, r7
  404f3c:	e594101c 	ldr	r1, [r4, #28]
  404f40:	e594c024 	ldr	ip, [r4, #36]	@ 0x24
  404f44:	e1a0e00f 	mov	lr, pc
  404f48:	e12fff1c 	bx	ip
  404f4c:	e3500000 	cmp	r0, #0
  404f50:	e0455000 	sub	r5, r5, r0
  404f54:	cafffff2 	bgt	404f24 <__sflush_r+0x160>
  404f58:	e1d430fc 	ldrsh	r3, [r4, #12]
  404f5c:	e3833040 	orr	r3, r3, #64	@ 0x40
  404f60:	e3e00000 	mvn	r0, #0
  404f64:	e1c430bc 	strh	r3, [r4, #12]
  404f68:	e8bd41f0 	pop	{r4, r5, r6, r7, r8, lr}
  404f6c:	e12fff1e 	bx	lr
  404f70:	e594103c 	ldr	r1, [r4, #60]	@ 0x3c
  404f74:	e3510000 	cmp	r1, #0
  404f78:	caffff9c 	bgt	404df0 <__sflush_r+0x2c>
  404f7c:	eaffffd8 	b	404ee4 <__sflush_r+0x120>
  404f80:	e5942050 	ldr	r2, [r4, #80]	@ 0x50
  404f84:	eaffffac 	b	404e3c <__sflush_r+0x78>
  404f88:	e1d430fc 	ldrsh	r3, [r4, #12]
  404f8c:	e3130a01 	tst	r3, #4096	@ 0x1000
  404f90:	e3c33b02 	bic	r3, r3, #2048	@ 0x800
  404f94:	e1c430bc 	strh	r3, [r4, #12]
  404f98:	e3a03000 	mov	r3, #0
  404f9c:	e5942010 	ldr	r2, [r4, #16]
  404fa0:	e884000c 	stm	r4, {r2, r3}
  404fa4:	0affffc4 	beq	404ebc <__sflush_r+0xf8>
  404fa8:	e5840050 	str	r0, [r4, #80]	@ 0x50
  404fac:	eaffffc2 	b	404ebc <__sflush_r+0xf8>
  404fb0:	e5973000 	ldr	r3, [r7]
  404fb4:	e3530000 	cmp	r3, #0
  404fb8:	0affff9c 	beq	404e30 <__sflush_r+0x6c>
  404fbc:	e3530016 	cmp	r3, #22
  404fc0:	1353001d 	cmpne	r3, #29
  404fc4:	05876000 	streq	r6, [r7]
  404fc8:	0affffc5 	beq	404ee4 <__sflush_r+0x120>
  404fcc:	eaffffe1 	b	404f58 <__sflush_r+0x194>
  404fd0:	e3520000 	cmp	r2, #0
  404fd4:	1affffb8 	bne	404ebc <__sflush_r+0xf8>
  404fd8:	eafffff2 	b	404fa8 <__sflush_r+0x1e4>

Disassembly of section .text._fflush_r:

00404fdc <_fflush_r>:
  404fdc:	e92d4070 	push	{r4, r5, r6, lr}
  404fe0:	e2505000 	subs	r5, r0, #0
  404fe4:	e1a04001 	mov	r4, r1
  404fe8:	0a000002 	beq	404ff8 <_fflush_r+0x1c>
  404fec:	e5953034 	ldr	r3, [r5, #52]	@ 0x34
  404ff0:	e3530000 	cmp	r3, #0
  404ff4:	0a00001d 	beq	405070 <_fflush_r+0x94>
  404ff8:	e1d400fc 	ldrsh	r0, [r4, #12]
  404ffc:	e3500000 	cmp	r0, #0
  405000:	01a05000 	moveq	r5, r0
  405004:	0a00000e 	beq	405044 <_fflush_r+0x68>
  405008:	e5943064 	ldr	r3, [r4, #100]	@ 0x64
  40500c:	e3130001 	tst	r3, #1
  405010:	1a000001 	bne	40501c <_fflush_r+0x40>
  405014:	e3100c02 	tst	r0, #512	@ 0x200
  405018:	0a00000c 	beq	405050 <_fflush_r+0x74>
  40501c:	e1a00005 	mov	r0, r5
  405020:	e1a01004 	mov	r1, r4
  405024:	ebffff66 	bl	404dc4 <__sflush_r>
  405028:	e5943064 	ldr	r3, [r4, #100]	@ 0x64
  40502c:	e3130001 	tst	r3, #1
  405030:	e1a05000 	mov	r5, r0
  405034:	1a000002 	bne	405044 <_fflush_r+0x68>
  405038:	e1d430bc 	ldrh	r3, [r4, #12]
  40503c:	e3130c02 	tst	r3, #512	@ 0x200
  405040:	0a000005 	beq	40505c <_fflush_r+0x80>
  405044:	e1a00005 	mov	r0, r5
  405048:	e8bd4070 	pop	{r4, r5, r6, lr}
  40504c:	e12fff1e 	bx	lr
  405050:	e5940058 	ldr	r0, [r4, #88]	@ 0x58
  405054:	ebfffea9 	bl	404b00 <__retarget_lock_acquire_recursive>
  405058:	eaffffef 	b	40501c <_fflush_r+0x40>
  40505c:	e5940058 	ldr	r0, [r4, #88]	@ 0x58
  405060:	ebfffeac 	bl	404b18 <__retarget_lock_release_recursive>
  405064:	e1a00005 	mov	r0, r5
  405068:	e8bd4070 	pop	{r4, r5, r6, lr}
  40506c:	e12fff1e 	bx	lr
  405070:	ebfffbf0 	bl	404038 <__sinit>
  405074:	eaffffdf 	b	404ff8 <_fflush_r+0x1c>

Disassembly of section .text.fflush:

00405078 <fflush>:
  405078:	e92d4070 	push	{r4, r5, r6, lr}
  40507c:	e2504000 	subs	r4, r0, #0
  405080:	0a000025 	beq	40511c <fflush+0xa4>
  405084:	e59f30b0 	ldr	r3, [pc, #176]	@ 40513c <fflush+0xc4>
  405088:	e5935000 	ldr	r5, [r3]
  40508c:	e3550000 	cmp	r5, #0
  405090:	0a000002 	beq	4050a0 <fflush+0x28>
  405094:	e5953034 	ldr	r3, [r5, #52]	@ 0x34
  405098:	e3530000 	cmp	r3, #0
  40509c:	0a000015 	beq	4050f8 <fflush+0x80>
  4050a0:	e1d400fc 	ldrsh	r0, [r4, #12]
  4050a4:	e3500000 	cmp	r0, #0
  4050a8:	01a05000 	moveq	r5, r0
  4050ac:	0a00000e 	beq	4050ec <fflush+0x74>
  4050b0:	e5943064 	ldr	r3, [r4, #100]	@ 0x64
  4050b4:	e3130001 	tst	r3, #1
  4050b8:	1a000001 	bne	4050c4 <fflush+0x4c>
  4050bc:	e3100c02 	tst	r0, #512	@ 0x200
  4050c0:	0a00000f 	beq	405104 <fflush+0x8c>
  4050c4:	e1a00005 	mov	r0, r5
  4050c8:	e1a01004 	mov	r1, r4
  4050cc:	ebffff3c 	bl	404dc4 <__sflush_r>
  4050d0:	e5943064 	ldr	r3, [r4, #100]	@ 0x64
  4050d4:	e3130001 	tst	r3, #1
  4050d8:	e1a05000 	mov	r5, r0
  4050dc:	1a000002 	bne	4050ec <fflush+0x74>
  4050e0:	e1d430bc 	ldrh	r3, [r4, #12]
  4050e4:	e3130c02 	tst	r3, #512	@ 0x200
  4050e8:	0a000008 	beq	405110 <fflush+0x98>
  4050ec:	e1a00005 	mov	r0, r5
  4050f0:	e8bd4070 	pop	{r4, r5, r6, lr}
  4050f4:	e12fff1e 	bx	lr
  4050f8:	e1a00005 	mov	r0, r5
  4050fc:	ebfffbcd 	bl	404038 <__sinit>
  405100:	eaffffe6 	b	4050a0 <fflush+0x28>
  405104:	e5940058 	ldr	r0, [r4, #88]	@ 0x58
  405108:	ebfffe7c 	bl	404b00 <__retarget_lock_acquire_recursive>
  40510c:	eaffffec 	b	4050c4 <fflush+0x4c>
  405110:	e5940058 	ldr	r0, [r4, #88]	@ 0x58
  405114:	ebfffe7f 	bl	404b18 <__retarget_lock_release_recursive>
  405118:	eafffff3 	b	4050ec <fflush+0x74>
  40511c:	e59f201c 	ldr	r2, [pc, #28]	@ 405140 <fflush+0xc8>
  405120:	e59f101c 	ldr	r1, [pc, #28]	@ 405144 <fflush+0xcc>
  405124:	e59f001c 	ldr	r0, [pc, #28]	@ 405148 <fflush+0xd0>
  405128:	ebfffc60 	bl	4042b0 <_fwalk_sglue>
  40512c:	e1a05000 	mov	r5, r0
  405130:	e1a00005 	mov	r0, r5
  405134:	e8bd4070 	pop	{r4, r5, r6, lr}
  405138:	e12fff1e 	bx	lr
  40513c:	004056a8 	subeq	r5, r0, r8, lsr #13
  405140:	004057d0 	ldrdeq	r5, [r0], #-112	@ 0xffffff90
  405144:	00404fdc 	ldrdeq	r4, [r0], #-252	@ 0xffffff04
  405148:	004056b0 	strheq	r5, [r0], #-96	@ 0xffffffa0

Disassembly of section .text._malloc_trim_r:

0040514c <_malloc_trim_r>:
  40514c:	e92d41f0 	push	{r4, r5, r6, r7, r8, lr}
  405150:	e1a06000 	mov	r6, r0
  405154:	e3a00008 	mov	r0, #8
  405158:	e1a05001 	mov	r5, r1
  40515c:	ebfffec8 	bl	404c84 <sysconf>
  405160:	e1a04000 	mov	r4, r0
  405164:	e59f80e8 	ldr	r8, [pc, #232]	@ 405254 <_malloc_trim_r+0x108>
  405168:	e1a00006 	mov	r0, r6
  40516c:	ebfffed0 	bl	404cb4 <__malloc_lock>
  405170:	e5983008 	ldr	r3, [r8, #8]
  405174:	e5937004 	ldr	r7, [r3, #4]
  405178:	e3c77003 	bic	r7, r7, #3
  40517c:	e2470011 	sub	r0, r7, #17
  405180:	e0400005 	sub	r0, r0, r5
  405184:	e1a01004 	mov	r1, r4
  405188:	e0800004 	add	r0, r0, r4
  40518c:	ebfff994 	bl	4037e4 <__udivsi3>
  405190:	e2405001 	sub	r5, r0, #1
  405194:	e0050594 	mul	r5, r4, r5
  405198:	e1540005 	cmp	r4, r5
  40519c:	ca000006 	bgt	4051bc <_malloc_trim_r+0x70>
  4051a0:	e3a01000 	mov	r1, #0
  4051a4:	e1a00006 	mov	r0, r6
  4051a8:	eb00010a 	bl	4055d8 <_sbrk_r>
  4051ac:	e5983008 	ldr	r3, [r8, #8]
  4051b0:	e0833007 	add	r3, r3, r7
  4051b4:	e1500003 	cmp	r0, r3
  4051b8:	0a000004 	beq	4051d0 <_malloc_trim_r+0x84>
  4051bc:	e1a00006 	mov	r0, r6
  4051c0:	ebfffec1 	bl	404ccc <__malloc_unlock>
  4051c4:	e3a00000 	mov	r0, #0
  4051c8:	e8bd41f0 	pop	{r4, r5, r6, r7, r8, lr}
  4051cc:	e12fff1e 	bx	lr
  4051d0:	e1a00006 	mov	r0, r6
  4051d4:	e2651000 	rsb	r1, r5, #0
  4051d8:	eb0000fe 	bl	4055d8 <_sbrk_r>
  4051dc:	e3700001 	cmn	r0, #1
  4051e0:	0a00000c 	beq	405218 <_malloc_trim_r+0xcc>
  4051e4:	e5983008 	ldr	r3, [r8, #8]
  4051e8:	e59f2068 	ldr	r2, [pc, #104]	@ 405258 <_malloc_trim_r+0x10c>
  4051ec:	e0477005 	sub	r7, r7, r5
  4051f0:	e3877001 	orr	r7, r7, #1
  4051f4:	e5837004 	str	r7, [r3, #4]
  4051f8:	e5923000 	ldr	r3, [r2]
  4051fc:	e1a00006 	mov	r0, r6
  405200:	e0433005 	sub	r3, r3, r5
  405204:	e5823000 	str	r3, [r2]
  405208:	ebfffeaf 	bl	404ccc <__malloc_unlock>
  40520c:	e3a00001 	mov	r0, #1
  405210:	e8bd41f0 	pop	{r4, r5, r6, r7, r8, lr}
  405214:	e12fff1e 	bx	lr
  405218:	e3a01000 	mov	r1, #0
  40521c:	e1a00006 	mov	r0, r6
  405220:	eb0000ec 	bl	4055d8 <_sbrk_r>
  405224:	e5982008 	ldr	r2, [r8, #8]
  405228:	e0403002 	sub	r3, r0, r2
  40522c:	e353000f 	cmp	r3, #15
  405230:	daffffe1 	ble	4051bc <_malloc_trim_r+0x70>
  405234:	e3833001 	orr	r3, r3, #1
  405238:	e5823004 	str	r3, [r2, #4]
  40523c:	e59f3018 	ldr	r3, [pc, #24]	@ 40525c <_malloc_trim_r+0x110>
  405240:	e5933000 	ldr	r3, [r3]
  405244:	e59f100c 	ldr	r1, [pc, #12]	@ 405258 <_malloc_trim_r+0x10c>
  405248:	e0400003 	sub	r0, r0, r3
  40524c:	e5810000 	str	r0, [r1]
  405250:	eaffffd9 	b	4051bc <_malloc_trim_r+0x70>
  405254:	004057e8 	subeq	r5, r0, r8, ror #15
  405258:	0040f2d0 	ldrdeq	pc, [r0], #-32	@ 0xffffffe0
  40525c:	004057dc 	ldrdeq	r5, [r0], #-124	@ 0xffffff84

Disassembly of section .text._free_r:

00405260 <_free_r>:
  405260:	e92d4070 	push	{r4, r5, r6, lr}
  405264:	e2514000 	subs	r4, r1, #0
  405268:	0a000032 	beq	405338 <_free_r+0xd8>
  40526c:	e1a05000 	mov	r5, r0
  405270:	ebfffe8f 	bl	404cb4 <__malloc_lock>
  405274:	e5140004 	ldr	r0, [r4, #-4]
  405278:	e59f22b8 	ldr	r2, [pc, #696]	@ 405538 <_free_r+0x2d8>
  40527c:	e244c008 	sub	ip, r4, #8
  405280:	e5923008 	ldr	r3, [r2, #8]
  405284:	e3c01001 	bic	r1, r0, #1
  405288:	e08ce001 	add	lr, ip, r1
  40528c:	e153000e 	cmp	r3, lr
  405290:	e59e3004 	ldr	r3, [lr, #4]
  405294:	e3c33003 	bic	r3, r3, #3
  405298:	0a000064 	beq	405430 <_free_r+0x1d0>
  40529c:	e3100001 	tst	r0, #1
  4052a0:	e58e3004 	str	r3, [lr, #4]
  4052a4:	e08e0003 	add	r0, lr, r3
  4052a8:	1a000024 	bne	405340 <_free_r+0xe0>
  4052ac:	e5144008 	ldr	r4, [r4, #-8]
  4052b0:	e04cc004 	sub	ip, ip, r4
  4052b4:	e0811004 	add	r1, r1, r4
  4052b8:	e59c4008 	ldr	r4, [ip, #8]
  4052bc:	e5900004 	ldr	r0, [r0, #4]
  4052c0:	e2826008 	add	r6, r2, #8
  4052c4:	e1540006 	cmp	r4, r6
  4052c8:	e2000001 	and	r0, r0, #1
  4052cc:	0a000049 	beq	4053f8 <_free_r+0x198>
  4052d0:	e3500000 	cmp	r0, #0
  4052d4:	e59c000c 	ldr	r0, [ip, #12]
  4052d8:	e584000c 	str	r0, [r4, #12]
  4052dc:	e5804008 	str	r4, [r0, #8]
  4052e0:	0a000068 	beq	405488 <_free_r+0x228>
  4052e4:	e3813001 	orr	r3, r1, #1
  4052e8:	e58c3004 	str	r3, [ip, #4]
  4052ec:	e58e1000 	str	r1, [lr]
  4052f0:	e3510c02 	cmp	r1, #512	@ 0x200
  4052f4:	2a000019 	bcs	405360 <_free_r+0x100>
  4052f8:	e3a0e001 	mov	lr, #1
  4052fc:	e1a002a1 	lsr	r0, r1, #5
  405300:	e1a031a1 	lsr	r3, r1, #3
  405304:	e5921004 	ldr	r1, [r2, #4]
  405308:	e2833001 	add	r3, r3, #1
  40530c:	e181101e 	orr	r1, r1, lr, lsl r0
  405310:	e5821004 	str	r1, [r2, #4]
  405314:	e7920183 	ldr	r0, [r2, r3, lsl #3]
  405318:	e0821183 	add	r1, r2, r3, lsl #3
  40531c:	e2411008 	sub	r1, r1, #8
  405320:	e58c100c 	str	r1, [ip, #12]
  405324:	e58c0008 	str	r0, [ip, #8]
  405328:	e782c183 	str	ip, [r2, r3, lsl #3]
  40532c:	e580c00c 	str	ip, [r0, #12]
  405330:	e1a00005 	mov	r0, r5
  405334:	ebfffe64 	bl	404ccc <__malloc_unlock>
  405338:	e8bd4070 	pop	{r4, r5, r6, lr}
  40533c:	e12fff1e 	bx	lr
  405340:	e5900004 	ldr	r0, [r0, #4]
  405344:	e3100001 	tst	r0, #1
  405348:	0a00001e 	beq	4053c8 <_free_r+0x168>
  40534c:	e3813001 	orr	r3, r1, #1
  405350:	e3510c02 	cmp	r1, #512	@ 0x200
  405354:	e5043004 	str	r3, [r4, #-4]
  405358:	e58e1000 	str	r1, [lr]
  40535c:	3affffe5 	bcc	4052f8 <_free_r+0x98>
  405360:	e3510c0a 	cmp	r1, #2560	@ 0xa00
  405364:	e1a034a1 	lsr	r3, r1, #9
  405368:	2a000048 	bcs	405490 <_free_r+0x230>
  40536c:	e1a03321 	lsr	r3, r1, #6
  405370:	e2830039 	add	r0, r3, #57	@ 0x39
  405374:	e283e038 	add	lr, r3, #56	@ 0x38
  405378:	e1a00180 	lsl	r0, r0, #3
  40537c:	e7923000 	ldr	r3, [r2, r0]
  405380:	e0820000 	add	r0, r2, r0
  405384:	e2400008 	sub	r0, r0, #8
  405388:	e1500003 	cmp	r0, r3
  40538c:	1a000003 	bne	4053a0 <_free_r+0x140>
  405390:	ea00004b 	b	4054c4 <_free_r+0x264>
  405394:	e5933008 	ldr	r3, [r3, #8]
  405398:	e1500003 	cmp	r0, r3
  40539c:	0a000003 	beq	4053b0 <_free_r+0x150>
  4053a0:	e5932004 	ldr	r2, [r3, #4]
  4053a4:	e3c22003 	bic	r2, r2, #3
  4053a8:	e1520001 	cmp	r2, r1
  4053ac:	8afffff8 	bhi	405394 <_free_r+0x134>
  4053b0:	e593000c 	ldr	r0, [r3, #12]
  4053b4:	e58c000c 	str	r0, [ip, #12]
  4053b8:	e58c3008 	str	r3, [ip, #8]
  4053bc:	e580c008 	str	ip, [r0, #8]
  4053c0:	e583c00c 	str	ip, [r3, #12]
  4053c4:	eaffffd9 	b	405330 <_free_r+0xd0>
  4053c8:	e0811003 	add	r1, r1, r3
  4053cc:	e2826008 	add	r6, r2, #8
  4053d0:	e59e3008 	ldr	r3, [lr, #8]
  4053d4:	e1530006 	cmp	r3, r6
  4053d8:	0a00003f 	beq	4054dc <_free_r+0x27c>
  4053dc:	e59e000c 	ldr	r0, [lr, #12]
  4053e0:	e583000c 	str	r0, [r3, #12]
  4053e4:	e5803008 	str	r3, [r0, #8]
  4053e8:	e3813001 	orr	r3, r1, #1
  4053ec:	e58c3004 	str	r3, [ip, #4]
  4053f0:	e78c1001 	str	r1, [ip, r1]
  4053f4:	eaffffbd 	b	4052f0 <_free_r+0x90>
  4053f8:	e3500000 	cmp	r0, #0
  4053fc:	13813001 	orrne	r3, r1, #1
  405400:	158c3004 	strne	r3, [ip, #4]
  405404:	158e1000 	strne	r1, [lr]
  405408:	1affffc8 	bne	405330 <_free_r+0xd0>
  40540c:	e0833001 	add	r3, r3, r1
  405410:	e28e1008 	add	r1, lr, #8
  405414:	e8910006 	ldm	r1, {r1, r2}
  405418:	e581200c 	str	r2, [r1, #12]
  40541c:	e5821008 	str	r1, [r2, #8]
  405420:	e3832001 	orr	r2, r3, #1
  405424:	e58c2004 	str	r2, [ip, #4]
  405428:	e78c3003 	str	r3, [ip, r3]
  40542c:	eaffffbf 	b	405330 <_free_r+0xd0>
  405430:	e3100001 	tst	r0, #1
  405434:	e0813003 	add	r3, r1, r3
  405438:	1a000006 	bne	405458 <_free_r+0x1f8>
  40543c:	e5141008 	ldr	r1, [r4, #-8]
  405440:	e04cc001 	sub	ip, ip, r1
  405444:	e28c0008 	add	r0, ip, #8
  405448:	e0833001 	add	r3, r3, r1
  40544c:	e8900003 	ldm	r0, {r0, r1}
  405450:	e580100c 	str	r1, [r0, #12]
  405454:	e5810008 	str	r0, [r1, #8]
  405458:	e3831001 	orr	r1, r3, #1
  40545c:	e58c1004 	str	r1, [ip, #4]
  405460:	e59f10d4 	ldr	r1, [pc, #212]	@ 40553c <_free_r+0x2dc>
  405464:	e582c008 	str	ip, [r2, #8]
  405468:	e5912000 	ldr	r2, [r1]
  40546c:	e1520003 	cmp	r2, r3
  405470:	8affffae 	bhi	405330 <_free_r+0xd0>
  405474:	e59f30c4 	ldr	r3, [pc, #196]	@ 405540 <_free_r+0x2e0>
  405478:	e1a00005 	mov	r0, r5
  40547c:	e5931000 	ldr	r1, [r3]
  405480:	ebffff31 	bl	40514c <_malloc_trim_r>
  405484:	eaffffa9 	b	405330 <_free_r+0xd0>
  405488:	e0811003 	add	r1, r1, r3
  40548c:	eaffffcf 	b	4053d0 <_free_r+0x170>
  405490:	e3530014 	cmp	r3, #20
  405494:	9a000006 	bls	4054b4 <_free_r+0x254>
  405498:	e3530054 	cmp	r3, #84	@ 0x54
  40549c:	8a000015 	bhi	4054f8 <_free_r+0x298>
  4054a0:	e1a03621 	lsr	r3, r1, #12
  4054a4:	e283006f 	add	r0, r3, #111	@ 0x6f
  4054a8:	e283e06e 	add	lr, r3, #110	@ 0x6e
  4054ac:	e1a00180 	lsl	r0, r0, #3
  4054b0:	eaffffb1 	b	40537c <_free_r+0x11c>
  4054b4:	e283005c 	add	r0, r3, #92	@ 0x5c
  4054b8:	e283e05b 	add	lr, r3, #91	@ 0x5b
  4054bc:	e1a00180 	lsl	r0, r0, #3
  4054c0:	eaffffad 	b	40537c <_free_r+0x11c>
  4054c4:	e3a04001 	mov	r4, #1
  4054c8:	e5921004 	ldr	r1, [r2, #4]
  4054cc:	e1a0e14e 	asr	lr, lr, #2
  4054d0:	e1811e14 	orr	r1, r1, r4, lsl lr
  4054d4:	e5821004 	str	r1, [r2, #4]
  4054d8:	eaffffb5 	b	4053b4 <_free_r+0x154>
  4054dc:	e3813001 	orr	r3, r1, #1
  4054e0:	e582c014 	str	ip, [r2, #20]
  4054e4:	e582c010 	str	ip, [r2, #16]
  4054e8:	e98c0048 	stmib	ip, {r3, r6}
  4054ec:	e58c600c 	str	r6, [ip, #12]
  4054f0:	e78c1001 	str	r1, [ip, r1]
  4054f4:	eaffff8d 	b	405330 <_free_r+0xd0>
  4054f8:	e3530f55 	cmp	r3, #340	@ 0x154
  4054fc:	8a000004 	bhi	405514 <_free_r+0x2b4>
  405500:	e1a037a1 	lsr	r3, r1, #15
  405504:	e2830078 	add	r0, r3, #120	@ 0x78
  405508:	e283e077 	add	lr, r3, #119	@ 0x77
  40550c:	e1a00180 	lsl	r0, r0, #3
  405510:	eaffff99 	b	40537c <_free_r+0x11c>
  405514:	e59f0028 	ldr	r0, [pc, #40]	@ 405544 <_free_r+0x2e4>
  405518:	e1530000 	cmp	r3, r0
  40551c:	91a03921 	lsrls	r3, r1, #18
  405520:	9283007d 	addls	r0, r3, #125	@ 0x7d
  405524:	83a00ffe 	movhi	r0, #1016	@ 0x3f8
  405528:	83a0e07e 	movhi	lr, #126	@ 0x7e
  40552c:	9283e07c 	addls	lr, r3, #124	@ 0x7c
  405530:	91a00180 	lslls	r0, r0, #3
  405534:	eaffff90 	b	40537c <_free_r+0x11c>
  405538:	004057e8 	subeq	r5, r0, r8, ror #15
  40553c:	004057e0 	subeq	r5, r0, r0, ror #15
  405540:	0040f300 	subeq	pc, r0, r0, lsl #6
  405544:	00000554 	andeq	r0, r0, r4, asr r5

Disassembly of section .text._lseek_r:

00405548 <_lseek_r>:
  405548:	e92d4070 	push	{r4, r5, r6, lr}
  40554c:	e1a0e001 	mov	lr, r1
  405550:	e1a01002 	mov	r1, r2
  405554:	e3a02000 	mov	r2, #0
  405558:	e59f502c 	ldr	r5, [pc, #44]	@ 40558c <_lseek_r+0x44>
  40555c:	e1a04000 	mov	r4, r0
  405560:	e5852000 	str	r2, [r5]
  405564:	e1a0000e 	mov	r0, lr
  405568:	e1a02003 	mov	r2, r3
  40556c:	eb000030 	bl	405634 <_lseek>
  405570:	e3700001 	cmn	r0, #1
  405574:	1a000002 	bne	405584 <_lseek_r+0x3c>
  405578:	e5953000 	ldr	r3, [r5]
  40557c:	e3530000 	cmp	r3, #0
  405580:	15843000 	strne	r3, [r4]
  405584:	e8bd4070 	pop	{r4, r5, r6, lr}
  405588:	e12fff1e 	bx	lr
  40558c:	0040f324 	subeq	pc, r0, r4, lsr #6

Disassembly of section .text._read_r:

00405590 <_read_r>:
  405590:	e92d4070 	push	{r4, r5, r6, lr}
  405594:	e1a0e001 	mov	lr, r1
  405598:	e1a01002 	mov	r1, r2
  40559c:	e3a02000 	mov	r2, #0
  4055a0:	e59f502c 	ldr	r5, [pc, #44]	@ 4055d4 <_read_r+0x44>
  4055a4:	e1a04000 	mov	r4, r0
  4055a8:	e5852000 	str	r2, [r5]
  4055ac:	e1a0000e 	mov	r0, lr
  4055b0:	e1a02003 	mov	r2, r3
  4055b4:	eb000024 	bl	40564c <_read>
  4055b8:	e3700001 	cmn	r0, #1
  4055bc:	1a000002 	bne	4055cc <_read_r+0x3c>
  4055c0:	e5953000 	ldr	r3, [r5]
  4055c4:	e3530000 	cmp	r3, #0
  4055c8:	15843000 	strne	r3, [r4]
  4055cc:	e8bd4070 	pop	{r4, r5, r6, lr}
  4055d0:	e12fff1e 	bx	lr
  4055d4:	0040f324 	subeq	pc, r0, r4, lsr #6

Disassembly of section .text._sbrk_r:

004055d8 <_sbrk_r>:
  4055d8:	e3a02000 	mov	r2, #0
  4055dc:	e92d4070 	push	{r4, r5, r6, lr}
  4055e0:	e59f5030 	ldr	r5, [pc, #48]	@ 405618 <_sbrk_r+0x40>
  4055e4:	e1a04000 	mov	r4, r0
  4055e8:	e1a00001 	mov	r0, r1
  4055ec:	e5852000 	str	r2, [r5]
  4055f0:	eb00001b 	bl	405664 <_sbrk>
  4055f4:	e3700001 	cmn	r0, #1
  4055f8:	0a000001 	beq	405604 <_sbrk_r+0x2c>
  4055fc:	e8bd4070 	pop	{r4, r5, r6, lr}
  405600:	e12fff1e 	bx	lr
  405604:	e5953000 	ldr	r3, [r5]
  405608:	e3530000 	cmp	r3, #0
  40560c:	15843000 	strne	r3, [r4]
  405610:	e8bd4070 	pop	{r4, r5, r6, lr}
  405614:	e12fff1e 	bx	lr
  405618:	0040f324 	subeq	pc, r0, r4, lsr #6

Disassembly of section .text._close:

0040561c <_close>:
  40561c:	e3a02058 	mov	r2, #88	@ 0x58
  405620:	e59f3008 	ldr	r3, [pc, #8]	@ 405630 <_close+0x14>
  405624:	e3e00000 	mvn	r0, #0
  405628:	e5832000 	str	r2, [r3]
  40562c:	e12fff1e 	bx	lr
  405630:	0040f324 	subeq	pc, r0, r4, lsr #6

Disassembly of section .text._lseek:

00405634 <_lseek>:
  405634:	e3a02058 	mov	r2, #88	@ 0x58
  405638:	e59f3008 	ldr	r3, [pc, #8]	@ 405648 <_lseek+0x14>
  40563c:	e3e00000 	mvn	r0, #0
  405640:	e5832000 	str	r2, [r3]
  405644:	e12fff1e 	bx	lr
  405648:	0040f324 	subeq	pc, r0, r4, lsr #6

Disassembly of section .text._read:

0040564c <_read>:
  40564c:	e3a02058 	mov	r2, #88	@ 0x58
  405650:	e59f3008 	ldr	r3, [pc, #8]	@ 405660 <_read+0x14>
  405654:	e3e00000 	mvn	r0, #0
  405658:	e5832000 	str	r2, [r3]
  40565c:	e12fff1e 	bx	lr
  405660:	0040f324 	subeq	pc, r0, r4, lsr #6

Disassembly of section .text._sbrk:

00405664 <_sbrk>:
  405664:	e59f201c 	ldr	r2, [pc, #28]	@ 405688 <_sbrk+0x24>
  405668:	e5923000 	ldr	r3, [r2]
  40566c:	e59f1018 	ldr	r1, [pc, #24]	@ 40568c <_sbrk+0x28>
  405670:	e3530000 	cmp	r3, #0
  405674:	01a03001 	moveq	r3, r1
  405678:	e0830000 	add	r0, r3, r0
  40567c:	e5820000 	str	r0, [r2]
  405680:	e1a00003 	mov	r0, r3
  405684:	e12fff1e 	bx	lr
  405688:	0040f328 	subeq	pc, r0, r8, lsr #6
  40568c:	0040f194 	umaaleq	pc, r0, r4, r1	@ <UNPREDICTABLE>

Disassembly of section .text._write:

00405690 <_write>:
  405690:	e3a02058 	mov	r2, #88	@ 0x58
  405694:	e59f3008 	ldr	r3, [pc, #8]	@ 4056a4 <_write+0x14>
  405698:	e3e00000 	mvn	r0, #0
  40569c:	e5832000 	str	r2, [r3]
  4056a0:	e12fff1e 	bx	lr
  4056a4:	0040f324 	subeq	pc, r0, r4, lsr #6
